Library RulrLibrary_Debug
EXPORTS
	__imp_glEnable
	__imp_glFlush
	__imp_glLoadIdentity
	__imp_glMultMatrixf
	__imp_glPointSize
	__imp_glPopAttrib
	__imp_glPushAttrib
	glfwCreateWindow
	glfwDestroyWindow
	glfwGetCurrentContext
	glfwHideWindow
	glfwMakeContextCurrent
	glfwPollEvents
	glfwSetWindowPos
	glfwShowWindow
	glfwSwapBuffers
	glfwWindowHint
	??0ofBuffer@@QEAA@AEAV?$basic_istream@DU?$char_traits@D@std@@@std@@_K@Z
	??0ofBuffer@@QEAA@AEBV?$basic_string@DU?$char_traits@D@std@@V?$allocator@D@2@@std@@@Z
	??0ofBuffer@@QEAA@PEBD_K@Z
	??0ofBuffer@@QEAA@XZ
	??0ofFbo@@QEAA@XZ
	??0ofFile@@QEAA@AEBVpath@filesystem@boost@@W4Mode@0@_N@Z
	??0ofFile@@QEAA@XZ
	??0ofLogError@@QEAA@AEBV?$basic_string@DU?$char_traits@D@std@@V?$allocator@D@2@@std@@@Z
	??0ofLogNotice@@QEAA@AEBV?$basic_string@DU?$char_traits@D@std@@V?$allocator@D@2@@std@@@Z
	??0ofLogWarning@@QEAA@AEBV?$basic_string@DU?$char_traits@D@std@@V?$allocator@D@2@@std@@@Z
	??0ofMesh@@QEAA@XZ
	??0ofNode@@QEAA@XZ
	??0ofParameterGroup@@QEAA@XZ
	??0ofPath@@QEAA@XZ
	??0ofPolyline@@QEAA@XZ
	??0ofRectangle@@QEAA@AEBV0@@Z
	??0ofRectangle@@QEAA@MMMM@Z
	??0ofRectangle@@QEAA@XZ
	??0ofSerial@@QEAA@XZ
	??0ofTexture@@QEAA@XZ
	??0ofVbo@@QEAA@AEBV0@@Z
	??0ofVbo@@QEAA@XZ
	??0ofVboMesh@@QEAA@XZ
	??0ofVec2f@@QEAA@AEBVofVec3f@@@Z
	??0ofVec2f@@QEAA@AEBVofVec4f@@@Z
	??0ofVec4f@@QEAA@AEBVofVec2f@@@Z
	??0ofxOscBundle@@QEAA@XZ
	??0ofxOscMessage@@QEAA@XZ
	??0ofxOscSender@@QEAA@XZ
	??1ofFbo@@UEAA@XZ
	??1ofFile@@UEAA@XZ
	??1ofLog@@UEAA@XZ
	??1ofNode@@UEAA@XZ
	??1ofRectangle@@UEAA@XZ
	??1ofTexture@@UEAA@XZ
	??1ofVbo@@QEAA@XZ
	??1ofVboMesh@@UEAA@XZ
	??1ofxOscBundle@@QEAA@XZ
	??1ofxOscMessage@@QEAA@XZ
	??4ofRectangle@@QEAAAEAV0@AEBV0@@Z
	??BofParameterGroup@@QEBA_NXZ
	?ofCircle@@YAXAEBVofVec3f@@M@Z
	?ofCircle@@YAXMMM@Z
	?ofClamp@@YAMMMM@Z
	?ofClear@@YAXMM@Z
	?ofClear@@YAXMMMM@Z
	?ofCreateWindow@@YA?AV?$shared_ptr@VofAppBaseWindow@@@std@@AEBVofWindowSettings@@@Z
	?ofDisableAlphaBlending@@YAXXZ
	?ofDisableBlendMode@@YAXXZ
	?ofDrawAxis@@YAXM@Z
	?ofDrawCircle@@YAXAEBVofVec3f@@M@Z
	?ofDrawCircle@@YAXMMM@Z
	?ofDrawGrid@@YAXM_K_N111@Z
	?ofDrawGridPlane@@YAXM_K_N@Z
	?ofDrawLine@@YAXAEBVofVec3f@@0@Z
	?ofDrawLine@@YAXMMMM@Z
	?ofDrawRectangle@@YAXAEBVofRectangle@@@Z
	?ofDrawRectangle@@YAXAEBVofVec3f@@MM@Z
	?ofDrawRectangle@@YAXMMMM@Z
	?ofDrawSphere@@YAXAEBVofVec3f@@M@Z
	?ofEnableAlphaBlending@@YAXXZ
	?ofEnableBlendMode@@YAXW4ofBlendMode@@@Z
	?ofEnableSmoothing@@YAXXZ
	?ofFill@@YAXXZ
	?ofGetCurrentWindow@@YA?AV?$shared_ptr@VofAppBaseWindow@@@std@@XZ
	?ofGetElapsedTimef@@YAMXZ
	?ofGetElapsedTimeMillis@@YA_KXZ
	?ofGetFrameNum@@YA_KXZ
	?ofGetFrameRate@@YAMXZ
	?ofGetKeyPressed@@YA_NH@Z
	?ofGetLastFrameTime@@YANXZ
	?ofGetScreenHeight@@YAHXZ
	?ofGetScreenWidth@@YAHXZ
	?ofGetStyle@@YA?AVofStyle@@XZ
	?ofGetViewportHeight@@YAHXZ
	?ofGetViewportWidth@@YAHXZ
	?ofLerp@@YAMMMM@Z
	?ofLine@@YAXAEBVofVec3f@@0@Z
	?ofLine@@YAXMMMM@Z
	?ofLoadIdentityMatrix@@YAXXZ
	?ofLoadImage@@YA_NAEAV?$ofPixels_@E@@AEBVofBuffer@@AEBUofImageLoadSettings@@@Z
	?ofLoadMatrix@@YAXAEBVofMatrix4x4@@@Z
	?ofMap@@YAMMMMMM_N@Z
	?ofMultMatrix@@YAXAEBVofMatrix4x4@@@Z
	?ofNoFill@@YAXXZ
	?ofPopMatrix@@YAXXZ
	?ofPopStyle@@YAXXZ
	?ofPopView@@YAXXZ
	?ofPushMatrix@@YAXXZ
	?ofPushStyle@@YAXXZ
	?ofPushView@@YAXXZ
	?ofRect@@YAXAEBVofRectangle@@@Z
	?ofRotate@@YAXMMMM@Z
	?ofRunApp@@YAHPEAVofBaseApp@@@Z
	?ofSaveImage@@YAXAEBV?$ofPixels_@E@@AEAVofBuffer@@W4ofImageFormat@@W4ofImageQualityType@@@Z
	?ofSaveImage@@YAXAEBV?$ofPixels_@E@@AEBV?$basic_string@DU?$char_traits@D@std@@V?$allocator@D@2@@std@@W4ofImageQualityType@@@Z
	?ofScale@@YAXAEBVofVec3f@@@Z
	?ofScale@@YAXMMM@Z
	?ofSetCircleResolution@@YAXH@Z
	?ofSetColor@@YAXAEBV?$ofColor_@E@@@Z
	?ofSetColor@@YAXAEBV?$ofColor_@E@@H@Z
	?ofSetColor@@YAXH@Z
	?ofSetColor@@YAXHHH@Z
	?ofSetColor@@YAXHHHH@Z
	?ofSetEscapeQuitsApp@@YAX_N@Z
	?ofSetLineWidth@@YAXM@Z
	?ofSetMatrixMode@@YAXW4ofMatrixMode@@@Z
	?ofSetupScreen@@YAXXZ
	?ofSleepMillis@@YAXH@Z
	?ofSphere@@YAXAEBVofVec3f@@M@Z
	?ofSplitString@@YA?AV?$vector@V?$basic_string@DU?$char_traits@D@std@@V?$allocator@D@2@@std@@V?$allocator@V?$basic_string@DU?$char_traits@D@std@@V?$allocator@D@2@@std@@@2@@std@@AEBV?$basic_string@DU?$char_traits@D@std@@V?$allocator@D@2@@2@0_N1@Z
	?ofStringReplace@@YAXAEAV?$basic_string@DU?$char_traits@D@std@@V?$allocator@D@2@@std@@AEBV12@1@Z
	?ofSystemAlertDialog@@YAXV?$basic_string@DU?$char_traits@D@std@@V?$allocator@D@2@@std@@@Z
	?ofSystemLoadDialog@@YA?AVofFileDialogResult@@V?$basic_string@DU?$char_traits@D@std@@V?$allocator@D@2@@std@@_N0@Z
	?ofSystemSaveDialog@@YA?AVofFileDialogResult@@V?$basic_string@DU?$char_traits@D@std@@V?$allocator@D@2@@std@@0@Z
	?ofSystemTextBoxDialog@@YA?AV?$basic_string@DU?$char_traits@D@std@@V?$allocator@D@2@@std@@V12@0@Z
	?ofToDataPath@@YA?AV?$basic_string@DU?$char_traits@D@std@@V?$allocator@D@2@@std@@AEBV12@_N@Z
	?ofToFloat@@YAMAEBV?$basic_string@DU?$char_traits@D@std@@V?$allocator@D@2@@std@@@Z
	?ofToInt@@YAHAEBV?$basic_string@DU?$char_traits@D@std@@V?$allocator@D@2@@std@@@Z
	?ofToLower@@YA?AV?$basic_string@DU?$char_traits@D@std@@V?$allocator@D@2@@std@@AEBV12@0@Z
	?ofTranslate@@YAXAEBVofVec3f@@@Z
	?ofTranslate@@YAXMMM@Z
	?ofViewport@@YAXVofRectangle@@@Z
	?fromHex@?$ofColor_@E@@SA?AV1@HM@Z
	?limit@?$ofColor_@E@@SAMXZ
	?setHue@?$ofColor_@E@@QEAAXM@Z
	?setHueAngle@?$ofColor_@E@@QEAAXM@Z
	?allocate@?$ofImage_@E@@QEAAXHHW4ofImageType@@@Z
	?bind@?$ofImage_@E@@QEBAXH@Z
	?clear@?$ofImage_@E@@QEAAXXZ
	?draw@?$ofImage_@E@@UEBAXMM@Z
	?getPixelsRef@?$ofImage_@E@@QEAAAEAV?$ofPixels_@E@@XZ
	?loadImage@?$ofImage_@E@@QEAA_NAEBV?$basic_string@DU?$char_traits@D@std@@V?$allocator@D@2@@std@@@Z
	?setFromPixels@?$ofImage_@E@@QEAAXAEBV?$ofPixels_@E@@@Z
	?unbind@?$ofImage_@E@@QEBAXH@Z
	?update@?$ofImage_@E@@QEAAXXZ
	?allocate@?$ofPixels_@E@@QEAAXHHH@Z
	?allocate@?$ofPixels_@E@@QEAAXHHW4ofImageType@@@Z
	?allocate@?$ofPixels_@E@@QEAAXHHW4ofPixelFormat@@@Z
	?getBytesPerChannel@?$ofPixels_@E@@QEBAHXZ
	?getData@?$ofPixels_@E@@QEAAPEAEXZ
	?getData@?$ofPixels_@E@@QEBAPEBEXZ
	?getHeight@?$ofPixels_@E@@QEBAHXZ
	?getImageType@?$ofPixels_@E@@QEBA?AW4ofImageType@@XZ
	?getNumChannels@?$ofPixels_@E@@QEBAHXZ
	?getPixelFormat@?$ofPixels_@E@@QEBA?AW4ofPixelFormat@@XZ
	?getPixels@?$ofPixels_@E@@QEAAPEAEXZ
	?getPixels@?$ofPixels_@E@@QEBAPEBEXZ
	?getWidth@?$ofPixels_@E@@QEBAHXZ
	?isAllocated@?$ofPixels_@E@@QEBA_NXZ
	?resize@?$ofPixels_@E@@QEAA_NHHW4ofInterpolationMethod@@@Z
	?rotate90@?$ofPixels_@E@@QEAAXH@Z
	?set@?$ofPixels_@E@@QEAAXE@Z
	?setColor@?$ofPixels_@E@@QEAAXAEBV?$ofColor_@E@@@Z
	?size@?$ofPixels_@E@@QEBAHXZ
	?swap@?$ofPixels_@E@@QEAAXAEAV1@@Z
	??0?$ofColor_@E@@QEAA@MM@Z
	??0?$ofColor_@E@@QEAA@MMMM@Z
	??0?$ofImage_@E@@QEAA@XZ
	??0?$ofPixels_@E@@QEAA@$$QEAV0@@Z
	??0?$ofPixels_@E@@QEAA@AEBV0@@Z
	??0?$ofPixels_@E@@QEAA@XZ
	??1?$ofImage_@E@@UEAA@XZ
	??1?$ofPixels_@E@@QEAA@XZ
	??4?$ofImage_@E@@QEAAAEAV0@AEAV?$ofPixels_@E@@@Z
	??4?$ofImage_@E@@QEAAAEAV0@AEBV0@@Z
	??4?$ofPixels_@E@@QEAAAEAV0@AEBV0@@Z
	??A?$ofColor_@E@@QEBAAEBE_K@Z
	?allocate@?$ofPixels_@G@@QEAAXHHW4ofImageType@@@Z
	?getData@?$ofPixels_@G@@QEAAPEAGXZ
	?getData@?$ofPixels_@G@@QEBAPEBGXZ
	?getHeight@?$ofPixels_@G@@QEBAHXZ
	?getPixels@?$ofPixels_@G@@QEAAPEAGXZ
	?getPixels@?$ofPixels_@G@@QEBAPEBGXZ
	?getWidth@?$ofPixels_@G@@QEBAHXZ
	?size@?$ofPixels_@G@@QEBAHXZ
	??0?$ofPixels_@G@@QEAA@XZ
	??1?$ofPixels_@G@@QEAA@XZ
	?allocate@?$ofPixels_@H@@QEAAXHHH@Z
	?clear@?$ofPixels_@H@@QEAAXXZ
	?getData@?$ofPixels_@H@@QEAAPEAHXZ
	?getHeight@?$ofPixels_@H@@QEBAHXZ
	?getWidth@?$ofPixels_@H@@QEBAHXZ
	?isAllocated@?$ofPixels_@H@@QEBA_NXZ
	?set@?$ofPixels_@H@@QEAAXHH@Z
	??0?$ofPixels_@H@@QEAA@XZ
	??1?$ofPixels_@H@@QEAA@XZ
	??0?$ofPixels_@I@@QEAA@AEBV0@@Z
	??0?$ofPixels_@I@@QEAA@XZ
	??1?$ofPixels_@I@@QEAA@XZ
	??4?$ofPixels_@I@@QEAAAEAV0@AEBV0@@Z
	??0StyledWriter@Json@@QEAA@XZ
	??0Value@Json@@QEAA@_J@Z
	??0Value@Json@@QEAA@_K@Z
	??0Value@Json@@QEAA@_N@Z
	??0Value@Json@@QEAA@AEBV?$basic_string@DU?$char_traits@D@std@@V?$allocator@D@2@@std@@@Z
	??0Value@Json@@QEAA@AEBV01@@Z
	??0Value@Json@@QEAA@H@Z
	??0Value@Json@@QEAA@I@Z
	??0Value@Json@@QEAA@N@Z
	??0Value@Json@@QEAA@W4ValueType@1@@Z
	??1Value@Json@@QEAA@XZ
	??1Writer@Json@@UEAA@XZ
	??4Value@Json@@QEAAAEAV01@AEBV01@@Z
	??AValue@Json@@QEAAAEAV01@AEBV?$basic_string@DU?$char_traits@D@std@@V?$allocator@D@2@@std@@@Z
	??AValue@Json@@QEAAAEAV01@H@Z
	??AValue@Json@@QEAAAEAV01@PEBD@Z
	??AValue@Json@@QEBAAEBV01@AEBV?$basic_string@DU?$char_traits@D@std@@V?$allocator@D@2@@std@@@Z
	??AValue@Json@@QEBAAEBV01@H@Z
	??AValue@Json@@QEBAAEBV01@PEBD@Z
	?write@StyledWriter@Json@@UEAA?AV?$basic_string@DU?$char_traits@D@std@@V?$allocator@D@2@@std@@AEBVValue@2@@Z
	?append@Value@Json@@QEAAAEAV12@AEBV12@@Z
	?asBool@Value@Json@@QEBA_NXZ
	?asDouble@Value@Json@@QEBANXZ
	?asFloat@Value@Json@@QEBAMXZ
	?asInt@Value@Json@@QEBAHXZ
	?asLargestUInt@Value@Json@@QEBA_KXZ
	?asString@Value@Json@@QEBA?AV?$basic_string@DU?$char_traits@D@std@@V?$allocator@D@2@@std@@XZ
	?begin@Value@Json@@QEBA?AVValueConstIterator@2@XZ
	?empty@Value@Json@@QEBA_NXZ
	?end@Value@Json@@QEBA?AVValueConstIterator@2@XZ
	?getMemberNames@Value@Json@@QEBA?AV?$vector@V?$basic_string@DU?$char_traits@D@std@@V?$allocator@D@2@@std@@V?$allocator@V?$basic_string@DU?$char_traits@D@std@@V?$allocator@D@2@@std@@@2@@std@@XZ
	?isNull@Value@Json@@QEBA_NXZ
	?size@Value@Json@@QEBAIXZ
	?deref@ValueIteratorBase@Json@@IEBAAEAVValue@2@XZ
	?increment@ValueIteratorBase@Json@@IEAAXXZ
	?isEqual@ValueIteratorBase@Json@@IEBA_NAEBV12@@Z
	?limit@?$ofColor_@M@@SAMXZ
	?allocate@?$ofPixels_@M@@QEAAXHHW4ofImageType@@@Z
	?allocate@?$ofPixels_@M@@QEAAXHHW4ofPixelFormat@@@Z
	?getData@?$ofPixels_@M@@QEAAPEAMXZ
	?getPixels@?$ofPixels_@M@@QEAAPEAMXZ
	?getWidth@?$ofPixels_@M@@QEBAHXZ
	?set@?$ofPixels_@M@@QEAAXM@Z
	?setFromPixels@?$ofPixels_@M@@QEAAXPEBMHHH@Z
	?size@?$ofPixels_@M@@QEBAHXZ
	??0?$ofColor_@M@@QEAA@MMMM@Z
	??0?$ofPixels_@M@@QEAA@XZ
	??1?$ofPixels_@M@@QEAA@XZ
	??X?$ofColor_@M@@QEAAAEAV0@AEBM@Z
	??1BaseFunctionId@priv@of@@UEAA@XZ
	?escape@ofAbstractParameter@@MEBA?AV?$basic_string@DU?$char_traits@D@std@@V?$allocator@D@2@@std@@AEBV23@@Z
	?getEscapedName@ofAbstractParameter@@UEBA?AV?$basic_string@DU?$char_traits@D@std@@V?$allocator@D@2@@std@@XZ
	?isReferenceTo@ofAbstractParameter@@UEBA_NAEBV1@@Z
	?type@ofAbstractParameter@@UEBA?AV?$basic_string@DU?$char_traits@D@std@@V?$allocator@D@2@@std@@XZ
	?audioIn@ofBaseSoundInput@@UEAAXAEAVofSoundBuffer@@@Z
	?audioIn@ofBaseSoundInput@@UEAAXPEAMHH@Z
	?audioIn@ofBaseSoundInput@@UEAAXPEAMHHH_K@Z
	?audioOut@ofBaseSoundOutput@@UEAAXAEAVofSoundBuffer@@@Z
	?audioOut@ofBaseSoundOutput@@UEAAXPEAMHH@Z
	?audioOut@ofBaseSoundOutput@@UEAAXPEAMHHH_K@Z
	?getBinaryBuffer@ofBuffer@@QEAAPEADXZ
	?getBinaryBuffer@ofBuffer@@QEBAPEBDXZ
	?getText@ofBuffer@@QEBA?AV?$basic_string@DU?$char_traits@D@std@@V?$allocator@D@2@@std@@XZ
	?set@ofBuffer@@QEAAXPEBD_K@Z
	?size@ofBuffer@@QEBA_KXZ
	?createDirectory@ofDirectory@@SA_NAEBV?$basic_string@DU?$char_traits@D@std@@V?$allocator@D@2@@std@@_N1@Z
	??0Settings@ofFbo@@QEAA@V?$shared_ptr@VofBaseGLRenderer@@@std@@@Z
	?allocate@ofFbo@@QEAAXHHHH@Z
	?allocate@ofFbo@@QEAAXUSettings@1@@Z
	?begin@ofFbo@@QEBAX_N@Z
	?end@ofFbo@@QEBAXXZ
	?readToPixels@ofFbo@@QEBAXAEAV?$ofPixels_@E@@H@Z
	?doesFileExist@ofFile@@SA_NAEBV?$basic_string@DU?$char_traits@D@std@@V?$allocator@D@2@@std@@_N@Z
	?exists@ofFile@@QEBA_NXZ
	?open@ofFile@@QEAA_NAEBVpath@filesystem@boost@@W4Mode@1@_N@Z
	?removeExt@ofFilePath@@SA?AV?$basic_string@DU?$char_traits@D@std@@V?$allocator@D@2@@std@@AEBV23@@Z
	?defaultSetting@ofImageLoadSettings@@2U1@A
	?getPadding@ofLog@@CAAEAV?$basic_string@DU?$char_traits@D@std@@V?$allocator@D@2@@std@@XZ
	?getInverse@ofMatrix4x4@@QEBA?AV1@XZ
	?makeFromMultiplicationOf@ofMatrix4x4@@QEAAXAEBV1@0@Z
	?makeIdentityMatrix@ofMatrix4x4@@QEAAXXZ
	?makeRotationMatrix@ofMatrix4x4@@QEAAXMMMM@Z
	?makeScaleMatrix@ofMatrix4x4@@QEAAXMMM@Z
	?makeTranslationMatrix@ofMatrix4x4@@QEAAXMMM@Z
	?postMult@ofMatrix4x4@@QEAAXAEBV1@@Z
	?addColor@ofMesh@@QEAAXAEBV?$ofColor_@M@@@Z
	?addIndices@ofMesh@@QEAAXPEBI_K@Z
	?addTexCoords@ofMesh@@QEAAXAEBV?$vector@VofVec2f@@V?$allocator@VofVec2f@@@std@@@std@@@Z
	?addVertex@ofMesh@@QEAAXAEBVofVec3f@@@Z
	?addVertices@ofMesh@@QEAAXAEBV?$vector@VofVec3f@@V?$allocator@VofVec3f@@@std@@@std@@@Z
	?addVertices@ofMesh@@QEAAXPEBVofVec3f@@_K@Z
	?clear@ofMesh@@QEAAXXZ
	?clearVertices@ofMesh@@QEAAXXZ
	?disableColors@ofMesh@@UEAAXXZ
	?disableIndices@ofMesh@@UEAAXXZ
	?disableNormals@ofMesh@@UEAAXXZ
	?disableTextures@ofMesh@@UEAAXXZ
	?draw@ofMesh@@QEBAXXZ
	?draw@ofMesh@@UEBAXW4ofPolyRenderMode@@@Z
	?drawFaces@ofMesh@@QEBAXXZ
	?drawVertices@ofMesh@@QEBAXXZ
	?drawWireframe@ofMesh@@QEBAXXZ
	?enableColors@ofMesh@@UEAAXXZ
	?enableIndices@ofMesh@@UEAAXXZ
	?enableNormals@ofMesh@@UEAAXXZ
	?enableTextures@ofMesh@@UEAAXXZ
	?getColors@ofMesh@@QEAAAEAV?$vector@V?$ofColor_@M@@V?$allocator@V?$ofColor_@M@@@std@@@std@@XZ
	?getIndexPointer@ofMesh@@QEAAPEAIXZ
	?getNumIndices@ofMesh@@QEBA_KXZ
	?getNumTexCoords@ofMesh@@QEBA_KXZ
	?getNumVertices@ofMesh@@QEBA_KXZ
	?getTexCoords@ofMesh@@QEAAAEAV?$vector@VofVec2f@@V?$allocator@VofVec2f@@@std@@@std@@XZ
	?getTexCoordsPointer@ofMesh@@QEAAPEAVofVec2f@@XZ
	?getVertex@ofMesh@@QEBA?AVofVec3f@@I@Z
	?getVertices@ofMesh@@QEAAAEAV?$vector@VofVec3f@@V?$allocator@VofVec3f@@@std@@@std@@XZ
	?getVerticesPointer@ofMesh@@QEAAPEAVofVec3f@@XZ
	?setMode@ofMesh@@QEAAXW4ofPrimitiveMode@@@Z
	?usingColors@ofMesh@@UEBA_NXZ
	?usingIndices@ofMesh@@UEBA_NXZ
	?usingNormals@ofMesh@@UEBA_NXZ
	?usingTextures@ofMesh@@UEBA_NXZ
	?boom@ofNode@@QEAAXM@Z
	?getGlobalTransformMatrix@ofNode@@QEBA?AVofMatrix4x4@@XZ
	?lookAt@ofNode@@QEAAXAEBVofVec3f@@@Z
	?lookAt@ofNode@@QEAAXAEBVofVec3f@@V2@@Z
	?setPosition@ofNode@@QEAAXAEBVofVec3f@@@Z
	?add@ofParameterGroup@@QEAAXAEAVofAbstractParameter@@@Z
	?clear@ofParameterGroup@@QEAAXXZ
	?fromString@ofParameterGroup@@UEAAXAEBV?$basic_string@DU?$char_traits@D@std@@V?$allocator@D@2@@std@@@Z
	?getEscapedName@ofParameterGroup@@UEBA?AV?$basic_string@DU?$char_traits@D@std@@V?$allocator@D@2@@std@@XZ
	?getFirstParent@ofParameterGroup@@EEBA?BV1@XZ
	?getInternalObject@ofParameterGroup@@MEBAPEBXXZ
	?getName@ofParameterGroup@@UEBA?AV?$basic_string@DU?$char_traits@D@std@@V?$allocator@D@2@@std@@XZ
	?isReadOnly@ofParameterGroup@@UEBA_NXZ
	?isSerializable@ofParameterGroup@@UEBA_NXZ
	?newReference@ofParameterGroup@@UEBA?AV?$shared_ptr@VofAbstractParameter@@@std@@XZ
	?setName@ofParameterGroup@@UEAAXAEBV?$basic_string@DU?$char_traits@D@std@@V?$allocator@D@2@@std@@@Z
	?setParent@ofParameterGroup@@UEAAXAEAV1@@Z
	?setSerializable@ofParameterGroup@@UEAAX_N@Z
	?toString@ofParameterGroup@@UEBA?AV?$basic_string@DU?$char_traits@D@std@@V?$allocator@D@2@@std@@XZ
	?notifyParameterChanged@Value@ofParameterGroup@@QEAAXAEAVofAbstractParameter@@@Z
	?close@ofPath@@QEAAXXZ
	?draw@ofPath@@QEBAXXZ
	?lineTo@ofPath@@QEAAXMM@Z
	?addVertex@ofPolyline@@QEAAXAEBVofVec3f@@@Z
	?addVertex@ofPolyline@@QEAAXMMM@Z
	?close@ofPolyline@@QEAAXXZ
	?draw@ofPolyline@@QEBAXXZ
	?getVertices@ofPolyline@@QEBAAEBV?$vector@VofVec3f@@V?$allocator@VofVec3f@@@std@@@std@@XZ
	?set@ofQuaternion@@QEAAXAEBVofMatrix4x4@@@Z
	?getBottomLeft@ofRectangle@@QEBA?AVofVec3f@@XZ
	?getBottomRight@ofRectangle@@QEBA?AVofVec3f@@XZ
	?getCenter@ofRectangle@@QEBA?AVofVec3f@@XZ
	?getHeight@ofRectangle@@QEBAMXZ
	?getTopLeft@ofRectangle@@QEBA?AVofVec3f@@XZ
	?getTopRight@ofRectangle@@QEBA?AVofVec3f@@XZ
	?getWidth@ofRectangle@@QEBAMXZ
	?inside@ofRectangle@@QEBA_NAEBVofVec3f@@@Z
	?setFromCenter@ofRectangle@@QEAAXAEBVofVec3f@@MM@Z
	?close@ofSerial@@QEAAXXZ
	?isInitialized@ofSerial@@QEBA_NXZ
	?setup@ofSerial@@QEAA_NV?$basic_string@DU?$char_traits@D@std@@V?$allocator@D@2@@std@@H@Z
	?writeBytes@ofSerial@@QEAAJPEBE_K@Z
	?bind@ofTexture@@QEBAXH@Z
	?clear@ofTexture@@QEAAXXZ
	?isAllocated@ofTexture@@QEBA_NXZ
	?loadData@ofTexture@@QEAAXAEBV?$ofPixels_@E@@@Z
	?loadData@ofTexture@@QEAAXAEBV?$ofPixels_@G@@@Z
	?setTextureMinMagFilter@ofTexture@@QEAAXHH@Z
	?unbind@ofTexture@@QEBAXH@Z
	?drawString@ofTrueTypeFont@@QEBAXAEBV?$basic_string@DU?$char_traits@D@std@@V?$allocator@D@2@@std@@MM@Z
	?getStringBoundingBox@ofTrueTypeFont@@QEBA?AVofRectangle@@AEBV?$basic_string@DU?$char_traits@D@std@@V?$allocator@D@2@@std@@MM_N@Z
	?clear@ofVbo@@QEAAXXZ
	?draw@ofVbo@@QEBAXHHH@Z
	?setColorData@ofVbo@@QEAAXPEBV?$ofColor_@M@@HH@Z
	?setIndexData@ofVbo@@QEAAXPEBIHH@Z
	?setVertexData@ofVbo@@QEAAXPEBVofVec2f@@HH@Z
	?setVertexData@ofVbo@@QEAAXPEBVofVec3f@@HH@Z
	?disableColors@ofVboMesh@@UEAAXXZ
	?disableIndices@ofVboMesh@@UEAAXXZ
	?disableNormals@ofVboMesh@@UEAAXXZ
	?disableTextures@ofVboMesh@@UEAAXXZ
	?draw@ofVboMesh@@UEBAXW4ofPolyRenderMode@@@Z
	?enableColors@ofVboMesh@@UEAAXXZ
	?enableIndices@ofVboMesh@@UEAAXXZ
	?enableNormals@ofVboMesh@@UEAAXXZ
	?enableTextures@ofVboMesh@@UEAAXXZ
	?usingColors@ofVboMesh@@UEBA_NXZ
	?usingIndices@ofVboMesh@@UEBA_NXZ
	?usingNormals@ofVboMesh@@UEBA_NXZ
	?usingTextures@ofVboMesh@@UEBA_NXZ
	?load@ObjLoader@ofx@@YAXV?$basic_string@DU?$char_traits@D@std@@V?$allocator@D@2@@std@@AEAVofMesh@@_N2@Z
	??0Register@ofxAssets@@QEAA@XZ
	?font@ofxAssets@@YAAEAVofTrueTypeFont@@AEBV?$basic_string@DU?$char_traits@D@std@@V?$allocator@D@2@@std@@H@Z
	?image@ofxAssets@@YAAEAV?$ofImage_@E@@AEBV?$basic_string@DU?$char_traits@D@std@@V?$allocator@D@2@@std@@@Z
	?addAddon@Register@ofxAssets@@QEAAXV?$basic_string@DU?$char_traits@D@std@@V?$allocator@D@2@@std@@@Z
	?getShaderPointer@Register@ofxAssets@@QEAA?AV?$shared_ptr@VShader@ofxAssets@@@std@@V?$basic_string@DU?$char_traits@D@std@@V?$allocator@D@2@@4@@Z
	?getSingletonStore@?$Singleton@VRegister@ofxAssets@@@ofxSingleton@@SAAEAVSingletonStore@12@XZ
	?calibrateProjector@ofxCv@@YAMAEAVMat@cv@@00V?$vector@VofVec3f@@V?$allocator@VofVec3f@@@std@@@std@@V?$vector@VofVec2f@@V?$allocator@VofVec2f@@@std@@@5@HH_NMM3H@Z
	?decomposeMatrix@ofxCv@@YAXAEBVofMatrix4x4@@AEAVMat@cv@@1@Z
	?findChessboardCornersPreTest@ofxCv@@YA_NVMat@cv@@V?$Size_@H@3@AEAV?$vector@V?$Point_@M@cv@@V?$allocator@V?$Point_@M@cv@@@std@@@std@@H@Z
	?getMaxVal@ofxCv@@YAMAEBVMat@cv@@@Z
	?makeCheckerboardMesh@ofxCv@@YA?AVofMesh@@V?$Size_@H@cv@@M_N@Z
	?makeCheckerboardPoints@ofxCv@@YA?AV?$vector@V?$Point3_@M@cv@@V?$allocator@V?$Point3_@M@cv@@@std@@@std@@V?$Size_@H@cv@@M_N@Z
	?makeMatrix@ofxCv@@YA?AVofMatrix4x4@@VMat@cv@@0@Z
	?toCv@ofxCv@@YA?AVMat@cv@@AEAV23@@Z
	?toCv@ofxCv@@YAAEAV?$Point_@M@cv@@AEAVofVec2f@@@Z
	?toCv@ofxCv@@YAAEAV?$Point3_@M@cv@@AEAVofVec3f@@@Z
	?toCv@ofxCv@@YAAEAV?$vector@V?$Point_@M@cv@@V?$allocator@V?$Point_@M@cv@@@std@@@std@@AEAV?$vector@VofVec2f@@V?$allocator@VofVec2f@@@std@@@3@@Z
	?toCv@ofxCv@@YAAEAV?$vector@V?$Point3_@M@cv@@V?$allocator@V?$Point3_@M@cv@@@std@@@std@@AEAV?$vector@VofVec3f@@V?$allocator@VofVec3f@@@std@@@3@@Z
	?toCv@ofxCv@@YAAEBV?$Point_@M@cv@@AEBVofVec2f@@@Z
	?toCv@ofxCv@@YAAEBV?$Point3_@M@cv@@AEBVofVec3f@@@Z
	?toOf@ofxCv@@YA?AVofRectangle@@V?$Rect_@H@cv@@@Z
	?toOf@ofxCv@@YAAEAV?$vector@VofVec2f@@V?$allocator@VofVec2f@@@std@@@std@@AEAV?$vector@V?$Point_@M@cv@@V?$allocator@V?$Point_@M@cv@@@std@@@3@@Z
	?toOf@ofxCv@@YAAEAV?$vector@VofVec3f@@V?$allocator@VofVec3f@@@std@@@std@@AEAV?$vector@V?$Point3_@M@cv@@V?$allocator@V?$Point3_@M@cv@@@std@@@3@@Z
	?toOf@ofxCv@@YAAEAVofVec2f@@AEAV?$Point_@M@cv@@@Z
	?toOf@ofxCv@@YAAEAVofVec3f@@AEAV?$Point3_@M@cv@@@Z
	?toOf@ofxCv@@YAAEBV?$vector@VofVec3f@@V?$allocator@VofVec3f@@@std@@@std@@AEBV?$vector@V?$Point3_@M@cv@@V?$allocator@V?$Point3_@M@cv@@@std@@@3@@Z
	?toOf@ofxCv@@YAAEBVofVec2f@@AEBV?$Point_@M@cv@@@Z
	?toOf@ofxCv@@YAAEBVofVec3f@@AEBV?$Point3_@M@cv@@@Z
	?undistortPoint@ofxCv@@YA?AVofVec2f@@AEBV2@VMat@cv@@1@Z
	??0Controller@ofxCvGui@@QEAA@XZ
	??0Element@ofxCvGui@@QEAA@XZ
	?getDefaultTypeface@ofxCvGui@@YA?AV?$basic_string@DU?$char_traits@D@std@@V?$allocator@D@2@@std@@XZ
	?makeElement@ofxCvGui@@YA?AV?$shared_ptr@VElement@ofxCvGui@@@std@@XZ
	?makeElementGroup@ofxCvGui@@YA?AV?$shared_ptr@VElementGroup@ofxCvGui@@@std@@XZ
	?init@Builder@ofxCvGui@@QEAAXXZ
	?addChild@Element@ofxCvGui@@QEAAXV?$shared_ptr@VElement@ofxCvGui@@@std@@@Z
	?addListenersToParent@Element@ofxCvGui@@QEAAXPEAV12@_N@Z
	?arrange@Element@ofxCvGui@@QEAAXXZ
	?getBounds@Element@ofxCvGui@@QEBAAEBVofRectangle@@XZ
	?getCaption@Element@ofxCvGui@@QEBAAEBV?$basic_string@DU?$char_traits@D@std@@V?$allocator@D@2@@std@@XZ
	?getHeight@Element@ofxCvGui@@QEBAMXZ
	?getWidth@Element@ofxCvGui@@QEBAMXZ
	?setBounds@Element@ofxCvGui@@QEAAXAEBVofRectangle@@@Z
	?setCaption@Element@ofxCvGui@@QEAAXV?$basic_string@DU?$char_traits@D@std@@V?$allocator@D@2@@std@@@Z
	?setEnabled@Element@ofxCvGui@@QEAAX_N@Z
	?setHeight@Element@ofxCvGui@@QEAAXM@Z
	?setScissorEnabled@Element@ofxCvGui@@QEAAX_N@Z
	?isBeingInspected@IInspectable@ofxCvGui@@QEBA_NXZ
	?isLocal@MouseArguments@ofxCvGui@@QEBA_NXZ
	?takeMousePress@MouseArguments@ofxCvGui@@QEAA_NV?$shared_ptr@VElement@ofxCvGui@@@std@@@Z
	??0Base@Panels@ofxCvGui@@QEAA@XZ
	??0Draws@Panels@ofxCvGui@@QEAA@AEAVofBaseDraws@@@Z
	??0Draws@Panels@ofxCvGui@@QEAA@XZ
	??0Image@Panels@ofxCvGui@@QEAA@AEAVofAbstractImage@@@Z
	??0Scroll@Panels@ofxCvGui@@QEAA@XZ
	??0Texture@Panels@ofxCvGui@@QEAA@AEBVofTexture@@@Z
	??0World@Panels@ofxCvGui@@QEAA@XZ
	?makeBaseDraws@Panels@ofxCvGui@@YA?AV?$shared_ptr@VDraws@Panels@ofxCvGui@@@std@@AEAVofBaseDraws@@V?$basic_string@DU?$char_traits@D@std@@V?$allocator@D@2@@4@@Z
	?makeBlank@Panels@ofxCvGui@@YA?AV?$shared_ptr@VBase@Panels@ofxCvGui@@@std@@V?$basic_string@DU?$char_traits@D@std@@V?$allocator@D@2@@4@@Z
	?makeImage@Panels@ofxCvGui@@YA?AV?$shared_ptr@VImage@Panels@ofxCvGui@@@std@@AEAV?$ofImage_@E@@V?$basic_string@DU?$char_traits@D@std@@V?$allocator@D@2@@4@@Z
	?makeTexture@Panels@ofxCvGui@@YA?AV?$shared_ptr@VTexture@Panels@ofxCvGui@@@std@@AEBVofTexture@@V?$basic_string@DU?$char_traits@D@std@@V?$allocator@D@2@@4@@Z
	?makeWidgets@Panels@ofxCvGui@@YA?AV?$shared_ptr@VWidgets@Panels@ofxCvGui@@@std@@V?$basic_string@DU?$char_traits@D@std@@V?$allocator@D@2@@4@@Z
	?makeWorld@Panels@ofxCvGui@@YA?AV?$shared_ptr@VWorld@Panels@ofxCvGui@@@std@@V?$basic_string@DU?$char_traits@D@std@@V?$allocator@D@2@@4@@Z
	?getPanelToImageTransform@BaseImage@Panels@ofxCvGui@@QEBA?AVofMatrix4x4@@XZ
	?getZoomFactor@BaseImage@Panels@ofxCvGui@@QEBAMXZ
	?clearDrawObject@Draws@Panels@ofxCvGui@@QEAAXXZ
	?setDrawObject@Draws@Panels@ofxCvGui@@QEAAXAEAVofBaseDraws@@@Z
	??0Grid@Groups@Panels@ofxCvGui@@QEAA@XZ
	??0Strip@Groups@Panels@ofxCvGui@@QEAA@W4Direction@0123@@Z
	?makeGrid@Groups@Panels@ofxCvGui@@YA?AV?$shared_ptr@VGrid@Groups@Panels@ofxCvGui@@@std@@XZ
	?makeStrip@Groups@Panels@ofxCvGui@@YA?AV?$shared_ptr@VStrip@Groups@Panels@ofxCvGui@@@std@@W4Direction@Strip@123@@Z
	?add@Scroll@Panels@ofxCvGui@@QEAAXV?$shared_ptr@VElement@ofxCvGui@@@std@@@Z
	?clear@Scroll@Panels@ofxCvGui@@QEAAXXZ
	?getElementGroup@Scroll@Panels@ofxCvGui@@QEAA?AV?$shared_ptr@VElementGroup@ofxCvGui@@@std@@XZ
	?add@?$ElementGroup_@VBase@Panels@ofxCvGui@@@ofxCvGui@@QEAAXV?$shared_ptr@VBase@Panels@ofxCvGui@@@std@@@Z
	?clear@?$ElementGroup_@VBase@Panels@ofxCvGui@@@ofxCvGui@@QEAAXXZ
	?getInstance@?$UnmanagedSingleton@VWidgetsBuilder@Panels@ofxCvGui@@@ofxSingleton@@SA?AV?$shared_ptr@VWidgetsBuilder@Panels@ofxCvGui@@@std@@XZ
	?addButton@Widgets@Panels@ofxCvGui@@QEAA?AV?$shared_ptr@VButton@Widgets@ofxCvGui@@@std@@AEBV?$basic_string@DU?$char_traits@D@std@@V?$allocator@D@2@@5@AEBV?$function@$$A6AXXZ@5@D@Z
	?addIndicatorBool@Widgets@Panels@ofxCvGui@@QEAA?AV?$shared_ptr@VIndicator@Widgets@ofxCvGui@@@std@@AEBV?$basic_string@DU?$char_traits@D@std@@V?$allocator@D@2@@5@AEBV?$function@$$A6A_NXZ@5@@Z
	?addLiveValueHistory@Widgets@Panels@ofxCvGui@@QEAA?AV?$shared_ptr@VLiveValueHistory@Widgets@ofxCvGui@@@std@@AEBV?$basic_string@DU?$char_traits@D@std@@V?$allocator@D@2@@5@AEBV?$function@$$A6AMXZ@5@@Z
	?addParameterGroup@Widgets@Panels@ofxCvGui@@QEAAXAEAVofParameterGroup@@H@Z
	?addSlider@Widgets@Panels@ofxCvGui@@QEAA?AV?$shared_ptr@VSlider@Widgets@ofxCvGui@@@std@@AEAV?$ofParameter@M@@@Z
	?addSpacer@Widgets@Panels@ofxCvGui@@QEAA?AV?$shared_ptr@VSpacer@Widgets@ofxCvGui@@@std@@_N@Z
	?addTitle@Widgets@Panels@ofxCvGui@@QEAA?AV?$shared_ptr@VTitle@Widgets@ofxCvGui@@@std@@AEBV?$basic_string@DU?$char_traits@D@std@@V?$allocator@D@2@@5@W4Level@Title@13@@Z
	?addToggle@Widgets@Panels@ofxCvGui@@QEAA?AV?$shared_ptr@VToggle@Widgets@ofxCvGui@@@std@@AEAV?$ofParameter@_N@@@Z
	?getCamera@World@Panels@ofxCvGui@@QEAAAEAVofxGrabCam@@XZ
	?setGridEnabled@World@Panels@ofxCvGui@@QEAAX_N@Z
	??0ScissorManager@Utils@ofxCvGui@@QEAA@XZ
	?drawProcessingNotice@Utils@ofxCvGui@@YAXV?$basic_string@DU?$char_traits@D@std@@V?$allocator@D@2@@std@@@Z
	?drawText@Utils@ofxCvGui@@YA?AVofRectangle@@AEBV?$basic_string@DU?$char_traits@D@std@@V?$allocator@D@2@@std@@MM_NMM1@Z
	?drawToolTip@Utils@ofxCvGui@@YAXAEBV?$basic_string@DU?$char_traits@D@std@@V?$allocator@D@2@@std@@AEBVofVec2f@@@Z
	?getBeatingSelectionColor@Utils@ofxCvGui@@YA?AV?$ofColor_@E@@XZ
	?getScissorEnabled@ScissorManager@Utils@ofxCvGui@@QEBA_NXZ
	?setScissorEnabled@ScissorManager@Utils@ofxCvGui@@QEAAX_N@Z
	?getSingletonStore@?$Singleton@VScissorManager@Utils@ofxCvGui@@@ofxSingleton@@SAAEAVSingletonStore@12@XZ
	?getSingletonStore@?$Singleton@VController@ofxCvGui@@@ofxSingleton@@SAAEAVSingletonStore@12@XZ
	?add@?$ElementGroup_@VElement@ofxCvGui@@@ofxCvGui@@QEAAXV?$shared_ptr@VElement@ofxCvGui@@@std@@@Z
	?clear@?$ElementGroup_@VElement@ofxCvGui@@@ofxCvGui@@QEAAXXZ
	?getElements@?$ElementGroup_@VElement@ofxCvGui@@@ofxCvGui@@QEAAAEAV?$vector@V?$shared_ptr@VElement@ofxCvGui@@@std@@V?$allocator@V?$shared_ptr@VElement@ofxCvGui@@@std@@@2@@std@@XZ
	??0?$ElementGroup_@VElement@ofxCvGui@@@ofxCvGui@@QEAA@XZ
	??1?$ElementGroup_@VElement@ofxCvGui@@@ofxCvGui@@UEAA@XZ
	??0Button@Widgets@ofxCvGui@@QEAA@V?$basic_string@DU?$char_traits@D@std@@V?$allocator@D@2@@std@@V?$function@$$A6AXXZ@4@D@Z
	??0MultipleChoice@Widgets@ofxCvGui@@QEAA@AEBV?$basic_string@DU?$char_traits@D@std@@V?$allocator@D@2@@std@@@Z
	??0Slider@Widgets@ofxCvGui@@QEAA@AEAV?$ofParameter@M@@@Z
	??0Spacer@Widgets@ofxCvGui@@QEAA@XZ
	??0Title@Widgets@ofxCvGui@@QEAA@V?$basic_string@DU?$char_traits@D@std@@V?$allocator@D@2@@std@@W4Level@012@@Z
	??0Toggle@Widgets@ofxCvGui@@QEAA@AEAV?$ofParameter@_N@@D@Z
	?addOption@MultipleChoice@Widgets@ofxCvGui@@QEAAXV?$basic_string@DU?$char_traits@D@std@@V?$allocator@D@2@@std@@@Z
	?addOptions@MultipleChoice@Widgets@ofxCvGui@@QEAAXV?$initializer_list@V?$basic_string@DU?$char_traits@D@std@@V?$allocator@D@2@@std@@@std@@@Z
	?getSelectionIndex@MultipleChoice@Widgets@ofxCvGui@@QEBAHXZ
	?setSelection@MultipleChoice@Widgets@ofxCvGui@@QEAAXH@Z
	?addIntValidator@Slider@Widgets@ofxCvGui@@QEAAXXZ
	?setHotKey@Toggle@Widgets@ofxCvGui@@QEAAXD@Z
	?toGLM@ofxGLM@@YAAEAU?$tmat4x4@M@detail@glm@@AEAVofMatrix4x4@@@Z
	?toOf@ofxGLM@@YAAEBVofMatrix4x4@@AEBU?$tmat4x4@M@detail@glm@@@Z
	??0BaseCodec@ofxGraycode@@QEAA@XZ
	??0DataSet@ofxGraycode@@QEAA@XZ
	??0Payload@ofxGraycode@@QEAA@XZ
	??5Encoder@ofxGraycode@@QEAA_NAEAV?$ofImage_@E@@@Z
	??6Decoder@ofxGraycode@@QEAAXAEBV?$ofPixels_@E@@@Z
	?getPayload@BaseCodec@ofxGraycode@@QEBAAEBVPayload@2@XZ
	?init@BaseCodec@ofxGraycode@@QEAAXAEAVPayload@2@@Z
	??9const_iterator@DataSet@ofxGraycode@@QEBA_NAEBU012@@Z
	??Dconst_iterator@DataSet@ofxGraycode@@QEBA?AUreference@012@XZ
	??Econst_iterator@DataSet@ofxGraycode@@QEAAXXZ
	?begin@DataSet@ofxGraycode@@QEBA?AUconst_iterator@12@XZ
	?end@DataSet@ofxGraycode@@QEBA?AUconst_iterator@12@XZ
	?getActive@DataSet@ofxGraycode@@QEBAAEBV?$ofPixels_@E@@XZ
	?getPayloadHeight@DataSet@ofxGraycode@@QEBAIXZ
	?getPayloadSize@DataSet@ofxGraycode@@QEBAIXZ
	?getPayloadWidth@DataSet@ofxGraycode@@QEBAIXZ
	?load@DataSet@ofxGraycode@@QEAAXV?$basic_string@DU?$char_traits@D@std@@V?$allocator@D@2@@std@@@Z
	?save@DataSet@ofxGraycode@@QEAAXV?$basic_string@DU?$char_traits@D@std@@V?$allocator@D@2@@std@@@Z
	?getCameraXY@reference@const_iterator@DataSet@ofxGraycode@@QEBA?AVofVec2f@@XZ
	?getProjectorXY@reference@const_iterator@DataSet@ofxGraycode@@QEBA?AVofVec2f@@XZ
	?clear@Decoder@ofxGraycode@@QEAAXXZ
	?draw@Decoder@ofxGraycode@@UEBAXMM@Z
	?draw@Decoder@ofxGraycode@@UEBAXMMMM@Z
	?getDataSet@Decoder@ofxGraycode@@QEBAAEBVDataSet@2@XZ
	?getHeight@Decoder@ofxGraycode@@UEBAMXZ
	?getWidth@Decoder@ofxGraycode@@UEBAMXZ
	?hasData@Decoder@ofxGraycode@@QEBA_NXZ
	?saveDataSet@Decoder@ofxGraycode@@QEAAXV?$basic_string@DU?$char_traits@D@std@@V?$allocator@D@2@@std@@@Z
	?savePreviews@Decoder@ofxGraycode@@QEAAXXZ
	?setThreshold@Decoder@ofxGraycode@@QEAAXE@Z
	?reset@Encoder@ofxGraycode@@UEAAXXZ
	?getHeight@Payload@ofxGraycode@@QEBAIXZ
	?getWidth@Payload@ofxGraycode@@QEBAIXZ
	?init@Payload@ofxGraycode@@QEAAXII@Z
	?calc@PayloadGraycode@ofxGraycode@@UEBAXAEBV?$vector@V?$ofPixels_@E@@V?$allocator@V?$ofPixels_@E@@@std@@@std@@AEAVDataSet@2@@Z
	?fillPixels@PayloadGraycode@ofxGraycode@@UEBAXIAEAV?$ofPixels_@E@@@Z
	?getImageType@PayloadGraycode@ofxGraycode@@UEBA?AW4ofImageType@@XZ
	?render@PayloadGraycode@ofxGraycode@@MEAAXXZ
	??0Specification@ofxMachineVision@@QEAA@AEBV01@@Z
	??0Specification@ofxMachineVision@@QEAA@W4CaptureSequenceType@1@HHV?$basic_string@DU?$char_traits@D@std@@V?$allocator@D@2@@std@@11@Z
	??0Specification@ofxMachineVision@@QEAA@XZ
	??0FactoryRegister@Device@ofxMachineVision@@QEAA@XZ
	?getSingletonStore@?$Singleton@VFactoryRegister@Device@ofxMachineVision@@@ofxSingleton@@SAAEAVSingletonStore@12@XZ
	?getAvailableAllocatedFrame@FramePool@ofxMachineVision@@QEAA?AV?$shared_ptr@VFrame@ofxMachineVision@@@std@@HHW4ofPixelFormat@@@Z
	?getAvailableFrameFilledWith@FramePool@ofxMachineVision@@QEAA?AV?$shared_ptr@VFrame@ofxMachineVision@@@std@@AEBV?$ofPixels_@E@@@Z
	?getAvailableFrameFilledWith@FramePool@ofxMachineVision@@QEAA?AV?$shared_ptr@VFrame@ofxMachineVision@@@std@@PEBE_K1W4ofPixelFormat@@@Z
	?getFrame@Simple@Grabber@ofxMachineVision@@QEBA?AV?$shared_ptr@VFrame@ofxMachineVision@@@std@@XZ
	?getFreshFrame@Simple@Grabber@ofxMachineVision@@QEAA?AV?$shared_ptr@VFrame@ofxMachineVision@@@std@@V?$duration@_JU?$ratio@$00$0PECEA@@std@@@chrono@5@@Z
	?getInstance@?$UnmanagedSingleton@VFramePool@ofxMachineVision@@@ofxSingleton@@SA?AV?$shared_ptr@VFramePool@ofxMachineVision@@@std@@XZ
	??0Algorithm@ofxNonLinearFit@@QEAA@W4algorithm@nlopt@@W4Domain@01@@Z
	?getCPPType@Algorithm@ofxNonLinearFit@@UEBA?AW4algorithm@nlopt@@XZ
	?getCType@Algorithm@ofxNonLinearFit@@UEBA?AW4nlopt_algorithm@@XZ
	?getDomain@Algorithm@ofxNonLinearFit@@UEBA?AW4Domain@12@XZ
	?addMessage@ofxOscBundle@@QEAAXAEBVofxOscMessage@@@Z
	?addFloatArg@ofxOscMessage@@QEAAXM@Z
	?addInt32Arg@ofxOscMessage@@QEAAXH@Z
	?addIntArg@ofxOscMessage@@QEAAXH@Z
	?sendBundle@ofxOscSender@@QEAAXAEAVofxOscBundle@@@Z
	?sendMessage@ofxOscSender@@QEAAXAEAVofxOscMessage@@_N@Z
	?setup@ofxOscSender@@QEAAXAEBV?$basic_string@DU?$char_traits@D@std@@V?$allocator@D@2@@std@@H@Z
	??0Plane@ofxRay@@QEAA@XZ
	??0Ray@ofxRay@@QEAA@VofVec3f@@0_N@Z
	??0Ray@ofxRay@@QEAA@XZ
	?draw@Plane@ofxRay@@UEBAXXZ
	?fitToPoints@Plane@ofxRay@@QEAA_NAEBV?$vector@VofVec3f@@V?$allocator@VofVec3f@@@std@@@std@@AEAM@Z
	?getDistanceTo@Plane@ofxRay@@QEBAMAEBVofVec3f@@@Z
	?randomiseVectors@Plane@ofxRay@@UEAAXM@Z
	?setScale@Plane@ofxRay@@QEAAXAEBVofVec2f@@@Z
	?beginAsCamera@Projector@ofxRay@@QEBAX_N@Z
	?endAsCamera@Projector@ofxRay@@QEBAXXZ
	?getClippedProjectionMatrix@Projector@ofxRay@@QEBA?AVofMatrix4x4@@XZ
	?getNormalizedSCoordinateOfWorldPosition@Projector@ofxRay@@QEBA?AVofVec3f@@V3@@Z
	?getProjectionMatrix@Projector@ofxRay@@QEBA?AVofMatrix4x4@@XZ
	?getScreenCoordinateOfWorldPosition@Projector@ofxRay@@QEBA?AVofVec3f@@V3@@Z
	?getViewMatrix@Projector@ofxRay@@QEBA?AVofMatrix4x4@@XZ
	?closestPointOnRayTo@Ray@ofxRay@@QEBA?AVofVec3f@@AEBV3@@Z
	?distanceTo@Ray@ofxRay@@QEBAMAEBVofVec3f@@@Z
	?draw@Ray@ofxRay@@UEBAXXZ
	?getMidpoint@Ray@ofxRay@@QEBA?AVofVec3f@@XZ
	?intersect@Ray@ofxRay@@QEBA?AV12@AEBV12@@Z
	?randomiseVectors@Ray@ofxRay@@UEAAXM@Z
	??0Exception@ofxRulr@@QEAA@V?$basic_string@DU?$char_traits@D@std@@V?$allocator@D@2@@std@@@Z
	?what@Exception@ofxRulr@@UEBAPEBDXZ
	??0AbstractPin@Graph@ofxRulr@@QEAA@V?$basic_string@DU?$char_traits@D@std@@V?$allocator@D@2@@std@@@Z
	??0World@Graph@ofxRulr@@QEAA@XZ
	?getName@AbstractPin@Graph@ofxRulr@@QEBA?AV?$basic_string@DU?$char_traits@D@std@@V?$allocator@D@2@@std@@XZ
	??0Patch@Editor@Graph@ofxRulr@@QEAA@XZ
	?setup@PinView@Editor@Graph@ofxRulr@@QEAAXAEAVBase@Nodes@4@@Z
	?getSingletonStore@?$Singleton@VWorld@Graph@ofxRulr@@@ofxSingleton@@SAAEAVSingletonStore@12@XZ
	?init@World@Graph@ofxRulr@@QEAAXAEAVController@ofxCvGui@@_N@Z
	?loadAll@World@Graph@ofxRulr@@QEAAX_N@Z
	??0Base@Nodes@ofxRulr@@QEAA@XZ
	??0GraphicsManager@Nodes@ofxRulr@@QEAA@XZ
	??1Base@Nodes@ofxRulr@@QEAA@XZ
	?loadCoreNodes@Nodes@ofxRulr@@YAXXZ
	?loadPluginNodes@Nodes@ofxRulr@@YAXXZ
	?addInput@Base@Nodes@ofxRulr@@IEAAXV?$shared_ptr@VAbstractPin@Graph@ofxRulr@@@std@@@Z
	?drawWorld@Base@Nodes@ofxRulr@@QEAAXXZ
	?getColor@Base@Nodes@ofxRulr@@QEAAAEBV?$ofColor_@E@@XZ
	?getIcon@Base@Nodes@ofxRulr@@QEAAAEBVofBaseDraws@@XZ
	?getInputPins@Base@Nodes@ofxRulr@@QEBAAEBV?$Set@VAbstractPin@Graph@ofxRulr@@@Utils@3@XZ
	?getName@Base@Nodes@ofxRulr@@UEBA?AV?$basic_string@DU?$char_traits@D@std@@V?$allocator@D@2@@std@@XZ
	?getTypeName@Base@Nodes@ofxRulr@@UEBA?AV?$basic_string@DU?$char_traits@D@std@@V?$allocator@D@2@@std@@XZ
	?manageParameters@Base@Nodes@ofxRulr@@QEAAXAEAVofParameterGroup@@_N@Z
	?setIcon@Base@Nodes@ofxRulr@@QEAAXV?$shared_ptr@VImage@ofxAssets@@@std@@@Z
	?setName@Base@Nodes@ofxRulr@@QEAAXV?$basic_string@DU?$char_traits@D@std@@V?$allocator@D@2@@std@@@Z
	?throwIfMissingAnyConnection@Base@Nodes@ofxRulr@@QEBAXXZ
	?update@Base@Nodes@ofxRulr@@QEAAXXZ
	??0Transmit@DMX@Nodes@ofxRulr@@QEAA@XZ
	?getPanel@Transmit@DMX@Nodes@ofxRulr@@UEAA?AV?$shared_ptr@VBase@Panels@ofxCvGui@@@std@@XZ
	?getChannels@Universe@Transmit@DMX@Nodes@ofxRulr@@QEBAPEBEXZ
	?getIcon@GraphicsManager@Nodes@ofxRulr@@QEAA?AV?$shared_ptr@VImage@ofxAssets@@@std@@AEBV?$basic_string@DU?$char_traits@D@std@@V?$allocator@D@2@@5@@Z
	??0AbstractBoard@Item@Nodes@ofxRulr@@QEAA@XZ
	??0Board@Item@Nodes@ofxRulr@@QEAA@XZ
	??0Camera@Item@Nodes@ofxRulr@@QEAA@XZ
	??0Projector@Item@Nodes@ofxRulr@@QEAA@XZ
	??0RigidBody@Item@Nodes@ofxRulr@@QEAA@XZ
	??1Camera@Item@Nodes@ofxRulr@@UEAA@XZ
	?getFrame@Camera@Item@Nodes@ofxRulr@@QEAA?AV?$shared_ptr@VFrame@ofxMachineVision@@@std@@XZ
	?getFreshFrame@Camera@Item@Nodes@ofxRulr@@QEAA?AV?$shared_ptr@VFrame@ofxMachineVision@@@std@@XZ
	?getGrabber@Camera@Item@Nodes@ofxRulr@@QEAA?AV?$shared_ptr@VSimple@Grabber@ofxMachineVision@@@std@@XZ
	?drawWorld@RigidBody@Item@Nodes@ofxRulr@@QEAAXXZ
	?getExtrinsics@RigidBody@Item@Nodes@ofxRulr@@QEAAXAEAVMat@cv@@0_N@Z
	?getTransform@RigidBody@Item@Nodes@ofxRulr@@QEBA?AVofMatrix4x4@@XZ
	?getTypeName@RigidBody@Item@Nodes@ofxRulr@@UEBA?AV?$basic_string@DU?$char_traits@D@std@@V?$allocator@D@2@@std@@XZ
	?setExtrinsics@RigidBody@Item@Nodes@ofxRulr@@QEAAXVMat@cv@@0_N@Z
	?setTransform@RigidBody@Item@Nodes@ofxRulr@@QEAAXAEBVofMatrix4x4@@@Z
	?getCameraMatrix@View@Item@Nodes@ofxRulr@@QEBA?AVMat@cv@@XZ
	?getDistortionCoefficients@View@Item@Nodes@ofxRulr@@QEBA?AVMat@cv@@XZ
	?getHeight@View@Item@Nodes@ofxRulr@@QEBAMXZ
	?getSize@View@Item@Nodes@ofxRulr@@QEBA?AV?$Size_@H@cv@@XZ
	?getViewInWorldSpace@View@Item@Nodes@ofxRulr@@QEBA?AVCamera@ofxRay@@XZ
	?getWidth@View@Item@Nodes@ofxRulr@@QEBAMXZ
	?setHeight@View@Item@Nodes@ofxRulr@@QEAAXM@Z
	?setIntrinsics@View@Item@Nodes@ofxRulr@@QEAAXVMat@cv@@0@Z
	?setWidth@View@Item@Nodes@ofxRulr@@QEAAXM@Z
	??0IReferenceVertices@Calibrate@Procedure@Nodes@ofxRulr@@QEAA@XZ
	??0StereoCalibrate@Calibrate@Procedure@Nodes@ofxRulr@@QEAA@XZ
	?getVertices@IReferenceVertices@Calibrate@Procedure@Nodes@ofxRulr@@QEBAAEBV?$vector@V?$shared_ptr@VVertex@IReferenceVertices@Calibrate@Procedure@Nodes@ofxRulr@@@std@@V?$allocator@V?$shared_ptr@VVertex@IReferenceVertices@Calibrate@Procedure@Nodes@ofxRulr@@@std@@@2@@std@@XZ
	?drawWorld@Vertex@IReferenceVertices@Calibrate@Procedure@Nodes@ofxRulr@@UEAAXAEBV?$ofColor_@E@@@Z
	?getOpenCVCalibration@StereoCalibrate@Calibrate@Procedure@Nodes@ofxRulr@@QEBAAEBUOpenCVCalibration@12345@XZ
	?throwIfACameraIsDisconnected@StereoCalibrate@Calibrate@Procedure@Nodes@ofxRulr@@QEAAXXZ
	?triangulate@StereoCalibrate@Calibrate@Procedure@Nodes@ofxRulr@@QEAA?AV?$vector@VofVec3f@@V?$allocator@VofVec3f@@@std@@@std@@AEBV?$vector@VofVec2f@@V?$allocator@VofVec2f@@@std@@@7@0_N@Z
	??0Graycode@Scan@Procedure@Nodes@ofxRulr@@QEAA@XZ
	?getDataSet@Graycode@Scan@Procedure@Nodes@ofxRulr@@QEBAAEBVDataSet@ofxGraycode@@XZ
	?getDecoder@Graycode@Scan@Procedure@Nodes@ofxRulr@@QEBAAEAVDecoder@ofxGraycode@@XZ
	?runScan@Graycode@Scan@Procedure@Nodes@ofxRulr@@QEAAXXZ
	?setDataSet@Graycode@Scan@Procedure@Nodes@ofxRulr@@QEAAXAEBVDataSet@ofxGraycode@@@Z
	??0VideoOutput@System@Nodes@ofxRulr@@QEAA@XZ
	?applyNormalisedSplitViewTransform@VideoOutput@System@Nodes@ofxRulr@@QEBAXXZ
	?begin@VideoOutput@System@Nodes@ofxRulr@@QEAAXXZ
	?clearFbo@VideoOutput@System@Nodes@ofxRulr@@QEAAX_N@Z
	?end@VideoOutput@System@Nodes@ofxRulr@@QEAAXXZ
	?getFbo@VideoOutput@System@Nodes@ofxRulr@@QEAAAEAVofFbo@@XZ
	?getHeight@VideoOutput@System@Nodes@ofxRulr@@QEBAMXZ
	?getSize@VideoOutput@System@Nodes@ofxRulr@@QEBA?AVofRectangle@@XZ
	?getWidth@VideoOutput@System@Nodes@ofxRulr@@QEBAMXZ
	?getWindow@VideoOutput@System@Nodes@ofxRulr@@QEBAPEAUGLFWwindow@@XZ
	?isWindowOpen@VideoOutput@System@Nodes@ofxRulr@@QEBA_NXZ
	?presentFbo@VideoOutput@System@Nodes@ofxRulr@@QEAAXXZ
	?setMute@VideoOutput@System@Nodes@ofxRulr@@QEAAX_N@Z
	?setWindowOpen@VideoOutput@System@Nodes@ofxRulr@@QEAAX_N@Z
	?getSingletonStore@?$Singleton@VGraphicsManager@Nodes@ofxRulr@@@ofxSingleton@@SAAEAVSingletonStore@12@XZ
	??0AbstractCaptureSet@Utils@ofxRulr@@QEAA@XZ
	??0ScopedProcess@Utils@ofxRulr@@QEAA@AEBV?$basic_string@DU?$char_traits@D@std@@V?$allocator@D@2@@std@@_N@Z
	??0ScopedProcess@Utils@ofxRulr@@QEAA@AEBV?$basic_string@DU?$char_traits@D@std@@V?$allocator@D@2@@std@@_N_K@Z
	??0ThreadPool@Utils@ofxRulr@@QEAA@_K0@Z
	??1AbstractCaptureSet@Utils@ofxRulr@@UEAA@XZ
	??1ScopedProcess@Utils@ofxRulr@@QEAA@XZ
	??1ThreadPool@Utils@ofxRulr@@UEAA@XZ
	??1VideoOutputListener@Utils@ofxRulr@@QEAA@XZ
	??0BaseCapture@AbstractCaptureSet@Utils@ofxRulr@@QEAA@XZ
	?add@AbstractCaptureSet@Utils@ofxRulr@@QEAAXV?$shared_ptr@VBaseCapture@AbstractCaptureSet@Utils@ofxRulr@@@std@@@Z
	?clear@AbstractCaptureSet@Utils@ofxRulr@@QEAAXXZ
	?deserialize@AbstractCaptureSet@Utils@ofxRulr@@QEAAXAEBVValue@Json@@@Z
	?getAllCapturesUntyped@AbstractCaptureSet@Utils@ofxRulr@@QEBA?AV?$vector@V?$shared_ptr@VBaseCapture@AbstractCaptureSet@Utils@ofxRulr@@@std@@V?$allocator@V?$shared_ptr@VBaseCapture@AbstractCaptureSet@Utils@ofxRulr@@@std@@@2@@std@@XZ
	?getSelectionUntyped@AbstractCaptureSet@Utils@ofxRulr@@QEBA?AV?$vector@V?$shared_ptr@VBaseCapture@AbstractCaptureSet@Utils@ofxRulr@@@std@@V?$allocator@V?$shared_ptr@VBaseCapture@AbstractCaptureSet@Utils@ofxRulr@@@std@@@2@@std@@XZ
	?populateWidgets@AbstractCaptureSet@Utils@ofxRulr@@QEAAXV?$shared_ptr@VWidgets@Panels@ofxCvGui@@@std@@@Z
	?select@AbstractCaptureSet@Utils@ofxRulr@@QEAAXV?$shared_ptr@VBaseCapture@AbstractCaptureSet@Utils@ofxRulr@@@std@@@Z
	?selectNone@AbstractCaptureSet@Utils@ofxRulr@@QEAAXXZ
	?serialize@AbstractCaptureSet@Utils@ofxRulr@@QEAAXAEAVValue@Json@@@Z
	?getDataDisplay@BaseCapture@AbstractCaptureSet@Utils@ofxRulr@@MEAA?AV?$shared_ptr@VElement@ofxCvGui@@@std@@XZ
	?getTypeName@BaseCapture@AbstractCaptureSet@Utils@ofxRulr@@UEBA?AV?$basic_string@DU?$char_traits@D@std@@V?$allocator@D@2@@std@@XZ
	?popPointSize@Graphics@Utils@ofxRulr@@SAXXZ
	?pushPointSize@Graphics@Utils@ofxRulr@@SAXM_N@Z
	?evaluate@PolyFit@Utils@ofxRulr@@YAMAEBUModel@123@M@Z
	?fit@PolyFit@Utils@ofxRulr@@YA?AUModel@123@AEBV?$vector@VofVec2f@@V?$allocator@VofVec2f@@@std@@@std@@H@Z
	?end@ScopedProcess@Utils@ofxRulr@@QEAAX_N@Z
	?nextChildProcess@ScopedProcess@Utils@ofxRulr@@QEAAXXZ
	?deserialize@Serializable@Utils@ofxRulr@@SAXAEBVValue@Json@@AEAV?$ofParameter@_N@@@Z
	?deserialize@Serializable@Utils@ofxRulr@@SAXAEBVValue@Json@@AEAV?$ofParameter@H@@@Z
	?deserialize@Serializable@Utils@ofxRulr@@SAXAEBVValue@Json@@AEAV?$ofParameter@M@@@Z
	?deserialize@Serializable@Utils@ofxRulr@@SAXAEBVValue@Json@@AEAV?$ofParameter@V?$basic_string@DU?$char_traits@D@std@@V?$allocator@D@2@@std@@@@@Z
	?deserialize@Serializable@Utils@ofxRulr@@SAXAEBVValue@Json@@AEAVofParameterGroup@@@Z
	?getDefaultFilename@Serializable@Utils@ofxRulr@@QEBA?AV?$basic_string@DU?$char_traits@D@std@@V?$allocator@D@2@@std@@XZ
	?getName@Serializable@Utils@ofxRulr@@UEBA?AV?$basic_string@DU?$char_traits@D@std@@V?$allocator@D@2@@std@@XZ
	?serialize@Serializable@Utils@ofxRulr@@SAXAEAVValue@Json@@AEBV?$ofParameter@V?$basic_string@DU?$char_traits@D@std@@V?$allocator@D@2@@std@@@@@Z
	?serialize@Serializable@Utils@ofxRulr@@SAXAEAVValue@Json@@AEBVofParameterGroup@@@Z
	?getQueueSize@ThreadPool@Utils@ofxRulr@@QEBA_KXZ
	?performAsync@ThreadPool@Utils@ofxRulr@@QEAA_NV?$function@$$A6AXXZ@std@@@Z
	?hasMaster@BaseStore@ofxSingleton@@QEBA_NXZ
	??$ofDrawBitmapString@V?$basic_string@DU?$char_traits@D@std@@V?$allocator@D@2@@std@@@@YAXAEBV?$basic_string@DU?$char_traits@D@std@@V?$allocator@D@2@@std@@MMM@Z
	??$ofFromString@V?$basic_string@DU?$char_traits@D@std@@V?$allocator@D@2@@std@@@@YA?AV?$basic_string@DU?$char_traits@D@std@@V?$allocator@D@2@@std@@AEBV01@@Z
	??5@YAAEAV?$basic_istream@DU?$char_traits@D@std@@@std@@AEAV01@AEAVofBuffer@@@Z
	??6@YAAEAV?$basic_ostream@DU?$char_traits@D@std@@@std@@AEAV01@AEBVofAbstractParameter@@@Z
	??6@YAAEAV?$basic_ostream@DU?$char_traits@D@std@@@std@@AEAV01@AEBVofBuffer@@@Z
