Library RulrLibrary_Release
EXPORTS
	__imp_glEnable
	__imp_glFlush
	__imp_glPointSize
	__imp_glPopAttrib
	__imp_glPushAttrib
	glewInit
	glfwCreateWindow
	glfwDestroyWindow
	glfwGetCurrentContext
	glfwHideWindow
	glfwMakeContextCurrent
	glfwPollEvents
	glfwSetWindowPos
	glfwShowWindow
	glfwSwapBuffers
	glfwWindowHint
	??0ofBoxPrimitive@@QEAA@XZ
	??0ofBuffer@@QEAA@AEAV?$basic_istream@DU?$char_traits@D@std@@@std@@_K@Z
	??0ofBuffer@@QEAA@PEBD_K@Z
	??0ofBuffer@@QEAA@XZ
	??0ofFbo@@QEAA@XZ
	??0ofFile@@QEAA@AEBVpath@filesystem@boost@@W4Mode@0@_N@Z
	??0ofFile@@QEAA@XZ
	??0ofHttpRequest@@QEAA@AEBV?$basic_string@DU?$char_traits@D@std@@V?$allocator@D@2@@std@@0_N@Z
	??0ofLogError@@QEAA@AEBV?$basic_string@DU?$char_traits@D@std@@V?$allocator@D@2@@std@@@Z
	??0ofLogNotice@@QEAA@AEBV?$basic_string@DU?$char_traits@D@std@@V?$allocator@D@2@@std@@@Z
	??0ofLogWarning@@QEAA@AEBV?$basic_string@DU?$char_traits@D@std@@V?$allocator@D@2@@std@@@Z
	??0ofMesh@@QEAA@XZ
	??0ofNode@@QEAA@XZ
	??0ofParameterGroup@@QEAA@XZ
	??0ofPath@@QEAA@XZ
	??0ofPlanePrimitive@@QEAA@XZ
	??0ofPolyline@@QEAA@XZ
	??0ofRectangle@@QEAA@AEBV0@@Z
	??0ofRectangle@@QEAA@MMMM@Z
	??0ofSerial@@QEAA@XZ
	??0ofTexture@@QEAA@XZ
	??0ofURLFileLoader@@QEAA@XZ
	??0ofVbo@@QEAA@AEBV0@@Z
	??0ofVbo@@QEAA@XZ
	??0ofVboMesh@@QEAA@XZ
	??0ofVec2f@@QEAA@AEBVofVec3f@@@Z
	??0ofxOscBundle@@QEAA@XZ
	??0ofxOscMessage@@QEAA@XZ
	??0ofxOscSender@@QEAA@XZ
	??1ofFbo@@UEAA@XZ
	??1ofFile@@UEAA@XZ
	??1ofLog@@UEAA@XZ
	??1ofNode@@UEAA@XZ
	??1ofPlanePrimitive@@UEAA@XZ
	??1ofRectangle@@UEAA@XZ
	??1ofTexture@@UEAA@XZ
	??1ofVbo@@QEAA@XZ
	??1ofVboMesh@@UEAA@XZ
	??1ofxOscBundle@@QEAA@XZ
	??1ofxOscMessage@@QEAA@XZ
	??4ofVbo@@QEAAAEAV0@AEBV0@@Z
	??9tpp@@YA_NAEBVfIterator@Delaunay@0@0@Z
	??BofBuffer@@QEBA?AV?$basic_string@DU?$char_traits@D@std@@V?$allocator@D@2@@std@@XZ
	?ofCircle@@YAXAEBVofVec3f@@M@Z
	?ofCircle@@YAXMMM@Z
	?ofClamp@@YAMMMM@Z
	?ofClear@@YAXMM@Z
	?ofClear@@YAXMMMM@Z
	?ofCreateWindow@@YA?AV?$shared_ptr@VofAppBaseWindow@@@std@@AEBVofWindowSettings@@@Z
	?ofDisableAlphaBlending@@YAXXZ
	?ofDisableBlendMode@@YAXXZ
	?ofDrawArrow@@YAXAEBVofVec3f@@0M@Z
	?ofDrawAxis@@YAXM@Z
	?ofDrawBox@@YAXAEBVofVec3f@@MMM@Z
	?ofDrawCircle@@YAXAEBVofVec3f@@M@Z
	?ofDrawCircle@@YAXMMM@Z
	?ofDrawGridPlane@@YAXM_K_N@Z
	?ofDrawLine@@YAXAEBVofVec3f@@0@Z
	?ofDrawLine@@YAXMMMM@Z
	?ofDrawRectangle@@YAXAEBVofRectangle@@@Z
	?ofDrawRectangle@@YAXMMMM@Z
	?ofDrawRectRounded@@YAXAEBVofRectangle@@MMMM@Z
	?ofDrawSphere@@YAXAEBVofVec3f@@M@Z
	?ofEnableAlphaBlending@@YAXXZ
	?ofEnableBlendMode@@YAXW4ofBlendMode@@@Z
	?ofEnableSmoothing@@YAXXZ
	?ofFill@@YAXXZ
	?ofGetCurrentWindow@@YA?AV?$shared_ptr@VofAppBaseWindow@@@std@@XZ
	?ofGetElapsedTimef@@YAMXZ
	?ofGetElapsedTimeMillis@@YA_KXZ
	?ofGetFrameNum@@YA_KXZ
	?ofGetKeyPressed@@YA_NH@Z
	?ofGetMouseX@@YAHXZ
	?ofGetMouseY@@YAHXZ
	?ofGetScreenHeight@@YAHXZ
	?ofGetScreenWidth@@YAHXZ
	?ofGetStyle@@YA?AVofStyle@@XZ
	?ofHideCursor@@YAXXZ
	?ofLine@@YAXAEBVofVec3f@@0@Z
	?ofLoadIdentityMatrix@@YAXXZ
	?ofLoadImage@@YA_NAEAV?$ofPixels_@E@@AEBVofBuffer@@AEBUofImageLoadSettings@@@Z
	?ofMap@@YAMMMMMM_N@Z
	?ofMultMatrix@@YAXAEBVofMatrix4x4@@@Z
	?ofNoFill@@YAXXZ
	?ofPopMatrix@@YAXXZ
	?ofPopStyle@@YAXXZ
	?ofPopView@@YAXXZ
	?ofPushMatrix@@YAXXZ
	?ofPushStyle@@YAXXZ
	?ofPushView@@YAXXZ
	?ofRandomf@@YAMXZ
	?ofRotate@@YAXM@Z
	?ofRotate@@YAXMMMM@Z
	?ofRunApp@@YAHPEAVofBaseApp@@@Z
	?ofSaveImage@@YAXAEBV?$ofPixels_@E@@AEBV?$basic_string@DU?$char_traits@D@std@@V?$allocator@D@2@@std@@W4ofImageQualityType@@@Z
	?ofSaveImage@@YAXAEBV?$ofPixels_@M@@AEBV?$basic_string@DU?$char_traits@D@std@@V?$allocator@D@2@@std@@W4ofImageQualityType@@@Z
	?ofScale@@YAXAEBVofVec3f@@@Z
	?ofScale@@YAXM@Z
	?ofScale@@YAXMMM@Z
	?ofSetCircleResolution@@YAXH@Z
	?ofSetColor@@YAXAEBV?$ofColor_@E@@@Z
	?ofSetColor@@YAXAEBV?$ofColor_@E@@H@Z
	?ofSetColor@@YAXH@Z
	?ofSetColor@@YAXHHH@Z
	?ofSetColor@@YAXHHHH@Z
	?ofSetEscapeQuitsApp@@YAX_N@Z
	?ofSetLineWidth@@YAXM@Z
	?ofSetMatrixMode@@YAXW4ofMatrixMode@@@Z
	?ofSetupScreen@@YAXXZ
	?ofShowCursor@@YAXXZ
	?ofSleepMillis@@YAXH@Z
	?ofSplitString@@YA?AV?$vector@V?$basic_string@DU?$char_traits@D@std@@V?$allocator@D@2@@std@@V?$allocator@V?$basic_string@DU?$char_traits@D@std@@V?$allocator@D@2@@std@@@2@@std@@AEBV?$basic_string@DU?$char_traits@D@std@@V?$allocator@D@2@@2@0_N1@Z
	?ofSystemAlertDialog@@YAXV?$basic_string@DU?$char_traits@D@std@@V?$allocator@D@2@@std@@@Z
	?ofSystemLoadDialog@@YA?AVofFileDialogResult@@V?$basic_string@DU?$char_traits@D@std@@V?$allocator@D@2@@std@@_N0@Z
	?ofSystemSaveDialog@@YA?AVofFileDialogResult@@V?$basic_string@DU?$char_traits@D@std@@V?$allocator@D@2@@std@@0@Z
	?ofSystemTextBoxDialog@@YA?AV?$basic_string@DU?$char_traits@D@std@@V?$allocator@D@2@@std@@V12@0@Z
	?ofToDataPath@@YA?AV?$basic_string@DU?$char_traits@D@std@@V?$allocator@D@2@@std@@AEBV12@_N@Z
	?ofToFloat@@YAMAEBV?$basic_string@DU?$char_traits@D@std@@V?$allocator@D@2@@std@@@Z
	?ofToInt@@YAHAEBV?$basic_string@DU?$char_traits@D@std@@V?$allocator@D@2@@std@@@Z
	?ofToLower@@YA?AV?$basic_string@DU?$char_traits@D@std@@V?$allocator@D@2@@std@@AEBV12@0@Z
	?ofTranslate@@YAXAEBVofVec3f@@@Z
	?ofTranslate@@YAXMMM@Z
	?ofViewport@@YAXVofRectangle@@@Z
	?fromHex@?$ofColor_@E@@SA?AV1@HM@Z
	?limit@?$ofColor_@E@@SAMXZ
	?setHue@?$ofColor_@E@@QEAAXM@Z
	?setHueAngle@?$ofColor_@E@@QEAAXM@Z
	?allocate@?$ofImage_@E@@QEAAXHHW4ofImageType@@@Z
	?bind@?$ofImage_@E@@QEBAXH@Z
	?clear@?$ofImage_@E@@QEAAXXZ
	?draw@?$ofImage_@E@@UEBAXMM@Z
	?draw@?$ofImage_@E@@UEBAXMMMM@Z
	?getTexture@?$ofImage_@E@@UEAAAEAVofTexture@@XZ
	?load@?$ofImage_@E@@QEAA_NAEBV?$basic_string@DU?$char_traits@D@std@@V?$allocator@D@2@@std@@AEBUofImageLoadSettings@@@Z
	?load@?$ofImage_@E@@QEAA_NAEBVofFile@@AEBUofImageLoadSettings@@@Z
	?loadImage@?$ofImage_@E@@QEAA_NAEBV?$basic_string@DU?$char_traits@D@std@@V?$allocator@D@2@@std@@@Z
	?setFromPixels@?$ofImage_@E@@QEAAXAEBV?$ofPixels_@E@@@Z
	?unbind@?$ofImage_@E@@QEBAXH@Z
	?update@?$ofImage_@E@@QEAAXXZ
	?allocate@?$ofPixels_@E@@QEAAXHHW4ofImageType@@@Z
	?allocate@?$ofPixels_@E@@QEAAXHHW4ofPixelFormat@@@Z
	?getBytesPerChannel@?$ofPixels_@E@@QEBAHXZ
	?getData@?$ofPixels_@E@@QEAAPEAEXZ
	?getData@?$ofPixels_@E@@QEBAPEBEXZ
	?getHeight@?$ofPixels_@E@@QEBAHXZ
	?getNumChannels@?$ofPixels_@E@@QEBAHXZ
	?getPixelFormat@?$ofPixels_@E@@QEBA?AW4ofPixelFormat@@XZ
	?getPixels@?$ofPixels_@E@@QEAAPEAEXZ
	?getWidth@?$ofPixels_@E@@QEBAHXZ
	?isAllocated@?$ofPixels_@E@@QEBA_NXZ
	?resize@?$ofPixels_@E@@QEAA_NHHW4ofInterpolationMethod@@@Z
	?rotate90@?$ofPixels_@E@@QEAAXH@Z
	?setColor@?$ofPixels_@E@@QEAAXAEBV?$ofColor_@E@@@Z
	?size@?$ofPixels_@E@@QEBA_KXZ
	?swap@?$ofPixels_@E@@QEAAXAEAV1@@Z
	??0?$ofColor_@E@@QEAA@MM@Z
	??0?$ofColor_@E@@QEAA@MMMM@Z
	??0?$ofImage_@E@@QEAA@$$QEAV0@@Z
	??0?$ofImage_@E@@QEAA@AEBV0@@Z
	??0?$ofImage_@E@@QEAA@XZ
	??0?$ofPixels_@E@@QEAA@AEBV0@@Z
	??0?$ofPixels_@E@@QEAA@XZ
	??1?$ofImage_@E@@UEAA@XZ
	??1?$ofPixels_@E@@QEAA@XZ
	??4?$ofImage_@E@@QEAAAEAV0@$$QEAV0@@Z
	??4?$ofImage_@E@@QEAAAEAV0@AEAV?$ofPixels_@E@@@Z
	??4?$ofImage_@E@@QEAAAEAV0@AEBV0@@Z
	??4?$ofPixels_@E@@QEAAAEAV0@AEBV0@@Z
	??8?$ofColor_@E@@QEBA_NAEBV0@@Z
	??A?$ofColor_@E@@QEAAAEAE_K@Z
	??A?$ofColor_@E@@QEBAAEBE_K@Z
	?allocate@?$ofPixels_@G@@QEAAXHHH@Z
	?allocate@?$ofPixels_@G@@QEAAXHHW4ofImageType@@@Z
	?getData@?$ofPixels_@G@@QEAAPEAGXZ
	?getData@?$ofPixels_@G@@QEBAPEBGXZ
	?getHeight@?$ofPixels_@G@@QEBAHXZ
	?getNumChannels@?$ofPixels_@G@@QEBAHXZ
	?getPixels@?$ofPixels_@G@@QEAAPEAGXZ
	?getPixels@?$ofPixels_@G@@QEBAPEBGXZ
	?getWidth@?$ofPixels_@G@@QEBAHXZ
	?size@?$ofPixels_@G@@QEBA_KXZ
	??0?$ofPixels_@G@@QEAA@XZ
	??1?$ofPixels_@G@@QEAA@XZ
	?getData@?$ofPixels_@I@@QEBAPEBIXZ
	?getHeight@?$ofPixels_@I@@QEBAHXZ
	?getPixelIndex@?$ofPixels_@I@@QEBAHHH@Z
	?getWidth@?$ofPixels_@I@@QEBAHXZ
	??0?$ofPixels_@I@@QEAA@AEBV0@@Z
	??0?$ofPixels_@I@@QEAA@XZ
	??1?$ofPixels_@I@@QEAA@XZ
	??0Reader@Json@@QEAA@XZ
	??0Value@Json@@QEAA@_N@Z
	??0Value@Json@@QEAA@AEBV?$basic_string@DU?$char_traits@D@std@@V?$allocator@D@2@@std@@@Z
	??0Value@Json@@QEAA@H@Z
	??0Value@Json@@QEAA@N@Z
	??0Value@Json@@QEAA@W4ValueType@1@@Z
	??1Value@Json@@QEAA@XZ
	??4Value@Json@@QEAAAEAV01@AEBV01@@Z
	??AValue@Json@@QEAAAEAV01@AEBV?$basic_string@DU?$char_traits@D@std@@V?$allocator@D@2@@std@@@Z
	??AValue@Json@@QEAAAEAV01@H@Z
	??AValue@Json@@QEAAAEAV01@PEBD@Z
	??AValue@Json@@QEBAAEBV01@AEBV?$basic_string@DU?$char_traits@D@std@@V?$allocator@D@2@@std@@@Z
	??AValue@Json@@QEBAAEBV01@H@Z
	??AValue@Json@@QEBAAEBV01@PEBD@Z
	?parse@Reader@Json@@QEAA_NAEBV?$basic_string@DU?$char_traits@D@std@@V?$allocator@D@2@@std@@AEAVValue@2@_N@Z
	?append@Value@Json@@QEAAAEAV12@AEBV12@@Z
	?asBool@Value@Json@@QEBA_NXZ
	?asFloat@Value@Json@@QEBAMXZ
	?asInt@Value@Json@@QEBAHXZ
	?asString@Value@Json@@QEBA?AV?$basic_string@DU?$char_traits@D@std@@V?$allocator@D@2@@std@@XZ
	?begin@Value@Json@@QEAA?AVValueIterator@2@XZ
	?begin@Value@Json@@QEBA?AVValueConstIterator@2@XZ
	?end@Value@Json@@QEAA?AVValueIterator@2@XZ
	?end@Value@Json@@QEBA?AVValueConstIterator@2@XZ
	?getMemberNames@Value@Json@@QEBA?AV?$vector@V?$basic_string@DU?$char_traits@D@std@@V?$allocator@D@2@@std@@V?$allocator@V?$basic_string@DU?$char_traits@D@std@@V?$allocator@D@2@@std@@@2@@std@@XZ
	?isMember@Value@Json@@QEBA_NPEBD@Z
	?isNull@Value@Json@@QEBA_NXZ
	?isString@Value@Json@@QEBA_NXZ
	?toStyledString@Value@Json@@QEBA?AV?$basic_string@DU?$char_traits@D@std@@V?$allocator@D@2@@std@@XZ
	?deref@ValueIteratorBase@Json@@IEBAAEAVValue@2@XZ
	?increment@ValueIteratorBase@Json@@IEAAXXZ
	?isEqual@ValueIteratorBase@Json@@IEBA_NAEBV12@@Z
	??6@YAXAEAVValue@Json@@AEBVofMesh@@@Z
	??5@YAXAEBVValue@Json@@AEAVofMesh@@@Z
	?limit@?$ofColor_@M@@SAMXZ
	?clear@?$ofImage_@M@@QEAAXXZ
	?getPixels@?$ofImage_@M@@UEAAAEAV?$ofPixels_@M@@XZ
	?save@?$ofImage_@M@@QEBAXAEBV?$basic_string@DU?$char_traits@D@std@@V?$allocator@D@2@@std@@W4ofImageQualityType@@@Z
	?update@?$ofImage_@M@@QEAAXXZ
	?allocate@?$ofPixels_@M@@QEAAXHHW4ofImageType@@@Z
	?allocate@?$ofPixels_@M@@QEAAXHHW4ofPixelFormat@@@Z
	?getBytesPerChannel@?$ofPixels_@M@@QEBAHXZ
	?getData@?$ofPixels_@M@@QEAAPEAMXZ
	?getHeight@?$ofPixels_@M@@QEBAHXZ
	?getNumChannels@?$ofPixels_@M@@QEBAHXZ
	?getPixelFormat@?$ofPixels_@M@@QEBA?AW4ofPixelFormat@@XZ
	?getPixels@?$ofPixels_@M@@QEAAPEAMXZ
	?getWidth@?$ofPixels_@M@@QEBAHXZ
	?setFromPixels@?$ofPixels_@M@@QEAAXPEBMHHH@Z
	?size@?$ofPixels_@M@@QEBA_KXZ
	??_0?$ofColor_@M@@QEAAAEAV0@AEBM@Z
	??0?$ofColor_@M@@QEAA@MM@Z
	??0?$ofColor_@M@@QEAA@MMMM@Z
	??0?$ofImage_@M@@QEAA@XZ
	??0?$ofPixels_@M@@QEAA@XZ
	??1?$ofImage_@M@@UEAA@XZ
	??1?$ofPixels_@M@@QEAA@XZ
	??A?$ofColor_@M@@QEAAAEAM_K@Z
	??A?$ofColor_@M@@QEBAAEBM_K@Z
	??X?$ofColor_@M@@QEAAAEAV0@AEBM@Z
	??1BaseFunctionId@priv@of@@UEAA@XZ
	?draw@of3dPrimitive@@UEBAXXZ
	?drawWireframe@of3dPrimitive@@QEBAXXZ
	?mapTexCoordsFromTexture@of3dPrimitive@@QEAAXAEAVofTexture@@@Z
	?setUseVbo@of3dPrimitive@@QEAAX_N@Z
	?escape@ofAbstractParameter@@MEBA?AV?$basic_string@DU?$char_traits@D@std@@V?$allocator@D@2@@std@@AEBV23@@Z
	?getEscapedName@ofAbstractParameter@@UEBA?AV?$basic_string@DU?$char_traits@D@std@@V?$allocator@D@2@@std@@XZ
	?isReferenceTo@ofAbstractParameter@@UEBA_NAEBV1@@Z
	?type@ofAbstractParameter@@UEBA?AV?$basic_string@DU?$char_traits@D@std@@V?$allocator@D@2@@std@@XZ
	?audioIn@ofBaseSoundInput@@UEAAXAEAVofSoundBuffer@@@Z
	?audioIn@ofBaseSoundInput@@UEAAXPEAMHH@Z
	?audioIn@ofBaseSoundInput@@UEAAXPEAMHHH_K@Z
	?audioOut@ofBaseSoundOutput@@UEAAXAEAVofSoundBuffer@@@Z
	?audioOut@ofBaseSoundOutput@@UEAAXPEAMHH@Z
	?audioOut@ofBaseSoundOutput@@UEAAXPEAMHHH_K@Z
	?setDepth@ofBoxPrimitive@@QEAAXM@Z
	?setHeight@ofBoxPrimitive@@QEAAXM@Z
	?setResolution@ofBoxPrimitive@@QEAAXH@Z
	?setWidth@ofBoxPrimitive@@QEAAXM@Z
	?getData@ofBuffer@@QEBAPEBDXZ
	?getText@ofBuffer@@QEBA?AV?$basic_string@DU?$char_traits@D@std@@V?$allocator@D@2@@std@@XZ
	?set@ofBuffer@@QEAAXPEBD_K@Z
	?size@ofBuffer@@QEBA_KXZ
	?worldToScreen@ofCamera@@QEBA?AVofVec3f@@V2@VofRectangle@@@Z
	??0Settings@ofFbo@@QEAA@V?$shared_ptr@VofBaseGLRenderer@@@std@@@Z
	?allocate@ofFbo@@QEAAXHHHH@Z
	?allocate@ofFbo@@QEAAXUSettings@1@@Z
	?begin@ofFbo@@QEBAX_N@Z
	?bind@ofFbo@@QEBAXXZ
	?draw@ofFbo@@UEBAXMM@Z
	?end@ofFbo@@QEBAXXZ
	?getDepthTexture@ofFbo@@QEAAAEAVofTexture@@XZ
	?readToPixels@ofFbo@@QEBAXAEAV?$ofPixels_@E@@H@Z
	?readToPixels@ofFbo@@QEBAXAEAV?$ofPixels_@M@@H@Z
	?unbind@ofFbo@@QEBAXXZ
	?open@ofFile@@QEAA_NAEBVpath@filesystem@boost@@W4Mode@1@_N@Z
	?readToBuffer@ofFile@@QEAA?AVofBuffer@@XZ
	?getPath@ofFileDialogResult@@QEAA?AV?$basic_string@DU?$char_traits@D@std@@V?$allocator@D@2@@std@@XZ
	?getBaseName@ofFilePath@@SA?AV?$basic_string@DU?$char_traits@D@std@@V?$allocator@D@2@@std@@AEBV23@@Z
	?getFileExt@ofFilePath@@SA?AV?$basic_string@DU?$char_traits@D@std@@V?$allocator@D@2@@std@@AEBV23@@Z
	?removeExt@ofFilePath@@SA?AV?$basic_string@DU?$char_traits@D@std@@V?$allocator@D@2@@std@@AEBV23@@Z
	?defaultSetting@ofImageLoadSettings@@2U1@A
	?getPadding@ofLog@@CAAEAV?$basic_string@DU?$char_traits@D@std@@V?$allocator@D@2@@std@@XZ
	?getInverse@ofMatrix4x4@@QEBA?AV1@XZ
	?makeFromMultiplicationOf@ofMatrix4x4@@QEAAXAEBV1@0@Z
	?makeIdentityMatrix@ofMatrix4x4@@QEAAXXZ
	?makeLookAtMatrix@ofMatrix4x4@@QEAAXAEBVofVec3f@@00@Z
	?makeRotationMatrix@ofMatrix4x4@@QEAAXAEBVofQuaternion@@@Z
	?makeRotationMatrix@ofMatrix4x4@@QEAAXMAEBVofVec3f@@@Z
	?makeRotationMatrix@ofMatrix4x4@@QEAAXMAEBVofVec3f@@M0M0@Z
	?makeRotationMatrix@ofMatrix4x4@@QEAAXMMMM@Z
	?makeScaleMatrix@ofMatrix4x4@@QEAAXMMM@Z
	?makeTranslationMatrix@ofMatrix4x4@@QEAAXMMM@Z
	?postMult@ofMatrix4x4@@QEAAXAEBV1@@Z
	?set@ofMatrix4x4@@QEAAXMMMMMMMMMMMMMMMM@Z
	?setRotate@ofMatrix4x4@@QEAAXAEBVofQuaternion@@@Z
	?addColor@ofMesh@@QEAAXAEBV?$ofColor_@M@@@Z
	?addColors@ofMesh@@QEAAXAEBV?$vector@V?$ofColor_@M@@V?$allocator@V?$ofColor_@M@@@std@@@std@@@Z
	?addIndex@ofMesh@@QEAAXI@Z
	?addIndices@ofMesh@@QEAAXPEBI_K@Z
	?addTexCoord@ofMesh@@QEAAXAEBVofVec2f@@@Z
	?addTexCoords@ofMesh@@QEAAXAEBV?$vector@VofVec2f@@V?$allocator@VofVec2f@@@std@@@std@@@Z
	?addVertex@ofMesh@@QEAAXAEBVofVec3f@@@Z
	?addVertices@ofMesh@@QEAAXAEBV?$vector@VofVec3f@@V?$allocator@VofVec3f@@@std@@@std@@@Z
	?clear@ofMesh@@QEAAXXZ
	?clearColors@ofMesh@@QEAAXXZ
	?clearVertices@ofMesh@@QEAAXXZ
	?disableColors@ofMesh@@UEAAXXZ
	?disableIndices@ofMesh@@UEAAXXZ
	?disableNormals@ofMesh@@UEAAXXZ
	?disableTextures@ofMesh@@UEAAXXZ
	?draw@ofMesh@@QEBAXXZ
	?draw@ofMesh@@UEBAXW4ofPolyRenderMode@@@Z
	?drawFaces@ofMesh@@QEBAXXZ
	?drawVertices@ofMesh@@QEBAXXZ
	?drawWireframe@ofMesh@@QEBAXXZ
	?enableColors@ofMesh@@UEAAXXZ
	?enableIndices@ofMesh@@UEAAXXZ
	?enableNormals@ofMesh@@UEAAXXZ
	?enableTextures@ofMesh@@UEAAXXZ
	?getColors@ofMesh@@QEAAAEAV?$vector@V?$ofColor_@M@@V?$allocator@V?$ofColor_@M@@@std@@@std@@XZ
	?getIndexPointer@ofMesh@@QEAAPEAIXZ
	?getNumIndices@ofMesh@@QEBA_KXZ
	?getNumTexCoords@ofMesh@@QEBA_KXZ
	?getNumVertices@ofMesh@@QEBA_KXZ
	?getTexCoords@ofMesh@@QEAAAEAV?$vector@VofVec2f@@V?$allocator@VofVec2f@@@std@@@std@@XZ
	?getTexCoordsPointer@ofMesh@@QEAAPEAVofVec2f@@XZ
	?getVertices@ofMesh@@QEAAAEAV?$vector@VofVec3f@@V?$allocator@VofVec3f@@@std@@@std@@XZ
	?getVerticesPointer@ofMesh@@QEAAPEAVofVec3f@@XZ
	?plane@ofMesh@@SA?AV1@MMHHW4ofPrimitiveMode@@@Z
	?setMode@ofMesh@@QEAAXW4ofPrimitiveMode@@@Z
	?usingColors@ofMesh@@UEBA_NXZ
	?usingIndices@ofMesh@@UEBA_NXZ
	?usingNormals@ofMesh@@UEBA_NXZ
	?usingTextures@ofMesh@@UEBA_NXZ
	?boom@ofNode@@QEAAXM@Z
	?getGlobalTransformMatrix@ofNode@@QEBA?AVofMatrix4x4@@XZ
	?getPosition@ofNode@@QEBA?AVofVec3f@@XZ
	?lookAt@ofNode@@QEAAXAEBVofVec3f@@@Z
	?setPosition@ofNode@@QEAAXAEBVofVec3f@@@Z
	?setScale@ofNode@@QEAAXMMM@Z
	?add@ofParameterGroup@@QEAAXAEAVofAbstractParameter@@@Z
	?clear@ofParameterGroup@@QEAAXXZ
	?fromString@ofParameterGroup@@UEAAXAEBV?$basic_string@DU?$char_traits@D@std@@V?$allocator@D@2@@std@@@Z
	?getEscapedName@ofParameterGroup@@UEBA?AV?$basic_string@DU?$char_traits@D@std@@V?$allocator@D@2@@std@@XZ
	?getFirstParent@ofParameterGroup@@EEBA?BV1@XZ
	?getFloat@ofParameterGroup@@QEBAAEBV?$ofParameter@M@@AEBV?$basic_string@DU?$char_traits@D@std@@V?$allocator@D@2@@std@@@Z
	?getInternalObject@ofParameterGroup@@MEBAPEBXXZ
	?getName@ofParameterGroup@@UEBA?AV?$basic_string@DU?$char_traits@D@std@@V?$allocator@D@2@@std@@XZ
	?isReadOnly@ofParameterGroup@@UEBA_NXZ
	?isSerializable@ofParameterGroup@@UEBA_NXZ
	?newReference@ofParameterGroup@@UEBA?AV?$shared_ptr@VofAbstractParameter@@@std@@XZ
	?setName@ofParameterGroup@@UEAAXAEBV?$basic_string@DU?$char_traits@D@std@@V?$allocator@D@2@@std@@@Z
	?setParent@ofParameterGroup@@UEAAXAEAV1@@Z
	?setSerializable@ofParameterGroup@@UEAAX_N@Z
	?toString@ofParameterGroup@@UEBA?AV?$basic_string@DU?$char_traits@D@std@@V?$allocator@D@2@@std@@XZ
	?notifyParameterChanged@Value@ofParameterGroup@@QEAAXAEAVofAbstractParameter@@@Z
	?arc@ofPath@@QEAAXAEBVofVec3f@@MMMM@Z
	?close@ofPath@@QEAAXXZ
	?draw@ofPath@@QEBAXXZ
	?setCircleResolution@ofPath@@QEAAXH@Z
	?setFillColor@ofPath@@QEAAXAEBV?$ofColor_@E@@@Z
	?setFilled@ofPath@@QEAAX_N@Z
	?set@ofPlanePrimitive@@QEAAXMMHHW4ofPrimitiveMode@@@Z
	?addVertex@ofPolyline@@QEAAXAEBVofVec3f@@@Z
	?addVertex@ofPolyline@@QEAAXMMM@Z
	?clear@ofPolyline@@QEAAXXZ
	?close@ofPolyline@@QEAAXXZ
	?draw@ofPolyline@@QEBAXXZ
	?getVertices@ofPolyline@@QEBAAEBV?$vector@VofVec3f@@V?$allocator@VofVec3f@@@std@@@std@@XZ
	?getEuler@ofQuaternion@@QEBA?AVofVec3f@@XZ
	?makeRotate@ofQuaternion@@QEAAXAEBVofVec3f@@0@Z
	?makeRotate@ofQuaternion@@QEAAXMAEBVofVec3f@@@Z
	?set@ofQuaternion@@QEAAXAEBVofMatrix4x4@@@Z
	?getBottomLeft@ofRectangle@@QEBA?AVofVec3f@@XZ
	?getBottomRight@ofRectangle@@QEBA?AVofVec3f@@XZ
	?getCenter@ofRectangle@@QEBA?AVofVec3f@@XZ
	?getHeight@ofRectangle@@QEBAMXZ
	?getTopRight@ofRectangle@@QEBA?AVofVec3f@@XZ
	?getWidth@ofRectangle@@QEBAMXZ
	?inside@ofRectangle@@QEBA_NAEBVofVec3f@@@Z
	?close@ofSerial@@QEAAXXZ
	?isInitialized@ofSerial@@QEBA_NXZ
	?setup@ofSerial@@QEAA_NV?$basic_string@DU?$char_traits@D@std@@V?$allocator@D@2@@std@@H@Z
	?writeBytes@ofSerial@@QEAAJPEBE_K@Z
	?begin@ofShader@@QEBAXXZ
	?end@ofShader@@QEBAXXZ
	?setUniform1f@ofShader@@QEBAXAEBV?$basic_string@DU?$char_traits@D@std@@V?$allocator@D@2@@std@@M@Z
	?setUniform1i@ofShader@@QEBAXAEBV?$basic_string@DU?$char_traits@D@std@@V?$allocator@D@2@@std@@H@Z
	?setUniform2f@ofShader@@QEBAXAEBV?$basic_string@DU?$char_traits@D@std@@V?$allocator@D@2@@std@@AEBVofVec2f@@@Z
	?setUniform3f@ofShader@@QEBAXAEBV?$basic_string@DU?$char_traits@D@std@@V?$allocator@D@2@@std@@AEBVofVec3f@@@Z
	?setUniform4f@ofShader@@QEBAXAEBV?$basic_string@DU?$char_traits@D@std@@V?$allocator@D@2@@std@@AEBV?$ofColor_@M@@@Z
	?setUniformMatrix4f@ofShader@@QEBAXAEBV?$basic_string@DU?$char_traits@D@std@@V?$allocator@D@2@@std@@AEBVofMatrix4x4@@H@Z
	?setUniformTexture@ofShader@@QEBAXAEBV?$basic_string@DU?$char_traits@D@std@@V?$allocator@D@2@@std@@AEBVofTexture@@H@Z
	?bind@ofTexture@@QEBAXH@Z
	?clear@ofTexture@@QEAAXXZ
	?isAllocated@ofTexture@@QEBA_NXZ
	?loadData@ofTexture@@QEAAXAEBV?$ofPixels_@E@@@Z
	?loadData@ofTexture@@QEAAXAEBV?$ofPixels_@G@@@Z
	?loadData@ofTexture@@QEAAXAEBV?$ofPixels_@M@@@Z
	?readToPixels@ofTexture@@QEBAXAEAV?$ofPixels_@M@@@Z
	?setTextureMinMagFilter@ofTexture@@QEAAXHH@Z
	?unbind@ofTexture@@QEBAXH@Z
	?drawString@ofTrueTypeFont@@QEBAXAEBV?$basic_string@DU?$char_traits@D@std@@V?$allocator@D@2@@std@@MM@Z
	?getStringBoundingBox@ofTrueTypeFont@@QEBA?AVofRectangle@@AEBV?$basic_string@DU?$char_traits@D@std@@V?$allocator@D@2@@std@@MM_N@Z
	?handleRequest@ofURLFileLoader@@QEAA?AVofHttpResponse@@AEAVofHttpRequest@@@Z
	?draw@ofVbo@@QEBAXHHH@Z
	?setIndexData@ofVbo@@QEAAXPEBIHH@Z
	?setVertexData@ofVbo@@QEAAXPEBVofVec2f@@HH@Z
	?setVertexData@ofVbo@@QEAAXPEBVofVec3f@@HH@Z
	??0Register@ofxAssets@@QEAA@XZ
	?font@ofxAssets@@YAAEAVofTrueTypeFont@@AEBV?$basic_string@DU?$char_traits@D@std@@V?$allocator@D@2@@std@@H@Z
	?image@ofxAssets@@YAAEAV?$ofImage_@E@@AEBV?$basic_string@DU?$char_traits@D@std@@V?$allocator@D@2@@std@@@Z
	?shader@ofxAssets@@YAAEAVofShader@@AEBV?$basic_string@DU?$char_traits@D@std@@V?$allocator@D@2@@std@@@Z
	?sound@ofxAssets@@YAAEAVofSoundPlayer@@AEBV?$basic_string@DU?$char_traits@D@std@@V?$allocator@D@2@@std@@@Z
	?addAddon@Register@ofxAssets@@QEAAXV?$basic_string@DU?$char_traits@D@std@@V?$allocator@D@2@@std@@@Z
	?getShaderPointer@Register@ofxAssets@@QEAA?AV?$shared_ptr@VShader@ofxAssets@@@std@@V?$basic_string@DU?$char_traits@D@std@@V?$allocator@D@2@@4@@Z
	?getSingletonStore@?$Singleton@VRegister@ofxAssets@@@ofxSingleton@@SAAEAVSingletonStore@12@XZ
	?copy@ofxClipboard@@YAXAEBV?$basic_string@DU?$char_traits@D@std@@V?$allocator@D@2@@std@@@Z
	?calibrateProjector@ofxCv@@YAMAEAVMat@cv@@00V?$vector@VofVec3f@@V?$allocator@VofVec3f@@@std@@@std@@V?$vector@VofVec2f@@V?$allocator@VofVec2f@@@std@@@5@HH_NMM3H@Z
	?findChessboardCornersPreTest@ofxCv@@YA_NVMat@cv@@V?$Size_@H@3@AEAV?$vector@V?$Point_@M@cv@@V?$allocator@V?$Point_@M@cv@@@std@@@std@@H@Z
	?getMaxVal@ofxCv@@YAMAEBVMat@cv@@@Z
	?makeCheckerboardMesh@ofxCv@@YA?AVofMesh@@V?$Size_@H@cv@@M_N@Z
	?makeCheckerboardPoints@ofxCv@@YA?AV?$vector@V?$Point3_@M@cv@@V?$allocator@V?$Point3_@M@cv@@@std@@@std@@V?$Size_@H@cv@@M_N@Z
	?makeMatrix@ofxCv@@YA?AVofMatrix4x4@@VMat@cv@@0@Z
	?toCv@ofxCv@@YA?AVMat@cv@@AEAV23@@Z
	?toCv@ofxCv@@YAAEAV?$Point_@M@cv@@AEAVofVec2f@@@Z
	?toCv@ofxCv@@YAAEAV?$Point3_@M@cv@@AEAVofVec3f@@@Z
	?toCv@ofxCv@@YAAEAV?$vector@V?$Point_@M@cv@@V?$allocator@V?$Point_@M@cv@@@std@@@std@@AEAV?$vector@VofVec2f@@V?$allocator@VofVec2f@@@std@@@3@@Z
	?toCv@ofxCv@@YAAEAV?$vector@V?$Point3_@M@cv@@V?$allocator@V?$Point3_@M@cv@@@std@@@std@@AEAV?$vector@VofVec3f@@V?$allocator@VofVec3f@@@std@@@3@@Z
	?toCv@ofxCv@@YAAEAV?$vector@V?$vector@V?$Point_@M@cv@@V?$allocator@V?$Point_@M@cv@@@std@@@std@@V?$allocator@V?$vector@V?$Point_@M@cv@@V?$allocator@V?$Point_@M@cv@@@std@@@std@@@2@@std@@AEAV?$vector@V?$vector@VofVec2f@@V?$allocator@VofVec2f@@@std@@@std@@V?$allocator@V?$vector@VofVec2f@@V?$allocator@VofVec2f@@@std@@@std@@@2@@3@@Z
	?toCv@ofxCv@@YAAEAV?$vector@V?$vector@V?$Point3_@M@cv@@V?$allocator@V?$Point3_@M@cv@@@std@@@std@@V?$allocator@V?$vector@V?$Point3_@M@cv@@V?$allocator@V?$Point3_@M@cv@@@std@@@std@@@2@@std@@AEAV?$vector@V?$vector@VofVec3f@@V?$allocator@VofVec3f@@@std@@@std@@V?$allocator@V?$vector@VofVec3f@@V?$allocator@VofVec3f@@@std@@@std@@@2@@3@@Z
	?toCv@ofxCv@@YAAEBV?$Point_@M@cv@@AEBVofVec2f@@@Z
	?toCv@ofxCv@@YAAEBV?$Point3_@M@cv@@AEBVofVec3f@@@Z
	?toCv@ofxCv@@YAAEBV?$vector@V?$Point_@M@cv@@V?$allocator@V?$Point_@M@cv@@@std@@@std@@AEBV?$vector@VofVec2f@@V?$allocator@VofVec2f@@@std@@@3@@Z
	?toCv@ofxCv@@YAAEBV?$vector@V?$Point3_@M@cv@@V?$allocator@V?$Point3_@M@cv@@@std@@@std@@AEBV?$vector@VofVec3f@@V?$allocator@VofVec3f@@@std@@@3@@Z
	?toOf@ofxCv@@YA?AVofRectangle@@V?$Rect_@H@cv@@@Z
	?toOf@ofxCv@@YAAEAV?$vector@VofVec2f@@V?$allocator@VofVec2f@@@std@@@std@@AEAV?$vector@V?$Point_@M@cv@@V?$allocator@V?$Point_@M@cv@@@std@@@3@@Z
	?toOf@ofxCv@@YAAEAV?$vector@VofVec3f@@V?$allocator@VofVec3f@@@std@@@std@@AEAV?$vector@V?$Point3_@M@cv@@V?$allocator@V?$Point3_@M@cv@@@std@@@3@@Z
	?toOf@ofxCv@@YAAEAVofVec2f@@AEAV?$Point_@M@cv@@@Z
	?toOf@ofxCv@@YAAEAVofVec3f@@AEAV?$Point3_@M@cv@@@Z
	?toOf@ofxCv@@YAAEBV?$vector@VofVec2f@@V?$allocator@VofVec2f@@@std@@@std@@AEBV?$vector@V?$Point_@M@cv@@V?$allocator@V?$Point_@M@cv@@@std@@@3@@Z
	?toOf@ofxCv@@YAAEBV?$vector@VofVec3f@@V?$allocator@VofVec3f@@@std@@@std@@AEBV?$vector@V?$Point3_@M@cv@@V?$allocator@V?$Point3_@M@cv@@@std@@@3@@Z
	?toOf@ofxCv@@YAAEBVofVec2f@@AEBV?$Point_@M@cv@@@Z
	?toOf@ofxCv@@YAAEBVofVec3f@@AEBV?$Point3_@M@cv@@@Z
	?undistortPixelCoordinates@ofxCv@@YA?AV?$vector@V?$Point_@M@cv@@V?$allocator@V?$Point_@M@cv@@@std@@@std@@AEBV23@VMat@cv@@1@Z
	??0Controller@ofxCvGui@@QEAA@XZ
	??0Element@ofxCvGui@@QEAA@XZ
	?getDefaultTypeface@ofxCvGui@@YA?AV?$basic_string@DU?$char_traits@D@std@@V?$allocator@D@2@@std@@XZ
	?makeElement@ofxCvGui@@YA?AV?$shared_ptr@VElement@ofxCvGui@@@std@@XZ
	?init@Builder@ofxCvGui@@QEAAXXZ
	?drawDelayed@Controller@ofxCvGui@@QEAAX$$QEAV?$function@$$A6AXXZ@std@@@Z
	?addChild@Element@ofxCvGui@@QEAAXV?$shared_ptr@VElement@ofxCvGui@@@std@@@Z
	?addListenersToParent@Element@ofxCvGui@@QEAAXPEAV12@_N@Z
	?getBounds@Element@ofxCvGui@@QEBAAEBVofRectangle@@XZ
	?getCaption@Element@ofxCvGui@@QEBAAEBV?$basic_string@DU?$char_traits@D@std@@V?$allocator@D@2@@std@@XZ
	?getHeight@Element@ofxCvGui@@QEBAMXZ
	?getMouseState@Element@ofxCvGui@@QEBA?AW4LocalMouseState@12@XZ
	?getWidth@Element@ofxCvGui@@QEBAMXZ
	?isMouseDragging@Element@ofxCvGui@@QEBA_NXZ
	?isMouseOver@Element@ofxCvGui@@QEBA_NXZ
	?setBounds@Element@ofxCvGui@@QEAAXAEBVofRectangle@@@Z
	?setCaption@Element@ofxCvGui@@QEAAXV?$basic_string@DU?$char_traits@D@std@@V?$allocator@D@2@@std@@@Z
	?setEnabled@Element@ofxCvGui@@QEAAX_N@Z
	?setHeight@Element@ofxCvGui@@QEAAXM@Z
	?isBeingInspected@IInspectable@ofxCvGui@@QEBA_NXZ
	?isDragging@MouseArguments@ofxCvGui@@QEBA_NPEAX@Z
	?isDragging@MouseArguments@ofxCvGui@@QEBA_NV?$shared_ptr@VElement@ofxCvGui@@@std@@@Z
	?takeMousePress@MouseArguments@ofxCvGui@@QEAA_NPEAX@Z
	?takeMousePress@MouseArguments@ofxCvGui@@QEAA_NV?$shared_ptr@VElement@ofxCvGui@@@std@@@Z
	??0Base@Panels@ofxCvGui@@QEAA@XZ
	??0Draws@Panels@ofxCvGui@@QEAA@AEAVofBaseDraws@@@Z
	??0Draws@Panels@ofxCvGui@@QEAA@XZ
	??0Image@Panels@ofxCvGui@@QEAA@AEAVofAbstractImage@@@Z
	??0Scroll@Panels@ofxCvGui@@QEAA@XZ
	??0Texture@Panels@ofxCvGui@@QEAA@AEBVofTexture@@@Z
	?makeBaseDraws@Panels@ofxCvGui@@YA?AV?$shared_ptr@VDraws@Panels@ofxCvGui@@@std@@AEAVofBaseDraws@@V?$basic_string@DU?$char_traits@D@std@@V?$allocator@D@2@@4@@Z
	?makeBlank@Panels@ofxCvGui@@YA?AV?$shared_ptr@VBase@Panels@ofxCvGui@@@std@@V?$basic_string@DU?$char_traits@D@std@@V?$allocator@D@2@@4@@Z
	?makeImage@Panels@ofxCvGui@@YA?AV?$shared_ptr@VImage@Panels@ofxCvGui@@@std@@AEAV?$ofImage_@E@@V?$basic_string@DU?$char_traits@D@std@@V?$allocator@D@2@@4@@Z
	?makeTexture@Panels@ofxCvGui@@YA?AV?$shared_ptr@VTexture@Panels@ofxCvGui@@@std@@AEBVofTexture@@V?$basic_string@DU?$char_traits@D@std@@V?$allocator@D@2@@4@@Z
	?makeWidgets@Panels@ofxCvGui@@YA?AV?$shared_ptr@VWidgets@Panels@ofxCvGui@@@std@@V?$basic_string@DU?$char_traits@D@std@@V?$allocator@D@2@@4@@Z
	?addToolBarElement@Base@Panels@ofxCvGui@@QEAA?AV?$shared_ptr@VElement@ofxCvGui@@@std@@AEBV?$basic_string@DU?$char_traits@D@std@@V?$allocator@D@2@@5@$$QEAV?$function@$$A6AXXZ@5@@Z
	?getZoomFactor@BaseImage@Panels@ofxCvGui@@QEBAMXZ
	?clearDrawObject@Draws@Panels@ofxCvGui@@QEAAXXZ
	?setDrawObject@Draws@Panels@ofxCvGui@@QEAAXAEAVofBaseDraws@@@Z
	??0Grid@Groups@Panels@ofxCvGui@@QEAA@XZ
	??0Strip@Groups@Panels@ofxCvGui@@QEAA@W4Direction@0123@@Z
	?makeGrid@Groups@Panels@ofxCvGui@@YA?AV?$shared_ptr@VGrid@Groups@Panels@ofxCvGui@@@std@@XZ
	?makeStrip@Groups@Panels@ofxCvGui@@YA?AV?$shared_ptr@VStrip@Groups@Panels@ofxCvGui@@@std@@W4Direction@Strip@123@@Z
	?setDirection@Strip@Groups@Panels@ofxCvGui@@QEAAXW4Direction@1234@@Z
	?setImage@Image@Panels@ofxCvGui@@QEAAXAEAVofAbstractImage@@@Z
	?add@Scroll@Panels@ofxCvGui@@QEAAXV?$shared_ptr@VElement@ofxCvGui@@@std@@@Z
	?clear@Scroll@Panels@ofxCvGui@@QEAAXXZ
	?add@?$ElementGroup_@VBase@Panels@ofxCvGui@@@ofxCvGui@@QEAAXV?$shared_ptr@VBase@Panels@ofxCvGui@@@std@@@Z
	?clear@?$ElementGroup_@VBase@Panels@ofxCvGui@@@ofxCvGui@@QEAAXXZ
	?getInstance@?$UnmanagedSingleton@VWidgetsBuilder@Panels@ofxCvGui@@@ofxSingleton@@SA?AV?$shared_ptr@VWidgetsBuilder@Panels@ofxCvGui@@@std@@XZ
	?addButton@Widgets@Panels@ofxCvGui@@QEAA?AV?$shared_ptr@VButton@Widgets@ofxCvGui@@@std@@AEBV?$basic_string@DU?$char_traits@D@std@@V?$allocator@D@2@@5@AEBV?$function@$$A6AXXZ@5@D@Z
	?addIndicator@Widgets@Panels@ofxCvGui@@QEAA?AV?$shared_ptr@VIndicator@Widgets@ofxCvGui@@@std@@AEBV?$basic_string@DU?$char_traits@D@std@@V?$allocator@D@2@@5@AEBV?$function@$$A6A?AW4Status@Indicator@Widgets@ofxCvGui@@XZ@5@@Z
	?addMultipleChoice@Widgets@Panels@ofxCvGui@@QEAA?AV?$shared_ptr@VMultipleChoice@Widgets@ofxCvGui@@@std@@AEBV?$basic_string@DU?$char_traits@D@std@@V?$allocator@D@2@@5@@Z
	?addParameterGroup@Widgets@Panels@ofxCvGui@@QEAAXAEAVofParameterGroup@@H@Z
	?addSpacer@Widgets@Panels@ofxCvGui@@QEAA?AV?$shared_ptr@VSpacer@Widgets@ofxCvGui@@@std@@_N@Z
	?addTitle@Widgets@Panels@ofxCvGui@@QEAA?AV?$shared_ptr@VTitle@Widgets@ofxCvGui@@@std@@AEBV?$basic_string@DU?$char_traits@D@std@@V?$allocator@D@2@@5@W4Level@Title@13@@Z
	?addToggle@Widgets@Panels@ofxCvGui@@QEAA?AV?$shared_ptr@VToggle@Widgets@ofxCvGui@@@std@@AEAV?$ofParameter@_N@@@Z
	??0ScissorManager@Utils@ofxCvGui@@QEAA@XZ
	?drawProcessingNotice@Utils@ofxCvGui@@YAXV?$basic_string@DU?$char_traits@D@std@@V?$allocator@D@2@@std@@@Z
	?drawText@Utils@ofxCvGui@@YA?AVofRectangle@@AEBV?$basic_string@DU?$char_traits@D@std@@V?$allocator@D@2@@std@@AEBV3@_N2@Z
	?drawText@Utils@ofxCvGui@@YA?AVofRectangle@@AEBV?$basic_string@DU?$char_traits@D@std@@V?$allocator@D@2@@std@@MM_NMM1@Z
	?getBeatingSelectionColor@Utils@ofxCvGui@@YA?AV?$ofColor_@E@@XZ
	?getScissorEnabled@ScissorManager@Utils@ofxCvGui@@QEBA_NXZ
	?setScissorEnabled@ScissorManager@Utils@ofxCvGui@@QEAAX_N@Z
	?getSingletonStore@?$Singleton@VScissorManager@Utils@ofxCvGui@@@ofxSingleton@@SAAEAVSingletonStore@12@XZ
	?getSingletonStore@?$Singleton@VController@ofxCvGui@@@ofxSingleton@@SAAEAVSingletonStore@12@XZ
	?add@?$ElementGroup_@VElement@ofxCvGui@@@ofxCvGui@@QEAAXV?$shared_ptr@VElement@ofxCvGui@@@std@@@Z
	?clear@?$ElementGroup_@VElement@ofxCvGui@@@ofxCvGui@@QEAAXXZ
	?getElements@?$ElementGroup_@VElement@ofxCvGui@@@ofxCvGui@@QEAAAEAV?$vector@V?$shared_ptr@VElement@ofxCvGui@@@std@@V?$allocator@V?$shared_ptr@VElement@ofxCvGui@@@std@@@2@@std@@XZ
	??0?$ElementGroup_@VElement@ofxCvGui@@@ofxCvGui@@QEAA@XZ
	??1?$ElementGroup_@VElement@ofxCvGui@@@ofxCvGui@@UEAA@XZ
	??0Button@Widgets@ofxCvGui@@QEAA@V?$basic_string@DU?$char_traits@D@std@@V?$allocator@D@2@@std@@V?$function@$$A6AXXZ@4@D@Z
	??0Indicator@Widgets@ofxCvGui@@QEAA@V?$basic_string@DU?$char_traits@D@std@@V?$allocator@D@2@@std@@V?$function@$$A6A?AW4Status@Indicator@Widgets@ofxCvGui@@XZ@4@@Z
	??0MultipleChoice@Widgets@ofxCvGui@@QEAA@AEBV?$basic_string@DU?$char_traits@D@std@@V?$allocator@D@2@@std@@@Z
	??0SelectFile@Widgets@ofxCvGui@@QEAA@AEAV?$ofParameter@Vpath@filesystem@boost@@@@@Z
	??0Slider@Widgets@ofxCvGui@@QEAA@AEAV?$ofParameter@M@@@Z
	??0Spacer@Widgets@ofxCvGui@@QEAA@XZ
	??0Title@Widgets@ofxCvGui@@QEAA@V?$basic_string@DU?$char_traits@D@std@@V?$allocator@D@2@@std@@W4Level@012@@Z
	??0Toggle@Widgets@ofxCvGui@@QEAA@AEAV?$ofParameter@_N@@D@Z
	?addOption@MultipleChoice@Widgets@ofxCvGui@@QEAAXV?$basic_string@DU?$char_traits@D@std@@V?$allocator@D@2@@std@@@Z
	?addOptions@MultipleChoice@Widgets@ofxCvGui@@QEAAXV?$initializer_list@V?$basic_string@DU?$char_traits@D@std@@V?$allocator@D@2@@std@@@std@@@Z
	?getSelection@MultipleChoice@Widgets@ofxCvGui@@QEBA?AV?$basic_string@DU?$char_traits@D@std@@V?$allocator@D@2@@std@@XZ
	?getSelectionIndex@MultipleChoice@Widgets@ofxCvGui@@QEBAHXZ
	?setSelection@MultipleChoice@Widgets@ofxCvGui@@QEAAXH@Z
	?setSelection@MultipleChoice@Widgets@ofxCvGui@@QEAAXV?$basic_string@DU?$char_traits@D@std@@V?$allocator@D@2@@std@@@Z
	?addIntValidator@Slider@Widgets@ofxCvGui@@QEAAXXZ
	?toGLM@ofxGLM@@YAAEAU?$tvec3@M@detail@glm@@AEAVofVec3f@@@Z
	?toOf@ofxGLM@@YAAEBVofQuaternion@@AEBU?$tquat@M@detail@glm@@@Z
	?getCursorWorld@ofxGrabCam@@QEBAAEBVofVec3f@@XZ
	??0BaseCodec@ofxGraycode@@QEAA@XZ
	??0DataSet@ofxGraycode@@QEAA@XZ
	??5Encoder@ofxGraycode@@QEAA_NAEAV?$ofImage_@E@@@Z
	??6Decoder@ofxGraycode@@QEAAXAEBV?$ofPixels_@E@@@Z
	?init@BaseCodec@ofxGraycode@@QEAAXV?$shared_ptr@VBase@Payload@ofxGraycode@@@std@@@Z
	??9const_iterator@DataSet@ofxGraycode@@QEBA_NAEBU012@@Z
	??Dconst_iterator@DataSet@ofxGraycode@@QEBA?AUreference@012@XZ
	??Econst_iterator@DataSet@ofxGraycode@@QEAAXXZ
	?begin@DataSet@ofxGraycode@@QEBA?AUconst_iterator@12@XZ
	?end@DataSet@ofxGraycode@@QEBA?AUconst_iterator@12@XZ
	?getActive@DataSet@ofxGraycode@@QEBAAEBV?$ofPixels_@E@@XZ
	?getData@DataSet@ofxGraycode@@QEBAAEBV?$ofPixels_@I@@XZ
	?getDataInverse@DataSet@ofxGraycode@@QEAAAEAV?$ofPixels_@I@@XZ
	?getFilename@DataSet@ofxGraycode@@QEBAAEBV?$basic_string@DU?$char_traits@D@std@@V?$allocator@D@2@@std@@XZ
	?getHasData@DataSet@ofxGraycode@@QEBA_NXZ
	?getHeight@DataSet@ofxGraycode@@QEBAIXZ
	?getMedian@DataSet@ofxGraycode@@QEBAAEBV?$ofPixels_@E@@XZ
	?getMedianInverse@DataSet@ofxGraycode@@QEBAAEBV?$ofPixels_@E@@XZ
	?getPayloadHeight@DataSet@ofxGraycode@@QEBAIXZ
	?getPayloadWidth@DataSet@ofxGraycode@@QEBAIXZ
	?getWidth@DataSet@ofxGraycode@@QEBAIXZ
	?getCameraXY@reference@const_iterator@DataSet@ofxGraycode@@QEBA?AVofVec2f@@XZ
	?getProjectorXY@reference@const_iterator@DataSet@ofxGraycode@@QEBA?AVofVec2f@@XZ
	?clear@Decoder@ofxGraycode@@UEAAXXZ
	?draw@Decoder@ofxGraycode@@UEBAXMM@Z
	?draw@Decoder@ofxGraycode@@UEBAXMMMM@Z
	?getCameraInProjector@Decoder@ofxGraycode@@QEAAAEAV?$ofImage_@E@@XZ
	?getDataSet@Decoder@ofxGraycode@@QEBAAEBVDataSet@2@XZ
	?getHeight@Decoder@ofxGraycode@@UEBAMXZ
	?getProjectorInCamera@Decoder@ofxGraycode@@QEAAAEAV?$ofImage_@E@@XZ
	?getWidth@Decoder@ofxGraycode@@UEBAMXZ
	?setThreshold@Decoder@ofxGraycode@@QEAAXE@Z
	?clear@Encoder@ofxGraycode@@UEAAXXZ
	??0Base@Payload@ofxGraycode@@QEAA@XZ
	?getFrameCount@Base@Payload@ofxGraycode@@QEBAIXZ
	?getHeight@Base@Payload@ofxGraycode@@QEBAIXZ
	?getWidth@Base@Payload@ofxGraycode@@QEBAIXZ
	?init@Base@Payload@ofxGraycode@@QEAAXII@Z
	?calc@Graycode@Payload@ofxGraycode@@UEBAXAEBV?$vector@V?$ofPixels_@E@@V?$allocator@V?$ofPixels_@E@@@std@@@std@@AEAVDataSet@3@@Z
	?fillPixels@Graycode@Payload@ofxGraycode@@UEBAXIAEAV?$ofPixels_@E@@@Z
	?getImageType@Graycode@Payload@ofxGraycode@@UEBA?AW4ofImageType@@XZ
	?getType@Graycode@Payload@ofxGraycode@@UEBA?AW4Type@23@XZ
	?prepare@Graycode@Payload@ofxGraycode@@MEAAXXZ
	??0Specification@ofxMachineVision@@QEAA@AEBV01@@Z
	??0Specification@ofxMachineVision@@QEAA@W4CaptureSequenceType@1@HHV?$basic_string@DU?$char_traits@D@std@@V?$allocator@D@2@@std@@11@Z
	??0Specification@ofxMachineVision@@QEAA@XZ
	??0FactoryRegister@Device@ofxMachineVision@@QEAA@XZ
	?getSingletonStore@?$Singleton@VFactoryRegister@Device@ofxMachineVision@@@ofxSingleton@@SAAEAVSingletonStore@12@XZ
	?getAvailableAllocatedFrame@FramePool@ofxMachineVision@@QEAA?AV?$shared_ptr@VFrame@ofxMachineVision@@@std@@HHW4ofPixelFormat@@@Z
	?getAvailableFrameFilledWith@FramePool@ofxMachineVision@@QEAA?AV?$shared_ptr@VFrame@ofxMachineVision@@@std@@AEBV?$ofPixels_@E@@@Z
	?getAvailableFrameFilledWith@FramePool@ofxMachineVision@@QEAA?AV?$shared_ptr@VFrame@ofxMachineVision@@@std@@PEBE_K1W4ofPixelFormat@@@Z
	?getDevice@Base@Grabber@ofxMachineVision@@QEBA?AV?$shared_ptr@VBase@Device@ofxMachineVision@@@std@@XZ
	?getFrame@Simple@Grabber@ofxMachineVision@@QEBA?AV?$shared_ptr@VFrame@ofxMachineVision@@@std@@XZ
	?getFreshFrame@Simple@Grabber@ofxMachineVision@@QEAA?AV?$shared_ptr@VFrame@ofxMachineVision@@@std@@V?$duration@_JU?$ratio@$00$0PECEA@@std@@@chrono@5@@Z
	?isSingleShot@Simple@Grabber@ofxMachineVision@@QEBA_NXZ
	?supports@Specification@ofxMachineVision@@QEBA_NAEBW4CaptureSequenceType@2@@Z
	?getInstance@?$UnmanagedSingleton@VFramePool@ofxMachineVision@@@ofxSingleton@@SA?AV?$shared_ptr@VFramePool@ofxMachineVision@@@std@@XZ
	??0Algorithm@ofxNonLinearFit@@QEAA@W4algorithm@nlopt@@W4Domain@01@@Z
	?getCPPType@Algorithm@ofxNonLinearFit@@UEBA?AW4algorithm@nlopt@@XZ
	?getCType@Algorithm@ofxNonLinearFit@@UEBA?AW4nlopt_algorithm@@XZ
	?getDomain@Algorithm@ofxNonLinearFit@@UEBA?AW4Domain@12@XZ
	?addMessage@ofxOscBundle@@QEAAXAEBVofxOscMessage@@@Z
	?addFloatArg@ofxOscMessage@@QEAAXM@Z
	?addInt32Arg@ofxOscMessage@@QEAAXH@Z
	?addIntArg@ofxOscMessage@@QEAAXH@Z
	?sendBundle@ofxOscSender@@QEAAXAEAVofxOscBundle@@@Z
	?sendMessage@ofxOscSender@@QEAAXAEAVofxOscMessage@@_N@Z
	?setup@ofxOscSender@@QEAAXAEBV?$basic_string@DU?$char_traits@D@std@@V?$allocator@D@2@@std@@H@Z
	??0Plane@ofxRay@@QEAA@XZ
	??0Ray@ofxRay@@QEAA@VofVec3f@@0_N@Z
	??0Ray@ofxRay@@QEAA@VofVec3f@@0V?$ofColor_@E@@_N@Z
	??0Ray@ofxRay@@QEAA@XZ
	?draw@Plane@ofxRay@@UEBAXXZ
	?fitToPoints@Plane@ofxRay@@QEAA_NAEBV?$vector@VofVec3f@@V?$allocator@VofVec3f@@@std@@@std@@AEAM@Z
	?getABCD@Plane@ofxRay@@QEBA?AVofVec4f@@XZ
	?getCenter@Plane@ofxRay@@QEBAAEBVofVec3f@@XZ
	?getDistanceTo@Plane@ofxRay@@QEBAMAEBVofVec3f@@@Z
	?getNormal@Plane@ofxRay@@QEBAAEBVofVec3f@@XZ
	?intersect@Plane@ofxRay@@QEBA_NAEBVRay@2@AEAVofVec3f@@@Z
	?randomiseVectors@Plane@ofxRay@@UEAAXM@Z
	?reflect@Plane@ofxRay@@QEBA?AVofVec3f@@AEBV3@@Z
	?setCenter@Plane@ofxRay@@QEAAXAEBVofVec3f@@@Z
	?setInfinite@Plane@ofxRay@@QEAAX_N@Z
	?setNormal@Plane@ofxRay@@QEAAXAEBVofVec3f@@@Z
	?setScale@Plane@ofxRay@@QEAAXAEBVofVec2f@@@Z
	?setUp@Plane@ofxRay@@QEAAXAEBVofVec3f@@@Z
	?beginAsCamera@Projector@ofxRay@@QEBAX_N@Z
	?castPixel@Projector@ofxRay@@QEBA?AVRay@2@AEBVofVec2f@@@Z
	?endAsCamera@Projector@ofxRay@@QEBAXXZ
	?getClippedProjectionMatrix@Projector@ofxRay@@QEBA?AVofMatrix4x4@@XZ
	?getHeight@Projector@ofxRay@@QEBAHXZ
	?getNormalizedSCoordinateOfWorldPosition@Projector@ofxRay@@QEBA?AVofVec3f@@V3@@Z
	?getProjectionMatrix@Projector@ofxRay@@QEBA?AVofMatrix4x4@@XZ
	?getViewMatrix@Projector@ofxRay@@QEBA?AVofMatrix4x4@@XZ
	?getWidth@Projector@ofxRay@@QEBAHXZ
	?distanceTo@Ray@ofxRay@@QEBAMAEBVofVec3f@@@Z
	?draw@Ray@ofxRay@@UEBAXXZ
	?getEnd@Ray@ofxRay@@QEBA?AVofVec3f@@XZ
	?getMidpoint@Ray@ofxRay@@QEBA?AVofVec3f@@XZ
	?getStart@Ray@ofxRay@@QEBAAEBVofVec3f@@XZ
	?intersect@Ray@ofxRay@@QEBA?AV12@AEBV12@@Z
	?randomiseVectors@Ray@ofxRay@@UEAAXM@Z
	?setEnd@Ray@ofxRay@@QEAAXAEBVofVec3f@@@Z
	??0Exception@ofxRulr@@QEAA@AEBV?$basic_string@DU?$char_traits@D@std@@V?$allocator@D@2@@std@@@Z
	?what@Exception@ofxRulr@@UEBAPEBDXZ
	??0AbstractPin@Graph@ofxRulr@@QEAA@V?$basic_string@DU?$char_traits@D@std@@V?$allocator@D@2@@std@@@Z
	??0World@Graph@ofxRulr@@QEAA@XZ
	?getName@AbstractPin@Graph@ofxRulr@@QEBA?AV?$basic_string@DU?$char_traits@D@std@@V?$allocator@D@2@@std@@XZ
	??0Patch@Editor@Graph@ofxRulr@@QEAA@XZ
	?setup@PinView@Editor@Graph@ofxRulr@@QEAAXAEAVBase@Nodes@4@@Z
	?getSingletonStore@?$Singleton@VFactoryRegister@Graph@ofxRulr@@@ofxSingleton@@SAAEAVSingletonStore@12@XZ
	?getSingletonStore@?$Singleton@VWorld@Graph@ofxRulr@@@ofxSingleton@@SAAEAVSingletonStore@12@XZ
	?getWorldStage@World@Graph@ofxRulr@@QEBA?AV?$shared_ptr@VWorldStage@Graph@ofxRulr@@@std@@XZ
	?init@World@Graph@ofxRulr@@QEAAXAEAVController@ofxCvGui@@_N@Z
	?loadAll@World@Graph@ofxRulr@@QEAAX_N@Z
	?getCamera@WorldStage@Graph@ofxRulr@@QEAAAEAVofxGrabCam@@XZ
	??0Base@Nodes@ofxRulr@@QEAA@XZ
	??0GraphicsManager@Nodes@ofxRulr@@QEAA@XZ
	??1Base@Nodes@ofxRulr@@QEAA@XZ
	?loadCoreNodes@Nodes@ofxRulr@@YAXXZ
	?loadPluginNodes@Nodes@ofxRulr@@YAXXZ
	?addInput@Base@Nodes@ofxRulr@@IEAAXV?$shared_ptr@VAbstractPin@Graph@ofxRulr@@@std@@@Z
	?checkDrawOnWorldStage@Base@Nodes@ofxRulr@@QEAA_NAEBVWhenDrawOnWorldStage@3@@Z
	?drawWorldAdvanced@Base@Nodes@ofxRulr@@QEAAXAEAUDrawWorldAdvancedArgs@3@@Z
	?drawWorldStage@Base@Nodes@ofxRulr@@QEAAXXZ
	?getColor@Base@Nodes@ofxRulr@@QEAAAEBV?$ofColor_@E@@XZ
	?getIcon@Base@Nodes@ofxRulr@@QEAAAEBVofBaseDraws@@XZ
	?getInputPins@Base@Nodes@ofxRulr@@QEBAAEBV?$Set@VAbstractPin@Graph@ofxRulr@@@Utils@3@XZ
	?getName@Base@Nodes@ofxRulr@@UEBA?AV?$basic_string@DU?$char_traits@D@std@@V?$allocator@D@2@@std@@XZ
	?getTypeName@Base@Nodes@ofxRulr@@UEBA?AV?$basic_string@DU?$char_traits@D@std@@V?$allocator@D@2@@std@@XZ
	?manageParameters@Base@Nodes@ofxRulr@@QEAAXAEAVofParameterGroup@@_N@Z
	?setIcon@Base@Nodes@ofxRulr@@QEAAXV?$shared_ptr@VImage@ofxAssets@@@std@@@Z
	?throwIfMissingAnyConnection@Base@Nodes@ofxRulr@@QEBAXXZ
	?update@Base@Nodes@ofxRulr@@QEAAXXZ
	??0Mesh@Data@Nodes@ofxRulr@@QEAA@XZ
	?getMesh@Mesh@Data@Nodes@ofxRulr@@QEAAAEAVofMesh@@XZ
	??0MovingHead@DMX@Nodes@ofxRulr@@QEAA@XZ
	??0Transmit@DMX@Nodes@ofxRulr@@QEAA@XZ
	?getMaxTilt@MovingHead@DMX@Nodes@ofxRulr@@QEBAMXZ
	?getPanTilt@MovingHead@DMX@Nodes@ofxRulr@@QEBA?AVofVec2f@@XZ
	?getPanTiltForTargetInObjectSpace@MovingHead@DMX@Nodes@ofxRulr@@SA?AVofVec2f@@AEBVofVec3f@@M@Z
	?lookAt@MovingHead@DMX@Nodes@ofxRulr@@QEAAXAEBVofVec3f@@@Z
	?setBrightness@MovingHead@DMX@Nodes@ofxRulr@@QEAAXM@Z
	?setPanTilt@MovingHead@DMX@Nodes@ofxRulr@@QEAAXAEBVofVec2f@@@Z
	?setTiltOffset@MovingHead@DMX@Nodes@ofxRulr@@QEAAXM@Z
	?getPanel@Transmit@DMX@Nodes@ofxRulr@@UEAA?AV?$shared_ptr@VBase@Panels@ofxCvGui@@@std@@XZ
	?getChannels@Universe@Transmit@DMX@Nodes@ofxRulr@@QEBAPEBEXZ
	?getIcon@GraphicsManager@Nodes@ofxRulr@@QEAA?AV?$shared_ptr@VImage@ofxAssets@@@std@@AEBV?$basic_string@DU?$char_traits@D@std@@V?$allocator@D@2@@5@@Z
	?getTypeName@IHasVertices@Nodes@ofxRulr@@UEBA?AV?$basic_string@DU?$char_traits@D@std@@V?$allocator@D@2@@std@@XZ
	?getVertexCloseToMouse@IHasVertices@Nodes@ofxRulr@@QEBA?AVofVec3f@@M@Z
	?getVertices@IHasVertices@Nodes@ofxRulr@@UEBA?AV?$vector@VofVec3f@@V?$allocator@VofVec3f@@@std@@@std@@XZ
	??0AbstractBoard@Item@Nodes@ofxRulr@@QEAA@XZ
	??0Board@Item@Nodes@ofxRulr@@QEAA@XZ
	??0Camera@Item@Nodes@ofxRulr@@QEAA@XZ
	??0Projector@Item@Nodes@ofxRulr@@QEAA@XZ
	??0RigidBody@Item@Nodes@ofxRulr@@QEAA@XZ
	??0View@Item@Nodes@ofxRulr@@QEAA@_N@Z
	??1Camera@Item@Nodes@ofxRulr@@UEAA@XZ
	?findBoard@AbstractBoard@Item@Nodes@ofxRulr@@UEBA_NVMat@cv@@AEAV?$vector@V?$Point_@M@cv@@V?$allocator@V?$Point_@M@cv@@@std@@@std@@AEAV?$vector@V?$Point3_@M@cv@@V?$allocator@V?$Point3_@M@cv@@@std@@@8@VFindBoardMode@4@00@Z
	?getTypeName@AbstractBoard@Item@Nodes@ofxRulr@@UEBA?AV?$basic_string@DU?$char_traits@D@std@@V?$allocator@D@2@@std@@XZ
	?getObjectPoints@Board@Item@Nodes@ofxRulr@@QEBA?AV?$vector@V?$Point3_@M@cv@@V?$allocator@V?$Point3_@M@cv@@@std@@@std@@XZ
	?getSize@Board@Item@Nodes@ofxRulr@@QEBA?AV?$Size_@H@cv@@XZ
	?getFrame@Camera@Item@Nodes@ofxRulr@@QEAA?AV?$shared_ptr@VFrame@ofxMachineVision@@@std@@XZ
	?getFreshFrame@Camera@Item@Nodes@ofxRulr@@QEAA?AV?$shared_ptr@VFrame@ofxMachineVision@@@std@@XZ
	?getGrabber@Camera@Item@Nodes@ofxRulr@@QEAA?AV?$shared_ptr@VSimple@Grabber@ofxMachineVision@@@std@@XZ
	?drawWorldStage@RigidBody@Item@Nodes@ofxRulr@@QEAAXXZ
	?getExtrinsics@RigidBody@Item@Nodes@ofxRulr@@QEAAXAEAVMat@cv@@0_N@Z
	?getPosition@RigidBody@Item@Nodes@ofxRulr@@QEBA?AVofVec3f@@XZ
	?getRotationEuler@RigidBody@Item@Nodes@ofxRulr@@QEBA?AVofVec3f@@XZ
	?getRotationQuat@RigidBody@Item@Nodes@ofxRulr@@QEBA?AVofQuaternion@@XZ
	?getTransform@RigidBody@Item@Nodes@ofxRulr@@QEBA?AVofMatrix4x4@@XZ
	?setExtrinsics@RigidBody@Item@Nodes@ofxRulr@@QEAAXVMat@cv@@0_N@Z
	?setTransform@RigidBody@Item@Nodes@ofxRulr@@QEAAXAEBVofMatrix4x4@@@Z
	?getCameraMatrix@View@Item@Nodes@ofxRulr@@QEBA?AVMat@cv@@XZ
	?getDistortionCoefficients@View@Item@Nodes@ofxRulr@@QEBA?AVMat@cv@@XZ
	?getHeight@View@Item@Nodes@ofxRulr@@QEBAMXZ
	?getSize@View@Item@Nodes@ofxRulr@@QEBA?AV?$Size_@H@cv@@XZ
	?getViewInWorldSpace@View@Item@Nodes@ofxRulr@@QEBA?AVCamera@ofxRay@@XZ
	?getWidth@View@Item@Nodes@ofxRulr@@QEBAMXZ
	?setHeight@View@Item@Nodes@ofxRulr@@QEAAXM@Z
	?setIntrinsics@View@Item@Nodes@ofxRulr@@QEAAXVMat@cv@@0@Z
	?setWidth@View@Item@Nodes@ofxRulr@@QEAAXM@Z
	??0Graycode@Scan@Procedure@Nodes@ofxRulr@@QEAA@XZ
	?getDataSet@Graycode@Scan@Procedure@Nodes@ofxRulr@@QEBAAEBVDataSet@ofxGraycode@@XZ
	?getDecoder@Graycode@Scan@Procedure@Nodes@ofxRulr@@QEBAAEAVDecoder@ofxGraycode@@XZ
	?hasData@Graycode@Scan@Procedure@Nodes@ofxRulr@@QEBA_NXZ
	?runScan@Graycode@Scan@Procedure@Nodes@ofxRulr@@QEAAXXZ
	??0VideoOutput@System@Nodes@ofxRulr@@QEAA@XZ
	?begin@VideoOutput@System@Nodes@ofxRulr@@QEAAXXZ
	?clearFbo@VideoOutput@System@Nodes@ofxRulr@@QEAAX_N@Z
	?end@VideoOutput@System@Nodes@ofxRulr@@QEAAXXZ
	?getFbo@VideoOutput@System@Nodes@ofxRulr@@QEAAAEAVofFbo@@XZ
	?getHeight@VideoOutput@System@Nodes@ofxRulr@@QEBAMXZ
	?getMute@VideoOutput@System@Nodes@ofxRulr@@QEBA_NXZ
	?getWidth@VideoOutput@System@Nodes@ofxRulr@@QEBAMXZ
	?isWindowOpen@VideoOutput@System@Nodes@ofxRulr@@QEBA_NXZ
	?presentFbo@VideoOutput@System@Nodes@ofxRulr@@QEAAXXZ
	?getSingletonStore@?$Singleton@VGraphicsManager@Nodes@ofxRulr@@@ofxSingleton@@SAAEAVSingletonStore@12@XZ
	??0AbstractCaptureSet@Utils@ofxRulr@@QEAA@XZ
	??0ScopedProcess@Utils@ofxRulr@@QEAA@AEBV?$basic_string@DU?$char_traits@D@std@@V?$allocator@D@2@@std@@_N@Z
	??0ScopedProcess@Utils@ofxRulr@@QEAA@AEBV?$basic_string@DU?$char_traits@D@std@@V?$allocator@D@2@@std@@_N_K@Z
	??0ThreadPool@Utils@ofxRulr@@QEAA@_K0@Z
	??0VideoOutputListener@Utils@ofxRulr@@QEAA@V?$shared_ptr@V?$Pin@VVideoOutput@System@Nodes@ofxRulr@@@Graph@ofxRulr@@@std@@V?$function@$$A6AXAEBVofRectangle@@@Z@4@@Z
	??1AbstractCaptureSet@Utils@ofxRulr@@UEAA@XZ
	??1ScopedProcess@Utils@ofxRulr@@QEAA@XZ
	??1ThreadPool@Utils@ofxRulr@@UEAA@XZ
	??1VideoOutputListener@Utils@ofxRulr@@QEAA@XZ
	??0BaseCapture@AbstractCaptureSet@Utils@ofxRulr@@QEAA@XZ
	?add@AbstractCaptureSet@Utils@ofxRulr@@QEAAXV?$shared_ptr@VBaseCapture@AbstractCaptureSet@Utils@ofxRulr@@@std@@@Z
	?deserialize@AbstractCaptureSet@Utils@ofxRulr@@QEAAXAEBVValue@Json@@@Z
	?getAllCapturesUntyped@AbstractCaptureSet@Utils@ofxRulr@@QEBA?AV?$vector@V?$shared_ptr@VBaseCapture@AbstractCaptureSet@Utils@ofxRulr@@@std@@V?$allocator@V?$shared_ptr@VBaseCapture@AbstractCaptureSet@Utils@ofxRulr@@@std@@@2@@std@@XZ
	?getSelectionUntyped@AbstractCaptureSet@Utils@ofxRulr@@QEBA?AV?$vector@V?$shared_ptr@VBaseCapture@AbstractCaptureSet@Utils@ofxRulr@@@std@@V?$allocator@V?$shared_ptr@VBaseCapture@AbstractCaptureSet@Utils@ofxRulr@@@std@@@2@@std@@XZ
	?populateWidgets@AbstractCaptureSet@Utils@ofxRulr@@QEAAXV?$shared_ptr@VWidgets@Panels@ofxCvGui@@@std@@@Z
	?remove@AbstractCaptureSet@Utils@ofxRulr@@QEAAXV?$shared_ptr@VBaseCapture@AbstractCaptureSet@Utils@ofxRulr@@@std@@@Z
	?serialize@AbstractCaptureSet@Utils@ofxRulr@@QEAAXAEAVValue@Json@@@Z
	?size@AbstractCaptureSet@Utils@ofxRulr@@QEBA_KXZ
	?getDataDisplay@BaseCapture@AbstractCaptureSet@Utils@ofxRulr@@MEAA?AV?$shared_ptr@VElement@ofxCvGui@@@std@@XZ
	?getTypeName@BaseCapture@AbstractCaptureSet@Utils@ofxRulr@@UEBA?AV?$basic_string@DU?$char_traits@D@std@@V?$allocator@D@2@@std@@XZ
	?isSelected@BaseCapture@AbstractCaptureSet@Utils@ofxRulr@@QEBA_NXZ
	?rebuildDateStrings@BaseCapture@AbstractCaptureSet@Utils@ofxRulr@@QEAAXXZ
	?glDisable@Graphics@Utils@ofxRulr@@SAXI@Z
	?glEnable@Graphics@Utils@ofxRulr@@SAXI@Z
	?popPointSize@Graphics@Utils@ofxRulr@@SAXXZ
	?pushPointSize@Graphics@Utils@ofxRulr@@SAXM_N@Z
	?evaluate@PolyFit@Utils@ofxRulr@@YAMAEBUModel@123@M@Z
	?fit@PolyFit@Utils@ofxRulr@@YA?AUModel@123@AEBV?$vector@VofVec2f@@V?$allocator@VofVec2f@@@std@@@std@@H@Z
	?end@ScopedProcess@Utils@ofxRulr@@QEAAX_N@Z
	?nextChildProcess@ScopedProcess@Utils@ofxRulr@@QEAAXXZ
	?deserialize@Serializable@Utils@ofxRulr@@SAXAEBVValue@Json@@AEAV?$ofParameter@_N@@@Z
	?deserialize@Serializable@Utils@ofxRulr@@SAXAEBVValue@Json@@AEAV?$ofParameter@H@@@Z
	?deserialize@Serializable@Utils@ofxRulr@@SAXAEBVValue@Json@@AEAV?$ofParameter@M@@@Z
	?deserialize@Serializable@Utils@ofxRulr@@SAXAEBVValue@Json@@AEAV?$ofParameter@V?$basic_string@DU?$char_traits@D@std@@V?$allocator@D@2@@std@@@@@Z
	?deserialize@Serializable@Utils@ofxRulr@@SAXAEBVValue@Json@@AEAVofParameterGroup@@@Z
	?getDefaultFilename@Serializable@Utils@ofxRulr@@QEBA?AV?$basic_string@DU?$char_traits@D@std@@V?$allocator@D@2@@std@@XZ
	?getName@Serializable@Utils@ofxRulr@@UEBA?AV?$basic_string@DU?$char_traits@D@std@@V?$allocator@D@2@@std@@XZ
	?serialize@Serializable@Utils@ofxRulr@@SAXAEAVValue@Json@@AEBV?$ofParameter@V?$basic_string@DU?$char_traits@D@std@@V?$allocator@D@2@@std@@@@@Z
	?serialize@Serializable@Utils@ofxRulr@@SAXAEAVValue@Json@@AEBVofParameterGroup@@@Z
	?hasMaster@BaseStore@ofxSingleton@@QEBA_NXZ
	?draw@ofxSpinCursor@@SAXAEBVofVec2f@@@Z
	?Triangulate@ofxTriangulate@@SAXAEBV?$vector@VofVec2f@@V?$allocator@VofVec2f@@@std@@@std@@0AEBVCamera@ofxRay@@1AEAV?$vector@VofVec3f@@V?$allocator@VofVec3f@@@std@@@3@M@Z
	??$ofDrawBitmapString@V?$basic_string@DU?$char_traits@D@std@@V?$allocator@D@2@@std@@@@YAXAEBV?$basic_string@DU?$char_traits@D@std@@V?$allocator@D@2@@std@@MMM@Z
	??$ofFromString@V?$basic_string@DU?$char_traits@D@std@@V?$allocator@D@2@@std@@@@YA?AV?$basic_string@DU?$char_traits@D@std@@V?$allocator@D@2@@std@@AEBV01@@Z
	??5@YAAEAV?$basic_istream@DU?$char_traits@D@std@@@std@@AEAV01@AEAVofQuaternion@@@Z
	??5@YAAEAV?$basic_istream@DU?$char_traits@D@std@@@std@@AEAV01@AEAVPlane@ofxRay@@@Z
	??5@YAAEAV?$basic_istream@DU?$char_traits@D@std@@@std@@AEAV01@AEAVRay@ofxRay@@@Z
	??6@YAAEAV?$basic_ostream@DU?$char_traits@D@std@@@std@@AEAV01@AEBVofAbstractParameter@@@Z
	??6@YAAEAV?$basic_ostream@DU?$char_traits@D@std@@@std@@AEAV01@AEBVofBuffer@@@Z
	??6@YAAEAV?$basic_ostream@DU?$char_traits@D@std@@@std@@AEAV01@AEBVofQuaternion@@@Z
	??6@YAAEAV?$basic_ostream@DU?$char_traits@D@std@@@std@@AEAV01@AEBVPlane@ofxRay@@@Z
	??6@YAAEAV?$basic_ostream@DU?$char_traits@D@std@@@std@@AEAV01@AEBVRay@ofxRay@@@Z
	??1Delaunay@tpp@@QEAA@XZ
	??0fIterator@Delaunay@tpp@@AEAA@PEAV12@@Z
	??1fIterator@Delaunay@tpp@@QEAA@XZ
	??EfIterator@Delaunay@tpp@@QEAAXXZ
	?Apex@Delaunay@tpp@@QEAAHAEBVfIterator@12@@Z
	?area@Delaunay@tpp@@QEAANAEBVfIterator@12@@Z
	?Dest@Delaunay@tpp@@QEAAHAEBVfIterator@12@@Z
	?fend@Delaunay@tpp@@QEAA?AVfIterator@12@XZ
	?Org@Delaunay@tpp@@QEAAHAEBVfIterator@12@@Z
	?Triangulate@Delaunay@tpp@@AEAAXAEAV?$basic_string@DU?$char_traits@D@std@@V?$allocator@D@2@@std@@@Z
