LIBRARY RulrLibrary
EXPORTS
	?escape@ofAbstractParameter@@MEBA?AV?$basic_string@DU?$char_traits@D@std@@V?$allocator@D@2@@std@@AEBV23@@Z
	??1ofLog@@UEAA@XZ
	??0ofLogError@@QEAA@AEBV?$basic_string@DU?$char_traits@D@std@@V?$allocator@D@2@@std@@@Z
	?ofGetElapsedTimef@@YAMXZ
	?ofSleepMillis@@YAXH@Z
	??0?$ofImage_@E@@QEAA@XZ
	?loadImage@?$ofImage_@E@@QEAA_NV?$basic_string@DU?$char_traits@D@std@@V?$allocator@D@2@@std@@@Z
	?update@?$ofImage_@E@@QEAAXXZ
	?setFromPixels@?$ofImage_@E@@QEAAXAEBV?$ofPixels_@E@@@Z
	??4?$ofImage_@E@@QEAAAEAV0@AEBV0@@Z
	?isAllocated@?$ofPixels_@E@@QEBA_NXZ
	?ofGetScreenWidth@@YAHXZ
	?ofGetScreenHeight@@YAHXZ
	?ofClear@@YAXMMMM@Z
	?ofSetupScreen@@YAXXZ
	?ofLoadIdentityMatrix@@YAXXZ
	?ofSetMatrixMode@@YAXW4ofMatrixMode@@@Z
	?padding@ofLog@@0V?$basic_string@DU?$char_traits@D@std@@V?$allocator@D@2@@std@@A
	??1ofRectangle@@UEAA@XZ
	?audioIn@ofBaseSoundInput@@UEAAXAEAVofSoundBuffer@@@Z
	?audioIn@ofBaseSoundInput@@UEAAXPEAMHHH_K@Z
	?audioIn@ofBaseSoundInput@@UEAAXPEAMHH@Z
	?audioOut@ofBaseSoundOutput@@UEAAXAEAVofSoundBuffer@@@Z
	?audioOut@ofBaseSoundOutput@@UEAAXPEAMHHH_K@Z
	?audioOut@ofBaseSoundOutput@@UEAAXPEAMHH@Z
	?ofCreateWindow@@YA?AV?$shared_ptr@VofAppBaseWindow@@@std@@AEBVofWindowSettings@@@Z
	?ofRunApp@@YAHPEAVofBaseApp@@@Z
	??1?$ofImage_@E@@UEAA@XZ
	??0Controller@ofxCvGui@@QEAA@XZ
	?loadCoreNodes@Nodes@ofxRulr@@YAXXZ
	?loadPluginNodes@Nodes@ofxRulr@@YAXXZ
	?ofGetFrameNum@@YA_KXZ
	?ofSetEscapeQuitsApp@@YAX_N@Z
	??0BaseStore@ofxSingleton@@QEAA@XZ
	?hasMaster@BaseStore@ofxSingleton@@QEBA_NXZ
	?getInstance@?$UnmanagedSingleton@VRegister@ofxSingleton@@@ofxSingleton@@SA?AV?$shared_ptr@VRegister@ofxSingleton@@@std@@XZ
	?addEntry@Register@ofxSingleton@@QEAAXPEAVBaseStore@2@@Z
	??0Register@ofxAssets@@QEAA@XZ
	?addAddon@Register@ofxAssets@@QEAAXV?$basic_string@DU?$char_traits@D@std@@V?$allocator@D@2@@std@@@Z
	?init@Builder@ofxCvGui@@QEAAXXZ
	??1Base@Nodes@ofxRulr@@QEAA@XZ
	?update@Base@Nodes@ofxRulr@@QEAAXXZ
	?init@World@Graph@ofxRulr@@QEAAXAEAVController@ofxCvGui@@_N@Z
	?loadAll@World@Graph@ofxRulr@@QEAAX_N@Z
	??0Patch@Editor@Graph@ofxRulr@@QEAA@XZ
	?singletonStore@?$Singleton@VRegister@ofxAssets@@@ofxSingleton@@0PEAVSingletonStore@12@EA
	?singletonStore@?$Singleton@VWorld@Graph@ofxRulr@@@ofxSingleton@@0PEAVSingletonStore@12@EA
	??$ofDrawBitmapString@V?$basic_string@DU?$char_traits@D@std@@V?$allocator@D@2@@std@@@@YAXAEBV?$basic_string@DU?$char_traits@D@std@@V?$allocator@D@2@@std@@MMM@Z
	??0ofRectangle@@QEAA@MMMM@Z
	?ofDrawLine@@YAXMMMM@Z
	?ofSetLineWidth@@YAXM@Z
	?ofPushStyle@@YAXXZ
	?ofPopStyle@@YAXXZ
	??$ofFromString@V?$basic_string@DU?$char_traits@D@std@@V?$allocator@D@2@@std@@@@YA?AV?$basic_string@DU?$char_traits@D@std@@V?$allocator@D@2@@std@@AEBV01@@Z
	??0Element@ofxCvGui@@QEAA@XZ
	?setBounds@Element@ofxCvGui@@QEAAXAEBVofRectangle@@@Z
	?getWidth@Element@ofxCvGui@@QEBAMXZ
	?setCaption@Element@ofxCvGui@@QEAAXV?$basic_string@DU?$char_traits@D@std@@V?$allocator@D@2@@std@@@Z
	?getCaption@Element@ofxCvGui@@QEBAAEBV?$basic_string@DU?$char_traits@D@std@@V?$allocator@D@2@@std@@XZ
	?setEnabled@Element@ofxCvGui@@QEAAX_N@Z
	?ofGetElapsedTimeMicros@@YA_KXZ
	?allocate@?$ofPixels_@E@@QEAAXHHW4ofImageType@@@Z
	?getPixels@?$ofPixels_@E@@QEAAPEAEXZ
	?getWidth@?$ofPixels_@E@@QEBAHXZ
	?getHeight@?$ofPixels_@E@@QEBAHXZ
	??0Specification@ofxMachineVision@@QEAA@AEBV01@@Z
	?addListenersToParent@Element@ofxCvGui@@QEAAXPEAV12@_N@Z
	??0Specification@ofxMachineVision@@QEAA@HHV?$basic_string@DU?$char_traits@D@std@@V?$allocator@D@2@@std@@00@Z
	?addFeature@Specification@ofxMachineVision@@QEAAXAEBW4Feature@2@@Z
	??0Frame@ofxMachineVision@@QEAA@XZ
	??1Frame@ofxMachineVision@@QEAA@XZ
	?lockForWriting@Frame@ofxMachineVision@@QEAA_NXZ
	??0Exception@ofxRulr@@QEAA@V?$basic_string@DU?$char_traits@D@std@@V?$allocator@D@2@@std@@@Z
	?unlock@Frame@ofxMachineVision@@QEAAXXZ
	?what@Exception@ofxRulr@@UEBAPEBDXZ
	?type@ofAbstractParameter@@UEBA?AV?$basic_string@DU?$char_traits@D@std@@V?$allocator@D@2@@std@@XZ
	?type@ofAbstractParameter@@UEBA?AV?$basic_string@DU?$char_traits@D@std@@V?$allocator@D@2@@std@@XZ
	?getEscapedName@ofAbstractParameter@@UEBA?AV?$basic_string@DU?$char_traits@D@std@@V?$allocator@D@2@@std@@XZ
	?getEscapedName@ofAbstractParameter@@UEBA?AV?$basic_string@DU?$char_traits@D@std@@V?$allocator@D@2@@std@@XZ
	?getName@ofParameterGroup@@UEBA?AV?$basic_string@DU?$char_traits@D@std@@V?$allocator@D@2@@std@@XZ
	?setName@ofParameterGroup@@UEAAXAEBV?$basic_string@DU?$char_traits@D@std@@V?$allocator@D@2@@std@@@Z
	?getEscapedName@ofParameterGroup@@UEBA?AV?$basic_string@DU?$char_traits@D@std@@V?$allocator@D@2@@std@@XZ
	?toString@ofParameterGroup@@UEBA?AV?$basic_string@DU?$char_traits@D@std@@V?$allocator@D@2@@std@@XZ
	?fromString@ofParameterGroup@@UEAAXAEBV?$basic_string@DU?$char_traits@D@std@@V?$allocator@D@2@@std@@@Z
	?setSerializable@ofParameterGroup@@UEAAX_N@Z
	?isSerializable@ofParameterGroup@@UEBA_NXZ
	?isReadOnly@ofParameterGroup@@UEBA_NXZ
	??0Exception@ofxRulr@@QEAA@V?$basic_string@DU?$char_traits@D@std@@V?$allocator@D@2@@std@@@Z
	?newReference@ofParameterGroup@@UEBA?AV?$shared_ptr@VofAbstractParameter@@@std@@XZ
	?what@Exception@ofxRulr@@UEBAPEBDXZ
	??0ofRectangle@@QEAA@MMMM@Z
	??0ofRectangle@@QEAA@MMMM@Z
	?setParent@ofParameterGroup@@UEAAXAEAV1@@Z
	?drawProcessingNotice@Utils@ofxCvGui@@YAXV?$basic_string@DU?$char_traits@D@std@@V?$allocator@D@2@@std@@@Z
	?notifyParameterChanged@Value@ofParameterGroup@@QEAAXAEAVofAbstractParameter@@@Z
	?ofDrawLine@@YAXMMMM@Z
	?getFirstParent@ofParameterGroup@@EEBA?BV1@XZ
	?ofSetLineWidth@@YAXM@Z
	?serialize@Serializable@Utils@ofxRulr@@SAXAEBV?$ofParameter@V?$basic_string@DU?$char_traits@D@std@@V?$allocator@D@2@@std@@@@AEAVValue@Json@@@Z
	?ofPushStyle@@YAXXZ
	?ofPushStyle@@YAXXZ
	?ofPopStyle@@YAXXZ
	?deserialize@Serializable@Utils@ofxRulr@@SAXAEAV?$ofParameter@V?$basic_string@DU?$char_traits@D@std@@V?$allocator@D@2@@std@@@@AEBVValue@Json@@@Z
	?ofPopStyle@@YAXXZ
	?add@Scroll@Panels@ofxCvGui@@QEAAXV?$shared_ptr@VElement@ofxCvGui@@@std@@@Z
	?ofToLower@@YA?AV?$basic_string@DU?$char_traits@D@std@@V?$allocator@D@2@@std@@AEBV12@0@Z
	?ofSystemAlertDialog@@YAXV?$basic_string@DU?$char_traits@D@std@@V?$allocator@D@2@@std@@@Z
	??$ofFromString@V?$basic_string@DU?$char_traits@D@std@@V?$allocator@D@2@@std@@@@YA?AV?$basic_string@DU?$char_traits@D@std@@V?$allocator@D@2@@std@@AEBV01@@Z
	?ofSystemTextBoxDialog@@YA?AV?$basic_string@DU?$char_traits@D@std@@V?$allocator@D@2@@std@@V12@0@Z
	??$ofFromString@V?$basic_string@DU?$char_traits@D@std@@V?$allocator@D@2@@std@@@@YA?AV?$basic_string@DU?$char_traits@D@std@@V?$allocator@D@2@@std@@AEBV01@@Z
	?getStringBoundingBox@ofTrueTypeFont@@QEBA?AVofRectangle@@AEBV?$basic_string@DU?$char_traits@D@std@@V?$allocator@D@2@@std@@MM_N@Z
	??0Element@ofxCvGui@@QEAA@XZ
	?drawString@ofTrueTypeFont@@QEBAXAEBV?$basic_string@DU?$char_traits@D@std@@V?$allocator@D@2@@std@@MM@Z
	??0Element@ofxCvGui@@QEAA@XZ
	?font@ofxAssets@@YAAEAVofTrueTypeFont@@AEBV?$basic_string@DU?$char_traits@D@std@@V?$allocator@D@2@@std@@H@Z
	?setBounds@Element@ofxCvGui@@QEAAXAEBVofRectangle@@@Z
	?image@ofxAssets@@YAAEAV?$ofImage_@E@@AEBV?$basic_string@DU?$char_traits@D@std@@V?$allocator@D@2@@std@@@Z
	?setBounds@Element@ofxCvGui@@QEAAXAEBVofRectangle@@@Z
	??0Base@Nodes@ofxRulr@@QEAA@XZ
	?getWidth@Element@ofxCvGui@@QEBAMXZ
	?getName@Base@Nodes@ofxRulr@@UEBA?AV?$basic_string@DU?$char_traits@D@std@@V?$allocator@D@2@@std@@XZ
	?setCaption@Element@ofxCvGui@@QEAAXV?$basic_string@DU?$char_traits@D@std@@V?$allocator@D@2@@std@@@Z
	?getChannels@Universe@Transmit@DMX@Nodes@ofxRulr@@QEBAPEBEXZ
	?getCaption@Element@ofxCvGui@@QEBAAEBV?$basic_string@DU?$char_traits@D@std@@V?$allocator@D@2@@std@@XZ
	??0Transmit@DMX@Nodes@ofxRulr@@QEAA@XZ
	?setEnabled@Element@ofxCvGui@@QEAAX_N@Z
	?getView@Transmit@DMX@Nodes@ofxRulr@@UEAA?AV?$shared_ptr@VBase@Panels@ofxCvGui@@@std@@XZ
	?addListenersToParent@Element@ofxCvGui@@QEAAXPEAV12@_N@Z
	??0ofSerial@@QEAA@XZ
	?addListenersToParent@Element@ofxCvGui@@QEAAXPEAV12@_N@Z
	?setup@ofSerial@@QEAA_NV?$basic_string@DU?$char_traits@D@std@@V?$allocator@D@2@@std@@H@Z
	?type@ofAbstractParameter@@UEBA?AV?$basic_string@DU?$char_traits@D@std@@V?$allocator@D@2@@std@@XZ
	?isInitialized@ofSerial@@QEBA_NXZ
	?type@ofAbstractParameter@@UEBA?AV?$basic_string@DU?$char_traits@D@std@@V?$allocator@D@2@@std@@XZ
	?close@ofSerial@@QEAAXXZ
	?type@ofAbstractParameter@@UEBA?AV?$basic_string@DU?$char_traits@D@std@@V?$allocator@D@2@@std@@XZ
	?getEscapedName@ofAbstractParameter@@UEBA?AV?$basic_string@DU?$char_traits@D@std@@V?$allocator@D@2@@std@@XZ
	?writeBytes@ofSerial@@QEAAHPEAEH@Z
	?getEscapedName@ofAbstractParameter@@UEBA?AV?$basic_string@DU?$char_traits@D@std@@V?$allocator@D@2@@std@@XZ
	?getEscapedName@ofAbstractParameter@@UEBA?AV?$basic_string@DU?$char_traits@D@std@@V?$allocator@D@2@@std@@XZ
	?getName@ofParameterGroup@@UEBA?AV?$basic_string@DU?$char_traits@D@std@@V?$allocator@D@2@@std@@XZ
	?getName@ofParameterGroup@@UEBA?AV?$basic_string@DU?$char_traits@D@std@@V?$allocator@D@2@@std@@XZ
	?setName@ofParameterGroup@@UEAAXAEBV?$basic_string@DU?$char_traits@D@std@@V?$allocator@D@2@@std@@@Z
	?setName@ofParameterGroup@@UEAAXAEBV?$basic_string@DU?$char_traits@D@std@@V?$allocator@D@2@@std@@@Z
	?getEscapedName@ofParameterGroup@@UEBA?AV?$basic_string@DU?$char_traits@D@std@@V?$allocator@D@2@@std@@XZ
	?getEscapedName@ofParameterGroup@@UEBA?AV?$basic_string@DU?$char_traits@D@std@@V?$allocator@D@2@@std@@XZ
	?toString@ofParameterGroup@@UEBA?AV?$basic_string@DU?$char_traits@D@std@@V?$allocator@D@2@@std@@XZ
	?toString@ofParameterGroup@@UEBA?AV?$basic_string@DU?$char_traits@D@std@@V?$allocator@D@2@@std@@XZ
	?fromString@ofParameterGroup@@UEAAXAEBV?$basic_string@DU?$char_traits@D@std@@V?$allocator@D@2@@std@@@Z
	?fromString@ofParameterGroup@@UEAAXAEBV?$basic_string@DU?$char_traits@D@std@@V?$allocator@D@2@@std@@@Z
	?setSerializable@ofParameterGroup@@UEAAX_N@Z
	?setSerializable@ofParameterGroup@@UEAAX_N@Z
	?isSerializable@ofParameterGroup@@UEBA_NXZ
	?isSerializable@ofParameterGroup@@UEBA_NXZ
	?isReadOnly@ofParameterGroup@@UEBA_NXZ
	?isReadOnly@ofParameterGroup@@UEBA_NXZ
	?newReference@ofParameterGroup@@UEBA?AV?$shared_ptr@VofAbstractParameter@@@std@@XZ
	?newReference@ofParameterGroup@@UEBA?AV?$shared_ptr@VofAbstractParameter@@@std@@XZ
	?setParent@ofParameterGroup@@UEAAXAEAV1@@Z
	?setParent@ofParameterGroup@@UEAAXAEAV1@@Z
	?notifyParameterChanged@Value@ofParameterGroup@@QEAAXAEAVofAbstractParameter@@@Z
	?notifyParameterChanged@Value@ofParameterGroup@@QEAAXAEAVofAbstractParameter@@@Z
	?getFirstParent@ofParameterGroup@@EEBA?BV1@XZ
	?getFirstParent@ofParameterGroup@@EEBA?BV1@XZ
	??AValue@Json@@QEAAAEAV01@PEBD@Z
	??AValue@Json@@QEAAAEAV01@PEBD@Z
	??AValue@Json@@QEBAAEBV01@PEBD@Z
	??AValue@Json@@QEBAAEBV01@PEBD@Z
	??AValue@Json@@QEAAAEAV01@AEBV?$basic_string@DU?$char_traits@D@std@@V?$allocator@D@2@@std@@@Z
	??AValue@Json@@QEBAAEBV01@AEBV?$basic_string@DU?$char_traits@D@std@@V?$allocator@D@2@@std@@@Z
	?getMemberNames@Value@Json@@QEBA?AV?$vector@V?$basic_string@DU?$char_traits@D@std@@V?$allocator@D@2@@std@@V?$allocator@V?$basic_string@DU?$char_traits@D@std@@V?$allocator@D@2@@std@@@2@@std@@XZ
	?serialize@Serializable@Utils@ofxRulr@@SAXAEBV?$ofParameter@_N@@AEAVValue@Json@@@Z
	?serialize@Serializable@Utils@ofxRulr@@SAXAEBV?$ofParameter@V?$basic_string@DU?$char_traits@D@std@@V?$allocator@D@2@@std@@@@AEAVValue@Json@@@Z
	?deserialize@Serializable@Utils@ofxRulr@@SAXAEAV?$ofParameter@_N@@AEBVValue@Json@@@Z
	?deserialize@Serializable@Utils@ofxRulr@@SAXAEAV?$ofParameter@V?$basic_string@DU?$char_traits@D@std@@V?$allocator@D@2@@std@@@@AEBVValue@Json@@@Z
	?add@Scroll@Panels@ofxCvGui@@QEAAXV?$shared_ptr@VElement@ofxCvGui@@@std@@@Z
	?clear@Scroll@Panels@ofxCvGui@@QEAAXXZ
	??0Button@Widgets@ofxCvGui@@QEAA@V?$basic_string@DU?$char_traits@D@std@@V?$allocator@D@2@@std@@V?$function@$$A6AXXZ@4@D@Z
	?ofSystemAlertDialog@@YAXV?$basic_string@DU?$char_traits@D@std@@V?$allocator@D@2@@std@@@Z
	?ofSystemTextBoxDialog@@YA?AV?$basic_string@DU?$char_traits@D@std@@V?$allocator@D@2@@std@@V12@0@Z
	?getStringBoundingBox@ofTrueTypeFont@@QEBA?AVofRectangle@@AEBV?$basic_string@DU?$char_traits@D@std@@V?$allocator@D@2@@std@@MM_N@Z
	?drawString@ofTrueTypeFont@@QEBAXAEBV?$basic_string@DU?$char_traits@D@std@@V?$allocator@D@2@@std@@MM@Z
	?font@ofxAssets@@YAAEAVofTrueTypeFont@@AEBV?$basic_string@DU?$char_traits@D@std@@V?$allocator@D@2@@std@@H@Z
	?image@ofxAssets@@YAAEAV?$ofImage_@E@@AEBV?$basic_string@DU?$char_traits@D@std@@V?$allocator@D@2@@std@@@Z
	??0Title@Widgets@ofxCvGui@@QEAA@V?$basic_string@DU?$char_traits@D@std@@V?$allocator@D@2@@std@@W4Level@012@@Z
	?makeWidgets@Panels@ofxCvGui@@YA?AV?$shared_ptr@VWidgets@Panels@ofxCvGui@@@std@@V?$basic_string@DU?$char_traits@D@std@@V?$allocator@D@2@@4@@Z
	??0Base@Nodes@ofxRulr@@QEAA@XZ
	?getName@Base@Nodes@ofxRulr@@UEBA?AV?$basic_string@DU?$char_traits@D@std@@V?$allocator@D@2@@std@@XZ
	??0ofBuffer@@QEAA@AEAV?$basic_istream@DU?$char_traits@D@std@@@std@@_K@Z
	??6@YAAEAV?$basic_ostream@DU?$char_traits@D@std@@@std@@AEAV01@AEBVofBuffer@@@Z
	?drawText@Utils@ofxCvGui@@YA?AVofRectangle@@AEBV?$basic_string@DU?$char_traits@D@std@@V?$allocator@D@2@@std@@MM_NMM1@Z
	?ofSetColor@@YAXHHH@Z
	?ofDrawRectangle@@YAXAEBVofRectangle@@@Z
	?ofSystem@@YA?AV?$basic_string@DU?$char_traits@D@std@@V?$allocator@D@2@@std@@AEBV12@@Z
	?setHeight@Element@ofxCvGui@@QEAAXM@Z
	??0Value@Json@@QEAA@H@Z
	??0Value@Json@@QEAA@AEBV?$basic_string@DU?$char_traits@D@std@@V?$allocator@D@2@@std@@@Z
	??1Value@Json@@QEAA@XZ
	??4Value@Json@@QEAAAEAV01@AEBV01@@Z
	?asString@Value@Json@@QEBA?AV?$basic_string@DU?$char_traits@D@std@@V?$allocator@D@2@@std@@XZ
	?asInt@Value@Json@@QEBAHXZ
	??AValue@Json@@QEAAAEAV01@H@Z
	?begin@Value@Json@@QEBA?AVValueConstIterator@2@XZ
	?end@Value@Json@@QEBA?AVValueConstIterator@2@XZ
	?deref@ValueIteratorBase@Json@@IEBAAEAVValue@2@XZ
	?increment@ValueIteratorBase@Json@@IEAAXXZ
	?isEqual@ValueIteratorBase@Json@@IEBA_NAEBV12@@Z
	??0?$ElementGroup_@VElement@ofxCvGui@@@ofxCvGui@@QEAA@XZ
	??1?$ElementGroup_@VElement@ofxCvGui@@@ofxCvGui@@UEAA@XZ
	?add@?$ElementGroup_@VElement@ofxCvGui@@@ofxCvGui@@QEAAXV?$shared_ptr@VElement@ofxCvGui@@@std@@@Z
	?makeButton@Widgets@ofxCvGui@@YA?AV?$shared_ptr@VButton@Widgets@ofxCvGui@@@std@@AEBV?$basic_string@DU?$char_traits@D@std@@V?$allocator@D@2@@4@AEBV?$function@$$A6AXXZ@4@@Z
	?fromHex@?$ofColor_@E@@SA?AV1@HM@Z
	?limit@?$ofColor_@E@@SAMXZ
	?type@ofAbstractParameter@@UEBA?AV?$basic_string@DU?$char_traits@D@std@@V?$allocator@D@2@@std@@XZ
	?type@ofAbstractParameter@@UEBA?AV?$basic_string@DU?$char_traits@D@std@@V?$allocator@D@2@@std@@XZ
	?type@ofAbstractParameter@@UEBA?AV?$basic_string@DU?$char_traits@D@std@@V?$allocator@D@2@@std@@XZ
	?type@ofAbstractParameter@@UEBA?AV?$basic_string@DU?$char_traits@D@std@@V?$allocator@D@2@@std@@XZ
	?getEscapedName@ofAbstractParameter@@UEBA?AV?$basic_string@DU?$char_traits@D@std@@V?$allocator@D@2@@std@@XZ
	?getEscapedName@ofAbstractParameter@@UEBA?AV?$basic_string@DU?$char_traits@D@std@@V?$allocator@D@2@@std@@XZ
	?getEscapedName@ofAbstractParameter@@UEBA?AV?$basic_string@DU?$char_traits@D@std@@V?$allocator@D@2@@std@@XZ
	?getEscapedName@ofAbstractParameter@@UEBA?AV?$basic_string@DU?$char_traits@D@std@@V?$allocator@D@2@@std@@XZ
	?getName@ofParameterGroup@@UEBA?AV?$basic_string@DU?$char_traits@D@std@@V?$allocator@D@2@@std@@XZ
	?getName@ofParameterGroup@@UEBA?AV?$basic_string@DU?$char_traits@D@std@@V?$allocator@D@2@@std@@XZ
	?getName@ofParameterGroup@@UEBA?AV?$basic_string@DU?$char_traits@D@std@@V?$allocator@D@2@@std@@XZ
	?getName@ofParameterGroup@@UEBA?AV?$basic_string@DU?$char_traits@D@std@@V?$allocator@D@2@@std@@XZ
	?setName@ofParameterGroup@@UEAAXAEBV?$basic_string@DU?$char_traits@D@std@@V?$allocator@D@2@@std@@@Z
	?setName@ofParameterGroup@@UEAAXAEBV?$basic_string@DU?$char_traits@D@std@@V?$allocator@D@2@@std@@@Z
	?setName@ofParameterGroup@@UEAAXAEBV?$basic_string@DU?$char_traits@D@std@@V?$allocator@D@2@@std@@@Z
	?setName@ofParameterGroup@@UEAAXAEBV?$basic_string@DU?$char_traits@D@std@@V?$allocator@D@2@@std@@@Z
	?getEscapedName@ofParameterGroup@@UEBA?AV?$basic_string@DU?$char_traits@D@std@@V?$allocator@D@2@@std@@XZ
	?getEscapedName@ofParameterGroup@@UEBA?AV?$basic_string@DU?$char_traits@D@std@@V?$allocator@D@2@@std@@XZ
	?getEscapedName@ofParameterGroup@@UEBA?AV?$basic_string@DU?$char_traits@D@std@@V?$allocator@D@2@@std@@XZ
	?getEscapedName@ofParameterGroup@@UEBA?AV?$basic_string@DU?$char_traits@D@std@@V?$allocator@D@2@@std@@XZ
	?toString@ofParameterGroup@@UEBA?AV?$basic_string@DU?$char_traits@D@std@@V?$allocator@D@2@@std@@XZ
	?toString@ofParameterGroup@@UEBA?AV?$basic_string@DU?$char_traits@D@std@@V?$allocator@D@2@@std@@XZ
	?toString@ofParameterGroup@@UEBA?AV?$basic_string@DU?$char_traits@D@std@@V?$allocator@D@2@@std@@XZ
	?toString@ofParameterGroup@@UEBA?AV?$basic_string@DU?$char_traits@D@std@@V?$allocator@D@2@@std@@XZ
	?fromString@ofParameterGroup@@UEAAXAEBV?$basic_string@DU?$char_traits@D@std@@V?$allocator@D@2@@std@@@Z
	?fromString@ofParameterGroup@@UEAAXAEBV?$basic_string@DU?$char_traits@D@std@@V?$allocator@D@2@@std@@@Z
	?fromString@ofParameterGroup@@UEAAXAEBV?$basic_string@DU?$char_traits@D@std@@V?$allocator@D@2@@std@@@Z
	?fromString@ofParameterGroup@@UEAAXAEBV?$basic_string@DU?$char_traits@D@std@@V?$allocator@D@2@@std@@@Z
	?setSerializable@ofParameterGroup@@UEAAX_N@Z
	?setSerializable@ofParameterGroup@@UEAAX_N@Z
	?setSerializable@ofParameterGroup@@UEAAX_N@Z
	?setSerializable@ofParameterGroup@@UEAAX_N@Z
	?isSerializable@ofParameterGroup@@UEBA_NXZ
	?isSerializable@ofParameterGroup@@UEBA_NXZ
	?isSerializable@ofParameterGroup@@UEBA_NXZ
	?isSerializable@ofParameterGroup@@UEBA_NXZ
	?isReadOnly@ofParameterGroup@@UEBA_NXZ
	?isReadOnly@ofParameterGroup@@UEBA_NXZ
	?isReadOnly@ofParameterGroup@@UEBA_NXZ
	?isReadOnly@ofParameterGroup@@UEBA_NXZ
	?newReference@ofParameterGroup@@UEBA?AV?$shared_ptr@VofAbstractParameter@@@std@@XZ
	?newReference@ofParameterGroup@@UEBA?AV?$shared_ptr@VofAbstractParameter@@@std@@XZ
	?newReference@ofParameterGroup@@UEBA?AV?$shared_ptr@VofAbstractParameter@@@std@@XZ
	?newReference@ofParameterGroup@@UEBA?AV?$shared_ptr@VofAbstractParameter@@@std@@XZ
	?setParent@ofParameterGroup@@UEAAXAEAV1@@Z
	?setParent@ofParameterGroup@@UEAAXAEAV1@@Z
	?setParent@ofParameterGroup@@UEAAXAEAV1@@Z
	?setParent@ofParameterGroup@@UEAAXAEAV1@@Z
	?notifyParameterChanged@Value@ofParameterGroup@@QEAAXAEAVofAbstractParameter@@@Z
	?notifyParameterChanged@Value@ofParameterGroup@@QEAAXAEAVofAbstractParameter@@@Z
	?notifyParameterChanged@Value@ofParameterGroup@@QEAAXAEAVofAbstractParameter@@@Z
	?notifyParameterChanged@Value@ofParameterGroup@@QEAAXAEAVofAbstractParameter@@@Z
	?getFirstParent@ofParameterGroup@@EEBA?BV1@XZ
	?getFirstParent@ofParameterGroup@@EEBA?BV1@XZ
	?getFirstParent@ofParameterGroup@@EEBA?BV1@XZ
	?getFirstParent@ofParameterGroup@@EEBA?BV1@XZ
	?ofSetColor@@YAXAEBV?$ofColor_@E@@@Z
	?ofSetColor@@YAXAEBV?$ofColor_@E@@@Z
	?ofNoFill@@YAXXZ
	?ofNoFill@@YAXXZ
	?ofSetLineWidth@@YAXM@Z
	?ofSetLineWidth@@YAXM@Z
	?ofSetLineWidth@@YAXM@Z
	?ofSetLineWidth@@YAXM@Z
	?ofSetLineWidth@@YAXM@Z
	?ofPushStyle@@YAXXZ
	?ofPushStyle@@YAXXZ
	?ofPushStyle@@YAXXZ
	?ofPushStyle@@YAXXZ
	?ofPushStyle@@YAXXZ
	?ofPopStyle@@YAXXZ
	?ofPopStyle@@YAXXZ
	?ofPopStyle@@YAXXZ
	?ofPopStyle@@YAXXZ
	?ofPopStyle@@YAXXZ
	??0Exception@ofxRulr@@QEAA@V?$basic_string@DU?$char_traits@D@std@@V?$allocator@D@2@@std@@@Z
	??0Exception@ofxRulr@@QEAA@V?$basic_string@DU?$char_traits@D@std@@V?$allocator@D@2@@std@@@Z
	??0Exception@ofxRulr@@QEAA@V?$basic_string@DU?$char_traits@D@std@@V?$allocator@D@2@@std@@@Z
	?what@Exception@ofxRulr@@UEBAPEBDXZ
	?what@Exception@ofxRulr@@UEBAPEBDXZ
	?what@Exception@ofxRulr@@UEBAPEBDXZ
	?setCaption@Element@ofxCvGui@@QEAAXV?$basic_string@DU?$char_traits@D@std@@V?$allocator@D@2@@std@@@Z
	?setCaption@Element@ofxCvGui@@QEAAXV?$basic_string@DU?$char_traits@D@std@@V?$allocator@D@2@@std@@@Z
	?setCaption@Element@ofxCvGui@@QEAAXV?$basic_string@DU?$char_traits@D@std@@V?$allocator@D@2@@std@@@Z
	??AValue@Json@@QEAAAEAV01@PEBD@Z
	??AValue@Json@@QEAAAEAV01@PEBD@Z
	??AValue@Json@@QEAAAEAV01@PEBD@Z
	??AValue@Json@@QEBAAEBV01@PEBD@Z
	??AValue@Json@@QEBAAEBV01@PEBD@Z
	??AValue@Json@@QEBAAEBV01@PEBD@Z
	?getName@Serializable@Utils@ofxRulr@@UEBA?AV?$basic_string@DU?$char_traits@D@std@@V?$allocator@D@2@@std@@XZ
	?getName@Serializable@Utils@ofxRulr@@UEBA?AV?$basic_string@DU?$char_traits@D@std@@V?$allocator@D@2@@std@@XZ
	?getName@Serializable@Utils@ofxRulr@@UEBA?AV?$basic_string@DU?$char_traits@D@std@@V?$allocator@D@2@@std@@XZ
	?getName@Serializable@Utils@ofxRulr@@UEBA?AV?$basic_string@DU?$char_traits@D@std@@V?$allocator@D@2@@std@@XZ
	?serialize@Serializable@Utils@ofxRulr@@SAXAEBV?$ofParameter@H@@AEAVValue@Json@@@Z
	?serialize@Serializable@Utils@ofxRulr@@SAXAEBV?$ofParameter@_N@@AEAVValue@Json@@@Z
	?serialize@Serializable@Utils@ofxRulr@@SAXAEBV?$ofParameter@_N@@AEAVValue@Json@@@Z
	?deserialize@Serializable@Utils@ofxRulr@@SAXAEAV?$ofParameter@H@@AEBVValue@Json@@@Z
	?deserialize@Serializable@Utils@ofxRulr@@SAXAEAV?$ofParameter@_N@@AEBVValue@Json@@@Z
	?deserialize@Serializable@Utils@ofxRulr@@SAXAEAV?$ofParameter@_N@@AEBVValue@Json@@@Z
	?add@Scroll@Panels@ofxCvGui@@QEAAXV?$shared_ptr@VElement@ofxCvGui@@@std@@@Z
	?add@Scroll@Panels@ofxCvGui@@QEAAXV?$shared_ptr@VElement@ofxCvGui@@@std@@@Z
	?add@Scroll@Panels@ofxCvGui@@QEAAXV?$shared_ptr@VElement@ofxCvGui@@@std@@@Z
	??0Toggle@Widgets@ofxCvGui@@QEAA@AEAV?$ofParameter@_N@@D@Z
	??0Toggle@Widgets@ofxCvGui@@QEAA@AEAV?$ofParameter@_N@@D@Z
	??0Toggle@Widgets@ofxCvGui@@QEAA@AEAV?$ofParameter@_N@@D@Z
	?getShaderPointer@Register@ofxAssets@@QEAA?AV?$shared_ptr@VShader@ofxAssets@@@std@@V?$basic_string@DU?$char_traits@D@std@@V?$allocator@D@2@@4@@Z
	??0Title@Widgets@ofxCvGui@@QEAA@V?$basic_string@DU?$char_traits@D@std@@V?$allocator@D@2@@std@@W4Level@012@@Z
	??0Base@Nodes@ofxRulr@@QEAA@XZ
	??0Base@Nodes@ofxRulr@@QEAA@XZ
	??0Base@Nodes@ofxRulr@@QEAA@XZ
	?getTypeName@Base@Nodes@ofxRulr@@UEBA?AV?$basic_string@DU?$char_traits@D@std@@V?$allocator@D@2@@std@@XZ
	?getTypeName@Base@Nodes@ofxRulr@@UEBA?AV?$basic_string@DU?$char_traits@D@std@@V?$allocator@D@2@@std@@XZ
	?getTypeName@Base@Nodes@ofxRulr@@UEBA?AV?$basic_string@DU?$char_traits@D@std@@V?$allocator@D@2@@std@@XZ
	?getTypeName@Base@Nodes@ofxRulr@@UEBA?AV?$basic_string@DU?$char_traits@D@std@@V?$allocator@D@2@@std@@XZ
	?getName@Base@Nodes@ofxRulr@@UEBA?AV?$basic_string@DU?$char_traits@D@std@@V?$allocator@D@2@@std@@XZ
	?getName@Base@Nodes@ofxRulr@@UEBA?AV?$basic_string@DU?$char_traits@D@std@@V?$allocator@D@2@@std@@XZ
	?getName@Base@Nodes@ofxRulr@@UEBA?AV?$basic_string@DU?$char_traits@D@std@@V?$allocator@D@2@@std@@XZ
	?getName@Base@Nodes@ofxRulr@@UEBA?AV?$basic_string@DU?$char_traits@D@std@@V?$allocator@D@2@@std@@XZ
	?getColor@Base@Nodes@ofxRulr@@QEAAAEBV?$ofColor_@E@@XZ
	?getColor@Base@Nodes@ofxRulr@@QEAAAEBV?$ofColor_@E@@XZ
	?getColor@Base@Nodes@ofxRulr@@QEAAAEBV?$ofColor_@E@@XZ
	?add@?$ElementGroup_@VBase@Panels@ofxCvGui@@@ofxCvGui@@QEAAXV?$shared_ptr@VBase@Panels@ofxCvGui@@@std@@@Z
	?add@?$ElementGroup_@VBase@Panels@ofxCvGui@@@ofxCvGui@@QEAAXV?$shared_ptr@VBase@Panels@ofxCvGui@@@std@@@Z
	?clear@?$ElementGroup_@VBase@Panels@ofxCvGui@@@ofxCvGui@@QEAAXXZ
	?clear@?$ElementGroup_@VBase@Panels@ofxCvGui@@@ofxCvGui@@QEAAXXZ
	??0Strip@Groups@Panels@ofxCvGui@@QEAA@W4Direction@0123@@Z
	??0Texture@Panels@ofxCvGui@@QEAA@AEBVofTexture@@@Z
	??0MultipleChoice@Widgets@ofxCvGui@@QEAA@V?$basic_string@DU?$char_traits@D@std@@V?$allocator@D@2@@std@@@Z
	?addOption@MultipleChoice@Widgets@ofxCvGui@@QEAAXV?$basic_string@DU?$char_traits@D@std@@V?$allocator@D@2@@std@@@Z
	?entangle@MultipleChoice@Widgets@ofxCvGui@@QEAAXAEAV?$ofParameter@H@@@Z
	??0RigidBody@Item@Nodes@ofxRulr@@QEAA@XZ
	?getTypeName@RigidBody@Item@Nodes@ofxRulr@@UEBA?AV?$basic_string@DU?$char_traits@D@std@@V?$allocator@D@2@@std@@XZ
	?getTypeName@RigidBody@Item@Nodes@ofxRulr@@UEBA?AV?$basic_string@DU?$char_traits@D@std@@V?$allocator@D@2@@std@@XZ
	?getTypeName@RigidBody@Item@Nodes@ofxRulr@@UEBA?AV?$basic_string@DU?$char_traits@D@std@@V?$allocator@D@2@@std@@XZ
	?getTypeName@RigidBody@Item@Nodes@ofxRulr@@UEBA?AV?$basic_string@DU?$char_traits@D@std@@V?$allocator@D@2@@std@@XZ
	?drawWorld@RigidBody@Item@Nodes@ofxRulr@@UEAAXXZ
	?drawWorld@RigidBody@Item@Nodes@ofxRulr@@UEAAXXZ
	?drawWorld@RigidBody@Item@Nodes@ofxRulr@@UEAAXXZ
	?drawWorld@RigidBody@Item@Nodes@ofxRulr@@UEAAXXZ
	?ofMap@@YAMMMMMM_N@Z
	?ofMap@@YAMMMMMM_N@Z
	?ofClamp@@YAMMMM@Z
	?ofClamp@@YAMMMM@Z
	??0?$ofColor_@E@@QEAA@MMMM@Z
	??0?$ofColor_@E@@QEAA@MMMM@Z
	??0?$ofColor_@E@@QEAA@MMMM@Z
	?limit@?$ofColor_@E@@SAMXZ
	?limit@?$ofColor_@E@@SAMXZ
	?limit@?$ofColor_@E@@SAMXZ
	?limit@?$ofColor_@E@@SAMXZ
	?limit@?$ofColor_@E@@SAMXZ
	??A?$ofColor_@E@@QEBAAEBE_K@Z
	??A?$ofColor_@E@@QEBAAEBE_K@Z
	?ofSystemAlertDialog@@YAXV?$basic_string@DU?$char_traits@D@std@@V?$allocator@D@2@@std@@@Z
	?ofSystemAlertDialog@@YAXV?$basic_string@DU?$char_traits@D@std@@V?$allocator@D@2@@std@@@Z
	?ofSystemTextBoxDialog@@YA?AV?$basic_string@DU?$char_traits@D@std@@V?$allocator@D@2@@std@@V12@0@Z
	?ofSystemTextBoxDialog@@YA?AV?$basic_string@DU?$char_traits@D@std@@V?$allocator@D@2@@std@@V12@0@Z
	??0ofRectangle@@QEAA@MMMM@Z
	??0ofRectangle@@QEAA@MMMM@Z
	??0ofMesh@@QEAA@XZ
	??0ofMesh@@QEAA@XZ
	??0ofMesh@@QEAA@XZ
	??0ofMesh@@QEAA@XZ
	?addVertex@ofMesh@@QEAAXAEBVofVec3f@@@Z
	?addVertex@ofMesh@@QEAAXAEBVofVec3f@@@Z
	?addVertex@ofMesh@@QEAAXAEBVofVec3f@@@Z
	?addColor@ofMesh@@QEAAXAEBV?$ofColor_@M@@@Z
	?addColor@ofMesh@@QEAAXAEBV?$ofColor_@M@@@Z
	?drawVertices@ofMesh@@QEBAXXZ
	?drawVertices@ofMesh@@QEBAXXZ
	?drawVertices@ofMesh@@QEBAXXZ
	?limit@?$ofColor_@M@@SAMXZ
	?limit@?$ofColor_@M@@SAMXZ
	??0ofPolyline@@QEAA@XZ
	??0ofPolyline@@QEAA@XZ
	?addVertex@ofPolyline@@QEAAXAEBVofVec3f@@@Z
	?addVertex@ofPolyline@@QEAAXAEBVofVec3f@@@Z
	?draw@ofPolyline@@QEBAXXZ
	?draw@ofPolyline@@QEBAXXZ
	??1ofNode@@UEAA@XZ
	??1ofNode@@UEAA@XZ
	??1ofNode@@UEAA@XZ
	?ofSetColor@@YAXHHH@Z
	?ofSetColor@@YAXHHH@Z
	?ofSetColor@@YAXHHH@Z
	?ofSetColor@@YAXHHH@Z
	?ofDrawCircle@@YAXAEBVofVec3f@@M@Z
	?ofDrawCircle@@YAXAEBVofVec3f@@M@Z
	?ofDrawLine@@YAXMMMM@Z
	?ofDrawLine@@YAXMMMM@Z
	??1?$ofPixels_@E@@QEAA@XZ
	??1?$ofPixels_@E@@QEAA@XZ
	??1?$ofPixels_@E@@QEAA@XZ
	??1?$ofPixels_@E@@QEAA@XZ
	??0?$ofPixels_@E@@QEAA@AEBV0@@Z
	??0?$ofPixels_@E@@QEAA@AEBV0@@Z
	?getPixels@?$ofPixels_@E@@QEAAPEAEXZ
	?getPixels@?$ofPixels_@E@@QEAAPEAEXZ
	?getPixels@?$ofPixels_@E@@QEAAPEAEXZ
	?getWidth@?$ofPixels_@E@@QEBAHXZ
	?getWidth@?$ofPixels_@E@@QEBAHXZ
	?getWidth@?$ofPixels_@E@@QEBAHXZ
	?getWidth@?$ofPixels_@E@@QEBAHXZ
	?getHeight@?$ofPixels_@E@@QEBAHXZ
	?getHeight@?$ofPixels_@E@@QEBAHXZ
	?getHeight@?$ofPixels_@E@@QEBAHXZ
	?getHeight@?$ofPixels_@E@@QEBAHXZ
	?getBytesPerChannel@?$ofPixels_@E@@QEBAHXZ
	?getBytesPerChannel@?$ofPixels_@E@@QEBAHXZ
	?getNumChannels@?$ofPixels_@E@@QEBAHXZ
	?getNumChannels@?$ofPixels_@E@@QEBAHXZ
	??0?$ofPixels_@M@@QEAA@XZ
	??0?$ofPixels_@M@@QEAA@XZ
	??1?$ofPixels_@M@@QEAA@XZ
	??1?$ofPixels_@M@@QEAA@XZ
	?getData@?$ofPixels_@M@@QEAAPEAMXZ
	?getData@?$ofPixels_@M@@QEAAPEAMXZ
	?getData@?$ofPixels_@M@@QEAAPEAMXZ
	?getWidth@?$ofPixels_@M@@QEBAHXZ
	?getWidth@?$ofPixels_@M@@QEBAHXZ
	?getStringBoundingBox@ofTrueTypeFont@@QEBA?AVofRectangle@@AEBV?$basic_string@DU?$char_traits@D@std@@V?$allocator@D@2@@std@@MM_N@Z
	?getStringBoundingBox@ofTrueTypeFont@@QEBA?AVofRectangle@@AEBV?$basic_string@DU?$char_traits@D@std@@V?$allocator@D@2@@std@@MM_N@Z
	?drawString@ofTrueTypeFont@@QEBAXAEBV?$basic_string@DU?$char_traits@D@std@@V?$allocator@D@2@@std@@MM@Z
	?drawString@ofTrueTypeFont@@QEBAXAEBV?$basic_string@DU?$char_traits@D@std@@V?$allocator@D@2@@std@@MM@Z
	??0Element@ofxCvGui@@QEAA@XZ
	??0Element@ofxCvGui@@QEAA@XZ
	?setBounds@Element@ofxCvGui@@QEAAXAEBVofRectangle@@@Z
	?setBounds@Element@ofxCvGui@@QEAAXAEBVofRectangle@@@Z
	?setHeight@Element@ofxCvGui@@QEAAXM@Z
	?setHeight@Element@ofxCvGui@@QEAAXM@Z
	?getWidth@Element@ofxCvGui@@QEBAMXZ
	?getWidth@Element@ofxCvGui@@QEBAMXZ
	?getCaption@Element@ofxCvGui@@QEBAAEBV?$basic_string@DU?$char_traits@D@std@@V?$allocator@D@2@@std@@XZ
	?getCaption@Element@ofxCvGui@@QEBAAEBV?$basic_string@DU?$char_traits@D@std@@V?$allocator@D@2@@std@@XZ
	?setEnabled@Element@ofxCvGui@@QEAAX_N@Z
	?setEnabled@Element@ofxCvGui@@QEAAX_N@Z
	?addListenersToParent@Element@ofxCvGui@@QEAAXPEAV12@_N@Z
	?addListenersToParent@Element@ofxCvGui@@QEAAXPEAV12@_N@Z
	?setup@PinView@Editor@Graph@ofxRulr@@QEAAXAEAVBase@Nodes@4@@Z
	?setup@PinView@Editor@Graph@ofxRulr@@QEAAXAEAVBase@Nodes@4@@Z
	??0AbstractPin@Graph@ofxRulr@@QEAA@V?$basic_string@DU?$char_traits@D@std@@V?$allocator@D@2@@std@@@Z
	??0AbstractPin@Graph@ofxRulr@@QEAA@V?$basic_string@DU?$char_traits@D@std@@V?$allocator@D@2@@std@@@Z
	??0Value@Json@@QEAA@N@Z
	??0Value@Json@@QEAA@N@Z
	??0Value@Json@@QEAA@AEBV?$basic_string@DU?$char_traits@D@std@@V?$allocator@D@2@@std@@@Z
	??1Value@Json@@QEAA@XZ
	??1Value@Json@@QEAA@XZ
	??4Value@Json@@QEAAAEAV01@AEBV01@@Z
	??4Value@Json@@QEAAAEAV01@AEBV01@@Z
	?asString@Value@Json@@QEBA?AV?$basic_string@DU?$char_traits@D@std@@V?$allocator@D@2@@std@@XZ
	?asFloat@Value@Json@@QEBAMXZ
	?asFloat@Value@Json@@QEBAMXZ
	??AValue@Json@@QEAAAEAV01@H@Z
	??AValue@Json@@QEAAAEAV01@H@Z
	?begin@Value@Json@@QEBA?AVValueConstIterator@2@XZ
	?begin@Value@Json@@QEBA?AVValueConstIterator@2@XZ
	?end@Value@Json@@QEBA?AVValueConstIterator@2@XZ
	?end@Value@Json@@QEBA?AVValueConstIterator@2@XZ
	?deref@ValueIteratorBase@Json@@IEBAAEAVValue@2@XZ
	?deref@ValueIteratorBase@Json@@IEBAAEAVValue@2@XZ
	?increment@ValueIteratorBase@Json@@IEAAXXZ
	?increment@ValueIteratorBase@Json@@IEAAXXZ
	?isEqual@ValueIteratorBase@Json@@IEBA_NAEBV12@@Z
	?isEqual@ValueIteratorBase@Json@@IEBA_NAEBV12@@Z
	??0Button@Widgets@ofxCvGui@@QEAA@V?$basic_string@DU?$char_traits@D@std@@V?$allocator@D@2@@std@@V?$function@$$A6AXXZ@4@D@Z
	??0Button@Widgets@ofxCvGui@@QEAA@V?$basic_string@DU?$char_traits@D@std@@V?$allocator@D@2@@std@@V?$function@$$A6AXXZ@4@D@Z
	?font@ofxAssets@@YAAEAVofTrueTypeFont@@AEBV?$basic_string@DU?$char_traits@D@std@@V?$allocator@D@2@@std@@H@Z
	?font@ofxAssets@@YAAEAVofTrueTypeFont@@AEBV?$basic_string@DU?$char_traits@D@std@@V?$allocator@D@2@@std@@H@Z
	?image@ofxAssets@@YAAEAV?$ofImage_@E@@AEBV?$basic_string@DU?$char_traits@D@std@@V?$allocator@D@2@@std@@@Z
	?image@ofxAssets@@YAAEAV?$ofImage_@E@@AEBV?$basic_string@DU?$char_traits@D@std@@V?$allocator@D@2@@std@@@Z
	?getIcon@Base@Nodes@ofxRulr@@QEAA?AV?$shared_ptr@V?$ofImage_@E@@@std@@XZ
	?getIcon@Base@Nodes@ofxRulr@@QEAA?AV?$shared_ptr@V?$ofImage_@E@@@std@@XZ
	?getInputPins@Base@Nodes@ofxRulr@@QEBAAEBV?$Set@VAbstractPin@Graph@ofxRulr@@@Utils@3@XZ
	?getInputPins@Base@Nodes@ofxRulr@@QEBAAEBV?$Set@VAbstractPin@Graph@ofxRulr@@@Utils@3@XZ
	?throwIfMissingAnyConnection@Base@Nodes@ofxRulr@@QEBAXXZ
	?throwIfMissingAnyConnection@Base@Nodes@ofxRulr@@QEBAXXZ
	?addInput@Base@Nodes@ofxRulr@@IEAAXV?$shared_ptr@VAbstractPin@Graph@ofxRulr@@@std@@@Z
	?addInput@Base@Nodes@ofxRulr@@IEAAXV?$shared_ptr@VAbstractPin@Graph@ofxRulr@@@std@@@Z
	??0Grid@Groups@Panels@ofxCvGui@@QEAA@XZ
	??0Draws@Panels@ofxCvGui@@QEAA@AEAVofBaseDraws@@@Z
	?toCv@ofxCv@@YAAEAV?$vector@V?$Point_@M@cv@@V?$allocator@V?$Point_@M@cv@@@std@@@std@@AEAV?$vector@VofVec2f@@V?$allocator@VofVec2f@@@std@@@3@@Z
	?toCv@ofxCv@@YAAEAV?$vector@V?$Point_@M@cv@@V?$allocator@V?$Point_@M@cv@@@std@@@std@@AEAV?$vector@VofVec2f@@V?$allocator@VofVec2f@@@std@@@3@@Z
	?toCv@ofxCv@@YAAEAV?$vector@V?$Point3_@M@cv@@V?$allocator@V?$Point3_@M@cv@@@std@@@std@@AEAV?$vector@VofVec3f@@V?$allocator@VofVec3f@@@std@@@3@@Z
	?findChessboardCornersPreTest@ofxCv@@YA_NVMat@cv@@V?$Size_@H@3@AEAV?$vector@V?$Point_@M@cv@@V?$allocator@V?$Point_@M@cv@@@std@@@std@@H@Z
	?findChessboardCornersPreTest@ofxCv@@YA_NVMat@cv@@V?$Size_@H@3@AEAV?$vector@V?$Point_@M@cv@@V?$allocator@V?$Point_@M@cv@@@std@@@std@@H@Z
	?getTransform@RigidBody@Item@Nodes@ofxRulr@@QEBA?AVofMatrix4x4@@XZ
	?setExtrinsics@RigidBody@Item@Nodes@ofxRulr@@QEAAXVMat@cv@@0_N@Z
	?getWidth@View@Item@Nodes@ofxRulr@@QEBAMXZ
	?getWidth@View@Item@Nodes@ofxRulr@@QEBAMXZ
	?getHeight@View@Item@Nodes@ofxRulr@@QEBAMXZ
	?getHeight@View@Item@Nodes@ofxRulr@@QEBAMXZ
	?getSize@View@Item@Nodes@ofxRulr@@QEBA?AV?$Size_@H@cv@@XZ
	?getCameraMatrix@View@Item@Nodes@ofxRulr@@QEBA?AVMat@cv@@XZ
	?getDistortionCoefficients@View@Item@Nodes@ofxRulr@@QEBA?AVMat@cv@@XZ
	??0Camera@Item@Nodes@ofxRulr@@QEAA@XZ
	?getGrabber@Camera@Item@Nodes@ofxRulr@@QEAA?AV?$shared_ptr@VSimple@Grabber@ofxMachineVision@@@std@@XZ
	?getFreshFrame@Camera@Item@Nodes@ofxRulr@@QEAA?AV?$shared_ptr@VFrame@ofxMachineVision@@@std@@XZ
	??0Board@Item@Nodes@ofxRulr@@QEAA@XZ
	?getSize@Board@Item@Nodes@ofxRulr@@QEBA?AV?$Size_@H@cv@@XZ
	?getObjectPoints@Board@Item@Nodes@ofxRulr@@QEBA?AV?$vector@V?$Point3_@M@cv@@V?$allocator@V?$Point3_@M@cv@@@std@@@std@@XZ
	??0ScopedProcess@Utils@ofxRulr@@QEAA@AEBV?$basic_string@DU?$char_traits@D@std@@V?$allocator@D@2@@std@@@Z
	??0ScopedProcess@Utils@ofxRulr@@QEAA@AEBV?$basic_string@DU?$char_traits@D@std@@V?$allocator@D@2@@std@@@Z
	??1ScopedProcess@Utils@ofxRulr@@QEAA@XZ
	??1ScopedProcess@Utils@ofxRulr@@QEAA@XZ
	?end@ScopedProcess@Utils@ofxRulr@@QEAAX_N@Z
	?end@ScopedProcess@Utils@ofxRulr@@QEAAX_N@Z
	??0ofVec2f@@QEAA@AEBVofVec3f@@@Z
	?getInverse@ofMatrix4x4@@QEBA?AV1@XZ
	?getInverse@ofMatrix4x4@@QEBA?AV1@XZ
	?getColors@ofMesh@@QEAAAEAV?$vector@V?$ofColor_@M@@V?$allocator@V?$ofColor_@M@@@std@@@std@@XZ
	?draw@ofMesh@@QEBAXXZ
	??X?$ofColor_@M@@QEAAAEAV0@AEBM@Z
	??1ofFbo@@UEAA@XZ
	?begin@ofFbo@@QEBAX_N@Z
	?end@ofFbo@@QEBAXXZ
	?ofSetColor@@YAXH@Z
	?ofSetColor@@YAXH@Z
	?ofDrawRectangle@@YAXMMMM@Z
	?ofTranslate@@YAXMMM@Z
	??AValue@Json@@QEBAAEBV01@H@Z
	?serialize@Serializable@Utils@ofxRulr@@SAXAEBV?$ofParameter@M@@AEAVValue@Json@@@Z
	?deserialize@Serializable@Utils@ofxRulr@@SAXAEAV?$ofParameter@M@@AEBVValue@Json@@@Z
	??0Slider@Widgets@ofxCvGui@@QEAA@AEAV?$ofParameter@M@@@Z
	?addIntValidator@Slider@Widgets@ofxCvGui@@QEAAXXZ
	??0Draws@Panels@ofxCvGui@@QEAA@XZ
	?setDrawObject@Draws@Panels@ofxCvGui@@QEAAXAEAVofBaseDraws@@@Z
	?clearDrawObject@Draws@Panels@ofxCvGui@@QEAAXXZ
	?toOf@ofxCv@@YAAEBV?$vector@VofVec3f@@V?$allocator@VofVec3f@@@std@@@std@@AEBV?$vector@V?$Point3_@M@cv@@V?$allocator@V?$Point3_@M@cv@@@std@@@3@@Z
	?makeMatrix@ofxCv@@YA?AVofMatrix4x4@@VMat@cv@@0@Z
	?makeCheckerboardPoints@ofxCv@@YA?AV?$vector@V?$Point3_@M@cv@@V?$allocator@V?$Point3_@M@cv@@@std@@@std@@V?$Size_@H@cv@@M_N@Z
	?makeCheckerboardMesh@ofxCv@@YA?AVofMesh@@V?$Size_@H@cv@@M_N@Z
	?calibrateProjector@ofxCv@@YAMAEAVMat@cv@@00V?$vector@VofVec3f@@V?$allocator@VofVec3f@@@std@@@std@@V?$vector@VofVec2f@@V?$allocator@VofVec2f@@@std@@@5@HHMM_NH@Z
	?setTransform@RigidBody@Item@Nodes@ofxRulr@@QEAAXAEBVofMatrix4x4@@@Z
	?setWidth@View@Item@Nodes@ofxRulr@@QEAAXM@Z
	?setHeight@View@Item@Nodes@ofxRulr@@QEAAXM@Z
	?setIntrinsics@View@Item@Nodes@ofxRulr@@QEAAXVMat@cv@@0@Z
	??0Projector@Item@Nodes@ofxRulr@@QEAA@XZ
	??0VideoOutput@System@Nodes@ofxRulr@@QEAA@XZ
	?getWidth@VideoOutput@System@Nodes@ofxRulr@@QEBAMXZ
	?getHeight@VideoOutput@System@Nodes@ofxRulr@@QEBAMXZ
	?isWindowOpen@VideoOutput@System@Nodes@ofxRulr@@QEBA_NXZ
	?getFbo@VideoOutput@System@Nodes@ofxRulr@@QEAAAEAVofFbo@@XZ
	?fromHex@?$ofColor_@E@@SA?AV1@HM@Z
	?setMode@ofMesh@@QEAAXW4ofPrimitiveMode@@@Z
	?setMode@ofMesh@@QEAAXW4ofPrimitiveMode@@@Z
	?getVertices@ofMesh@@QEAAAEAV?$vector@VofVec3f@@V?$allocator@VofVec3f@@@std@@@std@@XZ
	?getVertices@ofMesh@@QEAAAEAV?$vector@VofVec3f@@V?$allocator@VofVec3f@@@std@@@std@@XZ
	?addIndices@ofMesh@@QEAAXPEBI_K@Z
	?addIndices@ofMesh@@QEAAXPEBI_K@Z
	?drawWireframe@ofMesh@@QEBAXXZ
	?drawWireframe@ofMesh@@QEBAXXZ
	?drawFaces@ofMesh@@QEBAXXZ
	?drawFaces@ofMesh@@QEBAXXZ
	??0ofTexture@@QEAA@XZ
	??1ofTexture@@UEAA@XZ
	?clear@ofTexture@@QEAAXXZ
	?loadData@ofTexture@@QEAAXAEBV?$ofPixels_@E@@@Z
	?loadData@ofTexture@@QEAAXAEBV?$ofPixels_@E@@@Z
	?loadData@ofTexture@@QEAAXAEBV?$ofPixels_@G@@@Z
	?ofGetStyle@@YA?AVofStyle@@XZ
	?ofPushMatrix@@YAXXZ
	?ofPushMatrix@@YAXXZ
	?ofPopMatrix@@YAXXZ
	?ofPopMatrix@@YAXXZ
	?ofScale@@YAXMMM@Z
	??0?$ofPixels_@E@@QEAA@XZ
	??0?$ofPixels_@E@@QEAA@XZ
	?allocate@?$ofPixels_@E@@QEAAXHHW4ofImageType@@@Z
	?allocate@?$ofPixels_@E@@QEAAXHHW4ofImageType@@@Z
	?getData@?$ofPixels_@E@@QEAAPEAEXZ
	??0?$ofPixels_@G@@QEAA@XZ
	??1?$ofPixels_@G@@QEAA@XZ
	?allocate@?$ofPixels_@G@@QEAAXHHW4ofImageType@@@Z
	?getData@?$ofPixels_@G@@QEAAPEAGXZ
	?getData@?$ofPixels_@G@@QEAAPEAGXZ
	?getWidth@?$ofPixels_@G@@QEBAHXZ
	?getWidth@?$ofPixels_@G@@QEBAHXZ
	?getHeight@?$ofPixels_@G@@QEBAHXZ
	?getHeight@?$ofPixels_@G@@QEBAHXZ
	?setHue@?$ofColor_@E@@QEAAXM@Z
	??0ofNode@@QEAA@XZ
	?getGlobalTransformMatrix@ofNode@@QEBA?AVofMatrix4x4@@XZ
	?boom@ofNode@@QEAAXM@Z
	?lookAt@ofNode@@QEAAXAEBVofVec3f@@@Z
	?ofCircle@@YAXMMM@Z
	?ofCircle@@YAXAEBVofVec3f@@M@Z
	?ofLine@@YAXAEBVofVec3f@@0@Z
	?ofLine@@YAXAEBVofVec3f@@0@Z
	?ofEnableAlphaBlending@@YAXXZ
	?ofDisableAlphaBlending@@YAXXZ
	??0?$ofColor_@E@@QEAA@MM@Z
	?bind@ofTexture@@QEBAXH@Z
	?unbind@ofTexture@@QEBAXH@Z
	?ofDrawGridPlane@@YAXM_K_N@Z
	?ofSetColor@@YAXAEBV?$ofColor_@E@@H@Z
	?ofRotate@@YAXMMMM@Z
	?ofMultMatrix@@YAXAEBVofMatrix4x4@@@Z
	?getNumVertices@ofMesh@@QEBA_KXZ
	?getVerticesPointer@ofMesh@@QEAAPEAVofVec3f@@XZ
	?enableNormals@ofMesh@@UEAAXXZ
	?disableNormals@ofMesh@@UEAAXXZ
	?usingNormals@ofMesh@@UEBA_NXZ
	?enableColors@ofMesh@@UEAAXXZ
	?disableColors@ofMesh@@UEAAXXZ
	?usingColors@ofMesh@@UEBA_NXZ
	?getNumTexCoords@ofMesh@@QEBA_KXZ
	?getTexCoordsPointer@ofMesh@@QEAAPEAVofVec2f@@XZ
	?getTexCoords@ofMesh@@QEAAAEAV?$vector@VofVec2f@@V?$allocator@VofVec2f@@@std@@@std@@XZ
	?enableTextures@ofMesh@@UEAAXXZ
	?disableTextures@ofMesh@@UEAAXXZ
	?usingTextures@ofMesh@@UEBA_NXZ
	?getNumIndices@ofMesh@@QEBA_KXZ
	?getIndexPointer@ofMesh@@QEAAPEAIXZ
	?enableIndices@ofMesh@@UEAAXXZ
	?disableIndices@ofMesh@@UEAAXXZ
	?usingIndices@ofMesh@@UEBA_NXZ
	?draw@ofMesh@@UEBAXW4ofPolyRenderMode@@@Z
	??0ofVbo@@QEAA@XZ
	??0ofVbo@@QEAA@AEBV0@@Z
	??1ofVbo@@QEAA@XZ
	?setVertexData@ofVbo@@QEAAXPEBVofVec3f@@HH@Z
	?setVertexData@ofVbo@@QEAAXPEBVofVec2f@@HH@Z
	?setIndexData@ofVbo@@QEAAXPEBIHH@Z
	?getPixels@?$ofPixels_@G@@QEAAPEAGXZ
	?getPixels@?$ofPixels_@G@@QEBAPEBGXZ
	?allocate@?$ofPixels_@M@@QEAAXHHW4ofPixelFormat@@@Z
	?allocate@?$ofPixels_@E@@QEAAXHHW4ofPixelFormat@@@Z
	?size@?$ofPixels_@E@@QEBAHXZ
	??0Exception@ofxRulr@@QEAA@V?$basic_string@DU?$char_traits@D@std@@V?$allocator@D@2@@std@@@Z
	??0Exception@ofxRulr@@QEAA@V?$basic_string@DU?$char_traits@D@std@@V?$allocator@D@2@@std@@@Z
	?what@Exception@ofxRulr@@UEBAPEBDXZ
	?what@Exception@ofxRulr@@UEBAPEBDXZ
	?limit@?$ofColor_@E@@SAMXZ
	?limit@?$ofColor_@E@@SAMXZ
	?limit@?$ofColor_@E@@SAMXZ
	?limit@?$ofColor_@E@@SAMXZ
	?limit@?$ofColor_@E@@SAMXZ
	?limit@?$ofColor_@E@@SAMXZ
	?setup@PinView@Editor@Graph@ofxRulr@@QEAAXAEAVBase@Nodes@4@@Z
	?setup@PinView@Editor@Graph@ofxRulr@@QEAAXAEAVBase@Nodes@4@@Z
	??0AbstractPin@Graph@ofxRulr@@QEAA@V?$basic_string@DU?$char_traits@D@std@@V?$allocator@D@2@@std@@@Z
	??0AbstractPin@Graph@ofxRulr@@QEAA@V?$basic_string@DU?$char_traits@D@std@@V?$allocator@D@2@@std@@@Z
	?type@ofAbstractParameter@@UEBA?AV?$basic_string@DU?$char_traits@D@std@@V?$allocator@D@2@@std@@XZ
	?type@ofAbstractParameter@@UEBA?AV?$basic_string@DU?$char_traits@D@std@@V?$allocator@D@2@@std@@XZ
	?type@ofAbstractParameter@@UEBA?AV?$basic_string@DU?$char_traits@D@std@@V?$allocator@D@2@@std@@XZ
	?getEscapedName@ofAbstractParameter@@UEBA?AV?$basic_string@DU?$char_traits@D@std@@V?$allocator@D@2@@std@@XZ
	?getEscapedName@ofAbstractParameter@@UEBA?AV?$basic_string@DU?$char_traits@D@std@@V?$allocator@D@2@@std@@XZ
	?getEscapedName@ofAbstractParameter@@UEBA?AV?$basic_string@DU?$char_traits@D@std@@V?$allocator@D@2@@std@@XZ
	?getName@ofParameterGroup@@UEBA?AV?$basic_string@DU?$char_traits@D@std@@V?$allocator@D@2@@std@@XZ
	?getName@ofParameterGroup@@UEBA?AV?$basic_string@DU?$char_traits@D@std@@V?$allocator@D@2@@std@@XZ
	?setName@ofParameterGroup@@UEAAXAEBV?$basic_string@DU?$char_traits@D@std@@V?$allocator@D@2@@std@@@Z
	?setName@ofParameterGroup@@UEAAXAEBV?$basic_string@DU?$char_traits@D@std@@V?$allocator@D@2@@std@@@Z
	?getEscapedName@ofParameterGroup@@UEBA?AV?$basic_string@DU?$char_traits@D@std@@V?$allocator@D@2@@std@@XZ
	?getEscapedName@ofParameterGroup@@UEBA?AV?$basic_string@DU?$char_traits@D@std@@V?$allocator@D@2@@std@@XZ
	?toString@ofParameterGroup@@UEBA?AV?$basic_string@DU?$char_traits@D@std@@V?$allocator@D@2@@std@@XZ
	?toString@ofParameterGroup@@UEBA?AV?$basic_string@DU?$char_traits@D@std@@V?$allocator@D@2@@std@@XZ
	?fromString@ofParameterGroup@@UEAAXAEBV?$basic_string@DU?$char_traits@D@std@@V?$allocator@D@2@@std@@@Z
	?fromString@ofParameterGroup@@UEAAXAEBV?$basic_string@DU?$char_traits@D@std@@V?$allocator@D@2@@std@@@Z
	?setSerializable@ofParameterGroup@@UEAAX_N@Z
	?setSerializable@ofParameterGroup@@UEAAX_N@Z
	?isSerializable@ofParameterGroup@@UEBA_NXZ
	?isSerializable@ofParameterGroup@@UEBA_NXZ
	?isReadOnly@ofParameterGroup@@UEBA_NXZ
	?isReadOnly@ofParameterGroup@@UEBA_NXZ
	?newReference@ofParameterGroup@@UEBA?AV?$shared_ptr@VofAbstractParameter@@@std@@XZ
	?newReference@ofParameterGroup@@UEBA?AV?$shared_ptr@VofAbstractParameter@@@std@@XZ
	?setParent@ofParameterGroup@@UEAAXAEAV1@@Z
	?setParent@ofParameterGroup@@UEAAXAEAV1@@Z
	?notifyParameterChanged@Value@ofParameterGroup@@QEAAXAEAVofAbstractParameter@@@Z
	?notifyParameterChanged@Value@ofParameterGroup@@QEAAXAEAVofAbstractParameter@@@Z
	?getFirstParent@ofParameterGroup@@EEBA?BV1@XZ
	?getFirstParent@ofParameterGroup@@EEBA?BV1@XZ
	?getName@Base@Nodes@ofxRulr@@UEBA?AV?$basic_string@DU?$char_traits@D@std@@V?$allocator@D@2@@std@@XZ
	?getName@Base@Nodes@ofxRulr@@UEBA?AV?$basic_string@DU?$char_traits@D@std@@V?$allocator@D@2@@std@@XZ
	?getIcon@Base@Nodes@ofxRulr@@QEAA?AV?$shared_ptr@V?$ofImage_@E@@@std@@XZ
	?getIcon@Base@Nodes@ofxRulr@@QEAA?AV?$shared_ptr@V?$ofImage_@E@@@std@@XZ
	?getColor@Base@Nodes@ofxRulr@@QEAAAEBV?$ofColor_@E@@XZ
	?getColor@Base@Nodes@ofxRulr@@QEAAAEBV?$ofColor_@E@@XZ
	?getInputPins@Base@Nodes@ofxRulr@@QEBAAEBV?$Set@VAbstractPin@Graph@ofxRulr@@@Utils@3@XZ
	?getInputPins@Base@Nodes@ofxRulr@@QEBAAEBV?$Set@VAbstractPin@Graph@ofxRulr@@@Utils@3@XZ
	?addInput@Base@Nodes@ofxRulr@@IEAAXV?$shared_ptr@VAbstractPin@Graph@ofxRulr@@@std@@@Z
	?addInput@Base@Nodes@ofxRulr@@IEAAXV?$shared_ptr@VAbstractPin@Graph@ofxRulr@@@std@@@Z
	??0Channel@Channels@Data@ofxRulr@@QEAA@AEBV?$basic_string@DU?$char_traits@D@std@@V?$allocator@D@2@@std@@@Z
	??0Channel@Channels@Data@ofxRulr@@QEAA@AEBV?$basic_string@DU?$char_traits@D@std@@V?$allocator@D@2@@std@@@Z
	??AChannel@Channels@Data@ofxRulr@@QEAAAEAV0123@AEBV?$basic_string@DU?$char_traits@D@std@@V?$allocator@D@2@@std@@@Z
	?removeSubChannel@Channel@Channels@Data@ofxRulr@@QEAAXAEBV?$basic_string@DU?$char_traits@D@std@@V?$allocator@D@2@@std@@@Z
	??0Base@Generator@Channels@Data@Nodes@ofxRulr@@QEAA@XZ
	?getPosition@RigidBody@Item@Nodes@ofxRulr@@QEBA?AVofVec3f@@XZ
	?getRotationQuat@RigidBody@Item@Nodes@ofxRulr@@QEBA?AVofQuaternion@@XZ
	?fromHex@?$ofColor_@E@@SA?AV1@HM@Z
	?fromHex@?$ofColor_@E@@SA?AV1@HM@Z
	??0ofRectangle@@QEAA@MMMM@Z
	??0ofRectangle@@QEAA@AEBV0@@Z
	?drawText@Utils@ofxCvGui@@YA?AVofRectangle@@AEBV?$basic_string@DU?$char_traits@D@std@@V?$allocator@D@2@@std@@AEBV3@_N2@Z
	?ofDrawLine@@YAXMMMM@Z
	?ofSetLineWidth@@YAXM@Z
	?ofSetLineWidth@@YAXM@Z
	?ofSetLineWidth@@YAXM@Z
	?ofPushStyle@@YAXXZ
	?ofPushStyle@@YAXXZ
	?ofPushStyle@@YAXXZ
	?ofPopStyle@@YAXXZ
	?ofPopStyle@@YAXXZ
	?ofPopStyle@@YAXXZ
	?ofGetElapsedTimeMillis@@YA_KXZ
	??0Element@ofxCvGui@@QEAA@XZ
	?setBounds@Element@ofxCvGui@@QEAAXAEBVofRectangle@@@Z
	?setHeight@Element@ofxCvGui@@QEAAXM@Z
	?getWidth@Element@ofxCvGui@@QEBAMXZ
	?setCaption@Element@ofxCvGui@@QEAAXV?$basic_string@DU?$char_traits@D@std@@V?$allocator@D@2@@std@@@Z
	?getCaption@Element@ofxCvGui@@QEBAAEBV?$basic_string@DU?$char_traits@D@std@@V?$allocator@D@2@@std@@XZ
	?setEnabled@Element@ofxCvGui@@QEAAX_N@Z
	?addListenersToParent@Element@ofxCvGui@@QEAAXPEAV12@_N@Z
	??6@YAAEAV?$basic_ostream@DU?$char_traits@D@std@@@std@@AEAV01@AEBVofAbstractParameter@@@Z
	?serialize@Serializable@Utils@ofxRulr@@SAXAEBV?$ofParameter@H@@AEAVValue@Json@@@Z
	?serialize@Serializable@Utils@ofxRulr@@SAXAEBV?$ofParameter@_N@@AEAVValue@Json@@@Z
	?deserialize@Serializable@Utils@ofxRulr@@SAXAEAV?$ofParameter@H@@AEBVValue@Json@@@Z
	?deserialize@Serializable@Utils@ofxRulr@@SAXAEAV?$ofParameter@_N@@AEBVValue@Json@@@Z
	??0Scroll@Panels@ofxCvGui@@QEAA@XZ
	?add@Scroll@Panels@ofxCvGui@@QEAAXV?$shared_ptr@VElement@ofxCvGui@@@std@@@Z
	?clear@Scroll@Panels@ofxCvGui@@QEAAXXZ
	?ofSystemTextBoxDialog@@YA?AV?$basic_string@DU?$char_traits@D@std@@V?$allocator@D@2@@std@@V12@0@Z
	?getStringBoundingBox@ofTrueTypeFont@@QEBA?AVofRectangle@@AEBV?$basic_string@DU?$char_traits@D@std@@V?$allocator@D@2@@std@@MM_N@Z
	?drawString@ofTrueTypeFont@@QEBAXAEBV?$basic_string@DU?$char_traits@D@std@@V?$allocator@D@2@@std@@MM@Z
	?font@ofxAssets@@YAAEAVofTrueTypeFont@@AEBV?$basic_string@DU?$char_traits@D@std@@V?$allocator@D@2@@std@@H@Z
	?image@ofxAssets@@YAAEAV?$ofImage_@E@@AEBV?$basic_string@DU?$char_traits@D@std@@V?$allocator@D@2@@std@@@Z
	??0Indicator@Widgets@ofxCvGui@@QEAA@V?$basic_string@DU?$char_traits@D@std@@V?$allocator@D@2@@std@@V?$function@$$A6A?AW4Status@Indicator@Widgets@ofxCvGui@@XZ@4@@Z
	??0Title@Widgets@ofxCvGui@@QEAA@V?$basic_string@DU?$char_traits@D@std@@V?$allocator@D@2@@std@@W4Level@012@@Z
	??0Base@Nodes@ofxRulr@@QEAA@XZ
	?getSubChannels@Channel@Channels@Data@ofxRulr@@QEAAAEAV?$map@V?$basic_string@DU?$char_traits@D@std@@V?$allocator@D@2@@std@@V?$shared_ptr@VChannel@Channels@Data@ofxRulr@@@2@U?$less@V?$basic_string@DU?$char_traits@D@std@@V?$allocator@D@2@@std@@@2@V?$allocator@U?$pair@$$CBV?$basic_string@DU?$char_traits@D@std@@V?$allocator@D@2@@std@@V?$shared_ptr@VChannel@Channels@Data@ofxRulr@@@2@@std@@@2@@std@@XZ
	?getValueType@Channel@Channels@Data@ofxRulr@@QEBA?AW4Type@1234@XZ
	??0Database@Channels@Data@Nodes@ofxRulr@@QEAA@XZ
	?getRootChannel@Database@Channels@Data@Nodes@ofxRulr@@QEAA?AV?$shared_ptr@VChannel@Channels@Data@ofxRulr@@@std@@XZ
	??0?$ofColor_@E@@QEAA@MMMM@Z
	?setHue@?$ofColor_@E@@QEAAXM@Z
	?getInverse@ofMatrix4x4@@QEBA?AV1@XZ
	??0ofNode@@QEAA@XZ
	??1ofNode@@UEAA@XZ
	?getGlobalTransformMatrix@ofNode@@QEBA?AVofMatrix4x4@@XZ
	?boom@ofNode@@QEAAXM@Z
	?lookAt@ofNode@@QEAAXAEBVofVec3f@@@Z
	?ofSetColor@@YAXHHH@Z
	?ofSetColor@@YAXHHH@Z
	?ofSetColor@@YAXAEBV?$ofColor_@E@@@Z
	?ofSetColor@@YAXH@Z
	?ofCircle@@YAXMMM@Z
	?ofCircle@@YAXAEBVofVec3f@@M@Z
	?ofLine@@YAXAEBVofVec3f@@0@Z
	?ofLine@@YAXAEBVofVec3f@@0@Z
	?ofEnableAlphaBlending@@YAXXZ
	?ofDisableAlphaBlending@@YAXXZ
	??0?$ofColor_@E@@QEAA@MM@Z
	?drawVertices@ofMesh@@QEBAXXZ
	?drawWireframe@ofMesh@@QEBAXXZ
	?drawWireframe@ofMesh@@QEBAXXZ
	?drawFaces@ofMesh@@QEBAXXZ
	?drawFaces@ofMesh@@QEBAXXZ
	?bind@ofTexture@@QEBAXH@Z
	?unbind@ofTexture@@QEBAXH@Z
	?ofDrawGridPlane@@YAXM_K_N@Z
	?ofSetColor@@YAXAEBV?$ofColor_@E@@H@Z
	?ofNoFill@@YAXXZ
	?ofPushMatrix@@YAXXZ
	?ofPushMatrix@@YAXXZ
	?ofPopMatrix@@YAXXZ
	?ofPopMatrix@@YAXXZ
	?ofRotate@@YAXMMMM@Z
	?ofMultMatrix@@YAXAEBVofMatrix4x4@@@Z
	??0ofMesh@@QEAA@XZ
	??0ofMesh@@QEAA@XZ
	?setMode@ofMesh@@QEAAXW4ofPrimitiveMode@@@Z
	?setMode@ofMesh@@QEAAXW4ofPrimitiveMode@@@Z
	?addVertex@ofMesh@@QEAAXAEBVofVec3f@@@Z
	?getVertices@ofMesh@@QEAAAEAV?$vector@VofVec3f@@V?$allocator@VofVec3f@@@std@@@std@@XZ
	?getVertices@ofMesh@@QEAAAEAV?$vector@VofVec3f@@V?$allocator@VofVec3f@@@std@@@std@@XZ
	?addIndices@ofMesh@@QEAAXPEBI_K@Z
	?addIndices@ofMesh@@QEAAXPEBI_K@Z
	??0ofTexture@@QEAA@XZ
	??1ofTexture@@UEAA@XZ
	?clear@ofTexture@@QEAAXXZ
	?loadData@ofTexture@@QEAAXAEBV?$ofPixels_@E@@@Z
	?loadData@ofTexture@@QEAAXAEBV?$ofPixels_@E@@@Z
	?loadData@ofTexture@@QEAAXAEBV?$ofPixels_@G@@@Z
	?ofGetStyle@@YA?AVofStyle@@XZ
	?ofScale@@YAXMMM@Z
	??0?$ofPixels_@E@@QEAA@XZ
	??0?$ofPixels_@E@@QEAA@XZ
	??1?$ofPixels_@E@@QEAA@XZ
	??1?$ofPixels_@E@@QEAA@XZ
	?allocate@?$ofPixels_@E@@QEAAXHHW4ofImageType@@@Z
	?allocate@?$ofPixels_@E@@QEAAXHHW4ofImageType@@@Z
	?getData@?$ofPixels_@E@@QEAAPEAEXZ
	?getWidth@?$ofPixels_@E@@QEBAHXZ
	?getWidth@?$ofPixels_@E@@QEBAHXZ
	?getHeight@?$ofPixels_@E@@QEBAHXZ
	?getHeight@?$ofPixels_@E@@QEBAHXZ
	??0?$ofPixels_@G@@QEAA@XZ
	??1?$ofPixels_@G@@QEAA@XZ
	?allocate@?$ofPixels_@G@@QEAAXHHW4ofImageType@@@Z
	?getData@?$ofPixels_@G@@QEAAPEAGXZ
	?getData@?$ofPixels_@G@@QEAAPEAGXZ
	?getWidth@?$ofPixels_@G@@QEBAHXZ
	?getWidth@?$ofPixels_@G@@QEBAHXZ
	?getHeight@?$ofPixels_@G@@QEBAHXZ
	?getHeight@?$ofPixels_@G@@QEBAHXZ
	?getNumVertices@ofMesh@@QEBA_KXZ
	?getVerticesPointer@ofMesh@@QEAAPEAVofVec3f@@XZ
	?enableNormals@ofMesh@@UEAAXXZ
	?disableNormals@ofMesh@@UEAAXXZ
	?usingNormals@ofMesh@@UEBA_NXZ
	?enableColors@ofMesh@@UEAAXXZ
	?disableColors@ofMesh@@UEAAXXZ
	?usingColors@ofMesh@@UEBA_NXZ
	?getNumTexCoords@ofMesh@@QEBA_KXZ
	?getTexCoordsPointer@ofMesh@@QEAAPEAVofVec2f@@XZ
	?getTexCoords@ofMesh@@QEAAAEAV?$vector@VofVec2f@@V?$allocator@VofVec2f@@@std@@@std@@XZ
	?enableTextures@ofMesh@@UEAAXXZ
	?disableTextures@ofMesh@@UEAAXXZ
	?usingTextures@ofMesh@@UEBA_NXZ
	?getNumIndices@ofMesh@@QEBA_KXZ
	?getIndexPointer@ofMesh@@QEAAPEAIXZ
	?enableIndices@ofMesh@@UEAAXXZ
	?disableIndices@ofMesh@@UEAAXXZ
	?usingIndices@ofMesh@@UEBA_NXZ
	?draw@ofMesh@@UEBAXW4ofPolyRenderMode@@@Z
	??0ofVbo@@QEAA@XZ
	??0ofVbo@@QEAA@AEBV0@@Z
	??1ofVbo@@QEAA@XZ
	?setVertexData@ofVbo@@QEAAXPEBVofVec3f@@HH@Z
	?setVertexData@ofVbo@@QEAAXPEBVofVec2f@@HH@Z
	?setIndexData@ofVbo@@QEAAXPEBIHH@Z
	?getPixels@?$ofPixels_@G@@QEAAPEAGXZ
	?getPixels@?$ofPixels_@G@@QEBAPEBGXZ
	?allocate@?$ofPixels_@M@@QEAAXHHW4ofPixelFormat@@@Z
	?getData@?$ofPixels_@M@@QEAAPEAMXZ
	?allocate@?$ofPixels_@E@@QEAAXHHW4ofPixelFormat@@@Z
	?getPixels@?$ofPixels_@E@@QEAAPEAEXZ
	?size@?$ofPixels_@E@@QEBAHXZ
	?getDefaultTypeface@ofxCvGui@@YA?AV?$basic_string@DU?$char_traits@D@std@@V?$allocator@D@2@@std@@XZ
