Library Cored_x64
EXPORTS
	??$?0AEBV?$allocator@D@std@@$$V@?$_Compressed_pair@U?$_Wrap_alloc@V?$allocator@D@std@@@std@@V?$_String_val@U?$_Simple_types@D@std@@@2@$00@std@@QEAA@U_One_then_variadic_args_t@1@AEBV?$allocator@D@1@@Z
	??$?0D@?$allocator@U_Container_proxy@std@@@std@@QEAA@AEBV?$allocator@D@1@@Z
	??$?0U?$_Wrap_alloc@V?$allocator@D@std@@@std@@@?$_Wrap_alloc@V?$allocator@U_Container_proxy@std@@@std@@@std@@QEAA@AEAU?$_Wrap_alloc@V?$allocator@D@std@@@1@@Z
	??$_Addressof@D@std@@YAPEADAEADU?$integral_constant@_N$0A@@0@@Z
	??$_Debug_pointer@$$CBD@std@@YAXPEBDPEB_WI@Z
	??$_Debug_pointer_if@$$CBD@std@@YAX_NPEBDPEB_WI@Z
	??$addressof@D@std@@YAPEADAEAD@Z
	??$construct@PEADAEAPEAD@?$_Wrap_alloc@V?$allocator@D@std@@@std@@QEAAXPEAPEADAEAPEAD@Z
	??$construct@PEADAEAPEAD@?$allocator@D@std@@QEAAXPEAPEADAEAPEAD@Z
	??$construct@PEADAEAPEAD@?$allocator_traits@V?$allocator@D@std@@@std@@SAXAEAV?$allocator@D@1@PEAPEADAEAPEAD@Z
	??$construct@U_Container_proxy@std@@U12@@?$_Wrap_alloc@V?$allocator@U_Container_proxy@std@@@std@@@std@@QEAAXPEAU_Container_proxy@1@$$QEAU21@@Z
	??$construct@U_Container_proxy@std@@U12@@?$allocator@U_Container_proxy@std@@@std@@QEAAXPEAU_Container_proxy@1@$$QEAU21@@Z
	??$construct@U_Container_proxy@std@@U12@@?$allocator_traits@V?$allocator@U_Container_proxy@std@@@std@@@std@@SAXAEAV?$allocator@U_Container_proxy@std@@@1@PEAU_Container_proxy@1@$$QEAU31@@Z
	??$destroy@PEAD@?$_Wrap_alloc@V?$allocator@D@std@@@std@@QEAAXPEAPEAD@Z
	??$destroy@PEAD@?$allocator@D@std@@QEAAXPEAPEAD@Z
	??$destroy@PEAD@?$allocator_traits@V?$allocator@D@std@@@std@@SAXAEAV?$allocator@D@1@PEAPEAD@Z
	??$destroy@U_Container_proxy@std@@@?$_Wrap_alloc@V?$allocator@U_Container_proxy@std@@@std@@@std@@QEAAXPEAU_Container_proxy@1@@Z
	??$destroy@U_Container_proxy@std@@@?$allocator@U_Container_proxy@std@@@std@@QEAAXPEAU_Container_proxy@1@@Z
	??$destroy@U_Container_proxy@std@@@?$allocator_traits@V?$allocator@U_Container_proxy@std@@@std@@@std@@SAXAEAV?$allocator@U_Container_proxy@std@@@1@PEAU_Container_proxy@1@@Z
	??$forward@AEAPEAD@std@@YAAEAPEADAEAPEAD@Z
	??$forward@AEBV?$allocator@D@std@@@std@@YAAEBV?$allocator@D@0@AEBV10@@Z
	??$forward@U_Container_proxy@std@@@std@@YA$$QEAU_Container_proxy@0@AEAU10@@Z
	??0?$_String_alloc@U?$_String_base_types@DV?$allocator@D@std@@@std@@@std@@QEAA@AEBV?$allocator@D@1@@Z
	??0?$_String_val@U?$_Simple_types@D@std@@@std@@QEAA@XZ
	??0?$_Wrap_alloc@V?$allocator@D@std@@@std@@QEAA@AEBV?$allocator@D@1@@Z
	??0?$allocator@D@std@@QEAA@AEBV01@@Z
	??0?$allocator@D@std@@QEAA@XZ
	??0?$basic_string@DU?$char_traits@D@std@@V?$allocator@D@2@@std@@QEAA@PEBD@Z
	??0_Container_base12@std@@QEAA@XZ
	??0_Container_proxy@std@@QEAA@XZ
	??1?$_Compressed_pair@U?$_Wrap_alloc@V?$allocator@D@std@@@std@@V?$_String_val@U?$_Simple_types@D@std@@@2@$00@std@@QEAA@XZ
	??1?$_String_alloc@U?$_String_base_types@DV?$allocator@D@std@@@std@@@std@@QEAA@XZ
	??1?$_String_val@U?$_Simple_types@D@std@@@std@@QEAA@XZ
	??1?$basic_string@DU?$char_traits@D@std@@V?$allocator@D@2@@std@@QEAA@XZ
	??1_Container_base12@std@@QEAA@XZ
	??2@YAPEAX_KPEAX@Z
	??_C@_05CHMOINJH@serif?$AA@
	??_C@_09GLJCAGLP@_Ptr?5?$CB?$DN?50?$AA@
	??_C@_09KGMMDNOE@monospace?$AA@
	??_C@_0BA@JFNIOLAK@string?5too?5long?$AA@
	??_C@_0BE@LMNLACIC@_Ptr_container?5?$CB?$DN?50?$AA@
	??_C@_0BI@CFPLBAOH@invalid?5string?5position?$AA@
	??_C@_0BL@OCKMEJON@_Ptr_container?5?$DM?5_Ptr_user?$AA@
	??_C@_0BN@HMCJOMKN@_Count?5?$DM?$DN?5?$CIsize_t?$CJ?$CI?91?$CJ?5?1?5_Sz?$AA@
	??_C@_0CN@BLHJCAL@_Ptr_user?5?9?5_Ptr_container?5?$DM?$DN?5_N@
	??_C@_0DB@GLFJLNCE@2?5?$CK?5sizeof?$CIvoid?5?$CK?$CJ?5?$DM?$DN?5_Ptr_user?5@
	??_C@_0DD@GBGGGKGG@?$CI_Ptr_user?5?$CG?5?$CI_BIG_ALLOCATION_AL@
	??_C@_0EI@NOJHEJCJ@reinterpret_cast?$DMuintptr_t?5?$CK?$DO?$CI_P@
	??_C@_0L@LMHKFCHN@sans?9serif?$AA@
	??_C@_17CNPHIMPH@?$AA?$CF?$AAl?$AAs?$AA?$AA@
	??_C@_1BO@NKFMJPA@?$AAs?$AAt?$AAd?$AA?3?$AA?3?$AA_?$AAA?$AAl?$AAl?$AAo?$AAc?$AAa?$AAt?$AAe?$AA?$AA@
	??_C@_1CC@GKJLLHIM@?$AA?$CC?$AA_?$AAP?$AAt?$AAr?$AA?5?$AA?$CB?$AA?$DN?$AA?5?$AA0?$AA?$CC?$AA?5?$AA?$CG?$AA?$CG?$AA?5?$AA0?$AA?$AA@
	??_C@_1CC@LOFJFFDB@?$AAs?$AAt?$AAd?$AA?3?$AA?3?$AA_?$AAD?$AAe?$AAa?$AAl?$AAl?$AAo?$AAc?$AAa?$AAt?$AAe?$AA?$AA@
	??_C@_1CG@JNLFBNGN@?$AA?$CC?$AAi?$AAn?$AAv?$AAa?$AAl?$AAi?$AAd?$AA?5?$AAa?$AAr?$AAg?$AAu?$AAm?$AAe?$AAn?$AAt?$AA?$CC?$AA?$AA@
	??_C@_1CK@EOPGIILJ@?$AAi?$AAn?$AAv?$AAa?$AAl?$AAi?$AAd?$AA?5?$AAn?$AAu?$AAl?$AAl?$AA?5?$AAp?$AAo?$AAi?$AAn?$AAt?$AAe?$AAr?$AA?$AA@
	??_C@_1DG@HGDKEBPG@?$AA?$CC?$AA_?$AAP?$AAt?$AAr?$AA_?$AAc?$AAo?$AAn?$AAt?$AAa?$AAi?$AAn?$AAe?$AAr?$AA?5?$AA?$CB?$AA?$DN?$AA?5?$AA0?$AA?$CC?$AA?5?$AA?$CG?$AA?$CG?$AA?5?$AA0?$AA?$AA@
	??_C@_1EE@PDHAHDDC@?$AA?$CC?$AA_?$AAP?$AAt?$AAr?$AA_?$AAc?$AAo?$AAn?$AAt?$AAa?$AAi?$AAn?$AAe?$AAr?$AA?5?$AA?$DM?$AA?5?$AA_?$AAP?$AAt?$AAr?$AA_?$AAu?$AAs?$AAe?$AAr?$AA?$CC?$AA?5?$AA?$CG?$AA?$CG?$AA?5@
	??_C@_1EI@MLOBABC@?$AA?$CC?$AA_?$AAC?$AAo?$AAu?$AAn?$AAt?$AA?5?$AA?$DM?$AA?$DN?$AA?5?$AA?$CI?$AAs?$AAi?$AAz?$AAe?$AA_?$AAt?$AA?$CJ?$AA?$CI?$AA?9?$AA1?$AA?$CJ?$AA?5?$AA?1?$AA?5?$AA_?$AAS?$AAz?$AA?$CC?$AA?5?$AA?$CG@
	??_C@_1GI@DHJGPFNI@?$AA?$CC?$AA_?$AAP?$AAt?$AAr?$AA_?$AAu?$AAs?$AAe?$AAr?$AA?5?$AA?9?$AA?5?$AA_?$AAP?$AAt?$AAr?$AA_?$AAc?$AAo?$AAn?$AAt?$AAa?$AAi?$AAn?$AAe?$AAr?$AA?5?$AA?$DM?$AA?$DN?$AA?5?$AA_@
	??_C@_1HA@NAPGMHAO@?$AA?$CC?$AA2?$AA?5?$AA?$CK?$AA?5?$AAs?$AAi?$AAz?$AAe?$AAo?$AAf?$AA?$CI?$AAv?$AAo?$AAi?$AAd?$AA?5?$AA?$CK?$AA?$CJ?$AA?5?$AA?$DM?$AA?$DN?$AA?5?$AA_?$AAP?$AAt?$AAr?$AA_?$AAu?$AAs?$AAe?$AAr@
	??_C@_1HE@CDMBFOKC@?$AA?$CC?$AA?$CI?$AA_?$AAP?$AAt?$AAr?$AA_?$AAu?$AAs?$AAe?$AAr?$AA?5?$AA?$CG?$AA?5?$AA?$CI?$AA_?$AAB?$AAI?$AAG?$AA_?$AAA?$AAL?$AAL?$AAO?$AAC?$AAA?$AAT?$AAI?$AAO?$AAN?$AA_?$AAA@
	??_C@_1IO@EADHKMNI@?$AAc?$AA?3?$AA?2?$AAp?$AAr?$AAo?$AAg?$AAr?$AAa?$AAm?$AA?5?$AAf?$AAi?$AAl?$AAe?$AAs?$AA?5?$AA?$CI?$AAx?$AA8?$AA6?$AA?$CJ?$AA?2?$AAm?$AAi?$AAc?$AAr?$AAo?$AAs?$AAo?$AAf?$AAt@
	??_C@_1JA@DKOIEICI@?$AAc?$AA?3?$AA?2?$AAp?$AAr?$AAo?$AAg?$AAr?$AAa?$AAm?$AA?5?$AAf?$AAi?$AAl?$AAe?$AAs?$AA?5?$AA?$CI?$AAx?$AA8?$AA6?$AA?$CJ?$AA?2?$AAm?$AAi?$AAc?$AAr?$AAo?$AAs?$AAo?$AAf?$AAt@
	??_C@_1JO@EKLKIEHP@?$AA?$CC?$AAr?$AAe?$AAi?$AAn?$AAt?$AAe?$AAr?$AAp?$AAr?$AAe?$AAt?$AA_?$AAc?$AAa?$AAs?$AAt?$AA?$DM?$AAu?$AAi?$AAn?$AAt?$AAp?$AAt?$AAr?$AA_?$AAt?$AA?5?$AA?$CK?$AA?$DO?$AA?$CI?$AA_@
	??_H@YAXPEAX_K1P6APEAX0@Z@Z
	?_Alloc_proxy@?$_String_alloc@U?$_String_base_types@DV?$allocator@D@std@@@std@@@std@@QEAAXXZ
	?_Allocate@std@@YAPEAX_K0_N@Z
	?_Bx@?$_String_alloc@U?$_String_base_types@DV?$allocator@D@std@@@std@@@std@@QEAAAEAT_Bxty@?$_String_val@U?$_Simple_types@D@std@@@2@XZ
	?_Copy@?$basic_string@DU?$char_traits@D@std@@V?$allocator@D@2@@std@@QEAAX_K0@Z
	?_Deallocate@std@@YAXPEAX_K1@Z
	?_Eos@?$basic_string@DU?$char_traits@D@std@@V?$allocator@D@2@@std@@QEAAX_K@Z
	?_Free_proxy@?$_String_alloc@U?$_String_base_types@DV?$allocator@D@std@@@std@@@std@@QEAAXXZ
	?_Get_data@?$_String_alloc@U?$_String_base_types@DV?$allocator@D@std@@@std@@@std@@QEAAAEAV?$_String_val@U?$_Simple_types@D@std@@@2@XZ
	?_Get_data@?$_String_alloc@U?$_String_base_types@DV?$allocator@D@std@@@std@@@std@@QEBAAEBV?$_String_val@U?$_Simple_types@D@std@@@2@XZ
	?_Get_first@?$_Compressed_pair@U?$_Wrap_alloc@V?$allocator@D@std@@@std@@V?$_String_val@U?$_Simple_types@D@std@@@2@$00@std@@QEAAAEAU?$_Wrap_alloc@V?$allocator@D@std@@@2@XZ
	?_Get_first@?$_Compressed_pair@U?$_Wrap_alloc@V?$allocator@D@std@@@std@@V?$_String_val@U?$_Simple_types@D@std@@@2@$00@std@@QEBAAEBU?$_Wrap_alloc@V?$allocator@D@std@@@2@XZ
	?_Get_second@?$_Compressed_pair@U?$_Wrap_alloc@V?$allocator@D@std@@@std@@V?$_String_val@U?$_Simple_types@D@std@@@2@$00@std@@QEAAAEAV?$_String_val@U?$_Simple_types@D@std@@@2@XZ
	?_Get_second@?$_Compressed_pair@U?$_Wrap_alloc@V?$allocator@D@std@@@std@@V?$_String_val@U?$_Simple_types@D@std@@@2@$00@std@@QEBAAEBV?$_String_val@U?$_Simple_types@D@std@@@2@XZ
	?_Getal@?$_String_alloc@U?$_String_base_types@DV?$allocator@D@std@@@std@@@std@@QEAAAEAU?$_Wrap_alloc@V?$allocator@D@std@@@2@XZ
	?_Getal@?$_String_alloc@U?$_String_base_types@DV?$allocator@D@std@@@std@@@std@@QEBAAEBU?$_Wrap_alloc@V?$allocator@D@std@@@2@XZ
	?_Grow@?$basic_string@DU?$char_traits@D@std@@V?$allocator@D@2@@std@@QEAA_N_K_N@Z
	?_Inside@?$basic_string@DU?$char_traits@D@std@@V?$allocator@D@2@@std@@QEAA_NPEBD@Z
	?_Myproxy@?$_String_alloc@U?$_String_base_types@DV?$allocator@D@std@@@std@@@std@@QEAAAEAPEAU_Container_proxy@2@XZ
	?_Myptr@?$_String_alloc@U?$_String_base_types@DV?$allocator@D@std@@@std@@@std@@QEAAPEADXZ
	?_Myptr@?$_String_alloc@U?$_String_base_types@DV?$allocator@D@std@@@std@@@std@@QEBAPEBDXZ
	?_Myptr@?$_String_val@U?$_Simple_types@D@std@@@std@@QEAAPEADXZ
	?_Myptr@?$_String_val@U?$_Simple_types@D@std@@@std@@QEBAPEBDXZ
	?_Myres@?$_String_alloc@U?$_String_base_types@DV?$allocator@D@std@@@std@@@std@@QEAAAEA_KXZ
	?_Mysize@?$_String_alloc@U?$_String_base_types@DV?$allocator@D@std@@@std@@@std@@QEAAAEA_KXZ
	?_Mysize@?$_String_alloc@U?$_String_base_types@DV?$allocator@D@std@@@std@@@std@@QEBAAEB_KXZ
	?_Orphan_all@?$_String_alloc@U?$_String_base_types@DV?$allocator@D@std@@@std@@@std@@QEAAXXZ
	?_Orphan_all@_Container_base12@std@@QEAAXXZ
	?_Tidy@?$basic_string@DU?$char_traits@D@std@@V?$allocator@D@2@@std@@QEAAX_N_K@Z
	?_Xlen@?$basic_string@DU?$char_traits@D@std@@V?$allocator@D@2@@std@@QEBAXXZ
	?_Xran@?$basic_string@DU?$char_traits@D@std@@V?$allocator@D@2@@std@@QEBAXXZ
	?__LINE__Var@?0??_Allocate@std@@YAPEAX_K0_N@Z@4JA
	?__LINE__Var@?0??_Deallocate@std@@YAXPEAX_K1@Z@4JA
	?__empty_global_delete@@YAXPEAX@Z
	?__empty_global_delete@@YAXPEAX_K@Z
	?allocate@?$_Wrap_alloc@V?$allocator@D@std@@@std@@QEAAPEAD_K@Z
	?allocate@?$_Wrap_alloc@V?$allocator@U_Container_proxy@std@@@std@@@std@@QEAAPEAU_Container_proxy@2@_K@Z
	?allocate@?$allocator@D@std@@QEAAPEAD_K@Z
	?allocate@?$allocator@U_Container_proxy@std@@@std@@QEAAPEAU_Container_proxy@2@_K@Z
	?assign@?$basic_string@DU?$char_traits@D@std@@V?$allocator@D@2@@std@@QEAAAEAV12@AEBV12@_K1@Z
	?assign@?$basic_string@DU?$char_traits@D@std@@V?$allocator@D@2@@std@@QEAAAEAV12@PEBD@Z
	?assign@?$basic_string@DU?$char_traits@D@std@@V?$allocator@D@2@@std@@QEAAAEAV12@PEBD_K@Z
	?assign@?$char_traits@D@std@@SAXAEADAEBD@Z
	?copy@?$char_traits@D@std@@SAPEADPEADPEBD_K@Z
	?deallocate@?$_Wrap_alloc@V?$allocator@D@std@@@std@@QEAAXPEAD_K@Z
	?deallocate@?$_Wrap_alloc@V?$allocator@U_Container_proxy@std@@@std@@@std@@QEAAXPEAU_Container_proxy@2@_K@Z
	?deallocate@?$allocator@D@std@@QEAAXPEAD_K@Z
	?deallocate@?$allocator@U_Container_proxy@std@@@std@@QEAAXPEAU_Container_proxy@2@_K@Z
	?erase@?$basic_string@DU?$char_traits@D@std@@V?$allocator@D@2@@std@@QEAAAEAV12@_K0@Z
	?erase@?$basic_string@DU?$char_traits@D@std@@V?$allocator@D@2@@std@@QEAAAEAV12@_K@Z
	?length@?$char_traits@D@std@@SA_KPEBD@Z
	?max_size@?$_Wrap_alloc@V?$allocator@D@std@@@std@@QEBA_KU_Nil@2@@Z
	?max_size@?$allocator@D@std@@QEBA_KXZ
	?max_size@?$allocator_traits@V?$allocator@D@std@@@std@@SA_KAEBV?$allocator@D@2@@Z
	?max_size@?$basic_string@DU?$char_traits@D@std@@V?$allocator@D@2@@std@@QEBA_KXZ
	?move@?$char_traits@D@std@@SAPEADPEADPEBD_K@Z
	?size@?$basic_string@DU?$char_traits@D@std@@V?$allocator@D@2@@std@@QEBA_KXZ
	__@@_PchSym_@00@UlkvmuiznvdliphUzwwlmhUlucifoiUxlivUlyqUcGEUwvyftUhixUwvyftUkxsPifoixlivOlyq@9837E01618E1A95C
	??$?0$$V@?$_Ref_count_obj@VRegister@ofxAssets@@@std@@QEAA@XZ
	??$?0AEBV?$allocator@I@std@@$$V@?$_Compressed_pair@U?$_Wrap_alloc@V?$allocator@I@std@@@std@@V?$_Vector_val@U?$_Simple_types@I@std@@@2@$00@std@@QEAA@U_One_then_variadic_args_t@1@AEBV?$allocator@I@1@@Z
	??$?0AEBV?$allocator@UActiveSound@SoundEngine@Utils@ofxRulr@@@std@@$$V@?$_Compressed_pair@U?$_Wrap_alloc@V?$allocator@UActiveSound@SoundEngine@Utils@ofxRulr@@@std@@@std@@V?$_Vector_val@U?$_Simple_types@UActiveSound@SoundEngine@Utils@ofxRulr@@@std@@@2@$00@std@@QEAA@U_One_then_variadic_args_t@1@AEBV?$allocator@UActiveSound@SoundEngine@Utils@ofxRulr@@@1@@Z
	??$?0AEBV?$allocator@V?$weak_ptr@VofBaseSoundOutput@@@std@@@std@@$$V@?$_Compressed_pair@U?$_Wrap_alloc@V?$allocator@V?$weak_ptr@VofBaseSoundOutput@@@std@@@std@@@std@@V?$_Vector_val@U?$_Simple_types@V?$weak_ptr@VofBaseSoundOutput@@@std@@@std@@@2@$00@std@@QEAA@U_One_then_variadic_args_t@1@AEBV?$allocator@V?$weak_ptr@VofBaseSoundOutput@@@std@@@1@@Z
	??$?0I@?$allocator@U_Container_proxy@std@@@std@@QEAA@AEBV?$allocator@I@1@@Z
	??$?0U?$_Wrap_alloc@V?$allocator@I@std@@@std@@@?$_Wrap_alloc@V?$allocator@U_Container_proxy@std@@@std@@@std@@QEAA@AEAU?$_Wrap_alloc@V?$allocator@I@std@@@1@@Z
	??$?0U?$_Wrap_alloc@V?$allocator@UActiveSound@SoundEngine@Utils@ofxRulr@@@std@@@std@@@?$_Wrap_alloc@V?$allocator@U_Container_proxy@std@@@std@@@std@@QEAA@AEAU?$_Wrap_alloc@V?$allocator@UActiveSound@SoundEngine@Utils@ofxRulr@@@std@@@1@@Z
	??$?0U?$_Wrap_alloc@V?$allocator@V?$weak_ptr@VofBaseSoundOutput@@@std@@@std@@@std@@@?$_Wrap_alloc@V?$allocator@U_Container_proxy@std@@@std@@@std@@QEAA@AEAU?$_Wrap_alloc@V?$allocator@V?$weak_ptr@VofBaseSoundOutput@@@std@@@std@@@1@@Z
	??$?0U?$_Wrap_alloc@V?$allocator@VofSoundDevice@@@std@@@std@@@?$_Wrap_alloc@V?$allocator@U_Container_proxy@std@@@std@@@std@@QEAA@AEAU?$_Wrap_alloc@V?$allocator@VofSoundDevice@@@std@@@1@@Z
	??$?0UActiveSound@SoundEngine@Utils@ofxRulr@@@?$allocator@U_Container_proxy@std@@@std@@QEAA@AEBV?$allocator@UActiveSound@SoundEngine@Utils@ofxRulr@@@1@@Z
	??$?0V?$allocator@D@std@@$$V@?$_Compressed_pair@U?$_Wrap_alloc@V?$allocator@D@std@@@std@@V?$_String_val@U?$_Simple_types@D@std@@@2@$00@std@@QEAA@U_One_then_variadic_args_t@1@$$QEAV?$allocator@D@1@@Z
	??$?0V?$weak_ptr@VofBaseSoundOutput@@@std@@@?$allocator@U_Container_proxy@std@@@std@@QEAA@AEBV?$allocator@V?$weak_ptr@VofBaseSoundOutput@@@std@@@1@@Z
	??$?0VofBaseSoundOutput@@@?$shared_ptr@VofBaseSoundOutput@@@std@@QEAA@AEBV?$weak_ptr@VofBaseSoundOutput@@@1@_N@Z
	??$?0VofSoundDevice@@@?$allocator@U_Container_proxy@std@@@std@@QEAA@AEBV?$allocator@VofSoundDevice@@@1@@Z
	??$?6$$BY0GB@D@ofLog@@QEAAAEAV0@AEAY0GB@$$CBD@Z
	??$?6DU?$char_traits@D@std@@V?$allocator@D@1@@std@@YAAEAV?$basic_ostream@DU?$char_traits@D@std@@@0@AEAV10@AEBV?$basic_string@DU?$char_traits@D@std@@V?$allocator@D@2@@0@@Z
	??$?6U?$char_traits@D@std@@@std@@YAAEAV?$basic_ostream@DU?$char_traits@D@std@@@0@AEAV10@PEBD@Z
	??$?8VSound@ofxAssets@@V01@@std@@YA_NAEBV?$shared_ptr@VSound@ofxAssets@@@0@0@Z
	??$?RAEB_KAEB_K@?$less@X@std@@QEBA_NAEB_K0@Z
	??$_Addressof@$$CBUActiveSound@SoundEngine@Utils@ofxRulr@@@std@@YAPEBUActiveSound@SoundEngine@Utils@ofxRulr@@AEBU1234@U?$integral_constant@_N$0A@@0@@Z
	??$_Addressof@$$CBV?$weak_ptr@VofBaseSoundOutput@@@std@@@std@@YAPEBV?$weak_ptr@VofBaseSoundOutput@@@0@AEBV10@U?$integral_constant@_N$0A@@0@@Z
	??$_Addressof@UActiveSound@SoundEngine@Utils@ofxRulr@@@std@@YAPEAUActiveSound@SoundEngine@Utils@ofxRulr@@AEAU1234@U?$integral_constant@_N$0A@@0@@Z
	??$_Addressof@V?$weak_ptr@VofBaseSoundOutput@@@std@@@std@@YAPEAV?$weak_ptr@VofBaseSoundOutput@@@0@AEAV10@U?$integral_constant@_N$0A@@0@@Z
	??$_Addressof@VofSoundDevice@@@std@@YAPEAVofSoundDevice@@AEAV1@U?$integral_constant@_N$0A@@0@@Z
	??$_Debug_lt@AEB_KAEB_K@std@@YA_NAEB_K0PEB_WI@Z
	??$_Debug_lt_pred@U?$less@X@std@@AEB_KAEB_K@std@@YA_NU?$less@X@0@AEB_K1PEB_WI@Z
	??$_Debug_pointer@UActiveSound@SoundEngine@Utils@ofxRulr@@@std@@YAXPEAUActiveSound@SoundEngine@Utils@ofxRulr@@PEB_WI@Z
	??$_Debug_pointer@V?$weak_ptr@VofBaseSoundOutput@@@std@@@std@@YAXPEAV?$weak_ptr@VofBaseSoundOutput@@@0@PEB_WI@Z
	??$_Debug_range_ptr2@PEAUActiveSound@SoundEngine@Utils@ofxRulr@@PEAU1234@@std@@YAXPEAUActiveSound@SoundEngine@Utils@ofxRulr@@0AEAPEAU1234@PEB_WIUrandom_access_iterator_tag@0@@Z
	??$_Debug_range_ptr2@PEAV?$weak_ptr@VofBaseSoundOutput@@@std@@PEAV12@@std@@YAXPEAV?$weak_ptr@VofBaseSoundOutput@@@0@0AEAPEAV10@PEB_WIUrandom_access_iterator_tag@0@@Z
	??$_Debug_range_ptr@PEAUActiveSound@SoundEngine@Utils@ofxRulr@@PEAU1234@@std@@YAXPEAUActiveSound@SoundEngine@Utils@ofxRulr@@0AEAPEAU1234@PEB_WI@Z
	??$_Debug_range_ptr@PEAV?$weak_ptr@VofBaseSoundOutput@@@std@@PEAV12@@std@@YAXPEAV?$weak_ptr@VofBaseSoundOutput@@@0@0AEAPEAV10@PEB_WI@Z
	??$_Destroy_range@U?$_Wrap_alloc@V?$allocator@I@std@@@std@@@std@@YAXPEAI0AEAU?$_Wrap_alloc@V?$allocator@I@std@@@0@@Z
	??$_Destroy_range@U?$_Wrap_alloc@V?$allocator@I@std@@@std@@@std@@YAXPEAI0AEAU?$_Wrap_alloc@V?$allocator@I@std@@@0@U_Scalar_ptr_iterator_tag@0@@Z
	??$_Destroy_range@U?$_Wrap_alloc@V?$allocator@UActiveSound@SoundEngine@Utils@ofxRulr@@@std@@@std@@@std@@YAXPEAUActiveSound@SoundEngine@Utils@ofxRulr@@0AEAU?$_Wrap_alloc@V?$allocator@UActiveSound@SoundEngine@Utils@ofxRulr@@@std@@@0@@Z
	??$_Destroy_range@U?$_Wrap_alloc@V?$allocator@UActiveSound@SoundEngine@Utils@ofxRulr@@@std@@@std@@@std@@YAXPEAUActiveSound@SoundEngine@Utils@ofxRulr@@0AEAU?$_Wrap_alloc@V?$allocator@UActiveSound@SoundEngine@Utils@ofxRulr@@@std@@@0@U_Nonscalar_ptr_iterator_tag@0@@Z
	??$_Destroy_range@U?$_Wrap_alloc@V?$allocator@V?$weak_ptr@VofBaseSoundOutput@@@std@@@std@@@std@@@std@@YAXPEAV?$weak_ptr@VofBaseSoundOutput@@@0@0AEAU?$_Wrap_alloc@V?$allocator@V?$weak_ptr@VofBaseSoundOutput@@@std@@@std@@@0@@Z
	??$_Destroy_range@U?$_Wrap_alloc@V?$allocator@V?$weak_ptr@VofBaseSoundOutput@@@std@@@std@@@std@@@std@@YAXPEAV?$weak_ptr@VofBaseSoundOutput@@@0@0AEAU?$_Wrap_alloc@V?$allocator@V?$weak_ptr@VofBaseSoundOutput@@@std@@@std@@@0@U_Nonscalar_ptr_iterator_tag@0@@Z
	??$_Destroy_range@U?$_Wrap_alloc@V?$allocator@VofSoundDevice@@@std@@@std@@@std@@YAXPEAVofSoundDevice@@0AEAU?$_Wrap_alloc@V?$allocator@VofSoundDevice@@@std@@@0@@Z
	??$_Destroy_range@U?$_Wrap_alloc@V?$allocator@VofSoundDevice@@@std@@@std@@@std@@YAXPEAVofSoundDevice@@0AEAU?$_Wrap_alloc@V?$allocator@VofSoundDevice@@@std@@@0@U_Nonscalar_ptr_iterator_tag@0@@Z
	??$_Iter_cat@PEAUActiveSound@SoundEngine@Utils@ofxRulr@@@std@@YA?AUrandom_access_iterator_tag@0@AEBQEAUActiveSound@SoundEngine@Utils@ofxRulr@@@Z
	??$_Iter_cat@PEAV?$weak_ptr@VofBaseSoundOutput@@@std@@@std@@YA?AUrandom_access_iterator_tag@0@AEBQEAV?$weak_ptr@VofBaseSoundOutput@@@0@@Z
	??$_Move@AEAPEAVRegister@ofxAssets@@@std@@YA$$QEAPEAVRegister@ofxAssets@@AEAPEAV12@@Z
	??$_Move@AEAPEAVSound@ofxAssets@@@std@@YA$$QEAPEAVSound@ofxAssets@@AEAPEAV12@@Z
	??$_Move@AEAPEAV_Ref_count_base@std@@@std@@YA$$QEAPEAV_Ref_count_base@0@AEAPEAV10@@Z
	??$_Move@AEAPEAVofBaseSoundOutput@@@std@@YA$$QEAPEAVofBaseSoundOutput@@AEAPEAV1@@Z
	??$_Move@PEAUActiveSound@SoundEngine@Utils@ofxRulr@@PEAU1234@@std@@YAPEAUActiveSound@SoundEngine@Utils@ofxRulr@@PEAU1234@00@Z
	??$_Move@PEAUActiveSound@SoundEngine@Utils@ofxRulr@@PEAU1234@@std@@YAPEAUActiveSound@SoundEngine@Utils@ofxRulr@@PEAU1234@00U_Nonscalar_ptr_iterator_tag@0@@Z
	??$_Move@PEAV?$weak_ptr@VofBaseSoundOutput@@@std@@PEAV12@@std@@YAPEAV?$weak_ptr@VofBaseSoundOutput@@@0@PEAV10@00@Z
	??$_Move@PEAV?$weak_ptr@VofBaseSoundOutput@@@std@@PEAV12@@std@@YAPEAV?$weak_ptr@VofBaseSoundOutput@@@0@PEAV10@00U_Nonscalar_ptr_iterator_tag@0@@Z
	??$_Ptr_cat@II@std@@YA?AU_Scalar_ptr_iterator_tag@0@PEAI0@Z
	??$_Ptr_cat@UActiveSound@SoundEngine@Utils@ofxRulr@@U1234@@std@@YA?AU_Nonscalar_ptr_iterator_tag@0@PEAUActiveSound@SoundEngine@Utils@ofxRulr@@0@Z
	??$_Ptr_cat@V?$weak_ptr@VofBaseSoundOutput@@@std@@V12@@std@@YA?AU_Nonscalar_ptr_iterator_tag@0@PEAV?$weak_ptr@VofBaseSoundOutput@@@0@0@Z
	??$_Ptr_cat@VofSoundDevice@@V1@@std@@YA?AU_Nonscalar_ptr_iterator_tag@0@PEAVofSoundDevice@@0@Z
	??$_Rechecked@PEAUActiveSound@SoundEngine@Utils@ofxRulr@@PEAU1234@@std@@YAAEAPEAUActiveSound@SoundEngine@Utils@ofxRulr@@AEAPEAU1234@PEAU1234@@Z
	??$_Rechecked@PEAV?$weak_ptr@VofBaseSoundOutput@@@std@@PEAV12@@std@@YAAEAPEAV?$weak_ptr@VofBaseSoundOutput@@@0@AEAPEAV10@PEAV10@@Z
	??$_Reset@VRegister@ofxAssets@@@?$_Ptr_base@VRegister@ofxAssets@@@std@@QEAAXAEBV01@@Z
	??$_Reset@VSound@ofxAssets@@@?$_Ptr_base@VSound@ofxAssets@@@std@@QEAAXAEBV01@@Z
	??$_Reset@VofBaseSoundOutput@@@?$_Ptr_base@VofBaseSoundOutput@@@std@@QEAAXAEBV01@_N@Z
	??$_Resetp0@VRegister@ofxAssets@@@?$shared_ptr@VRegister@ofxAssets@@@std@@QEAAXPEAVRegister@ofxAssets@@PEAV_Ref_count_base@1@@Z
	??$_Resetw@VofBaseSoundOutput@@@?$_Ptr_base@VofBaseSoundOutput@@@std@@QEAAXAEBV01@@Z
	??$_Resetw@VofBaseSoundOutput@@@?$_Ptr_base@VofBaseSoundOutput@@@std@@QEAAXPEAVofBaseSoundOutput@@PEAV_Ref_count_base@1@@Z
	??$_Umove@PEAUActiveSound@SoundEngine@Utils@ofxRulr@@@?$vector@UActiveSound@SoundEngine@Utils@ofxRulr@@V?$allocator@UActiveSound@SoundEngine@Utils@ofxRulr@@@std@@@std@@IEAAPEAUActiveSound@SoundEngine@Utils@ofxRulr@@PEAU2345@00@Z
	??$_Umove@PEAV?$weak_ptr@VofBaseSoundOutput@@@std@@@?$vector@V?$weak_ptr@VofBaseSoundOutput@@@std@@V?$allocator@V?$weak_ptr@VofBaseSoundOutput@@@std@@@2@@std@@IEAAPEAV?$weak_ptr@VofBaseSoundOutput@@@1@PEAV21@00@Z
	??$_Unchecked@PEAUActiveSound@SoundEngine@Utils@ofxRulr@@@std@@YAPEAUActiveSound@SoundEngine@Utils@ofxRulr@@PEAU1234@@Z
	??$_Unchecked@PEAV?$weak_ptr@VofBaseSoundOutput@@@std@@@std@@YAPEAV?$weak_ptr@VofBaseSoundOutput@@@0@PEAV10@@Z
	??$_Uninit_move@PEAUActiveSound@SoundEngine@Utils@ofxRulr@@PEAU1234@U?$_Wrap_alloc@V?$allocator@UActiveSound@SoundEngine@Utils@ofxRulr@@@std@@@std@@@std@@YAPEAUActiveSound@SoundEngine@Utils@ofxRulr@@PEAU1234@00AEAU?$_Wrap_alloc@V?$allocator@UActiveSound@SoundEngine@Utils@ofxRulr@@@std@@@0@@Z
	??$_Uninit_move@PEAUActiveSound@SoundEngine@Utils@ofxRulr@@PEAU1234@V?$allocator@UActiveSound@SoundEngine@Utils@ofxRulr@@@std@@U1234@@std@@YAPEAUActiveSound@SoundEngine@Utils@ofxRulr@@PEAU1234@00AEAU?$_Wrap_alloc@V?$allocator@UActiveSound@SoundEngine@Utils@ofxRulr@@@std@@@0@0U_Nonscalar_ptr_iterator_tag@0@@Z
	??$_Uninit_move@PEAV?$weak_ptr@VofBaseSoundOutput@@@std@@PEAV12@U?$_Wrap_alloc@V?$allocator@V?$weak_ptr@VofBaseSoundOutput@@@std@@@std@@@2@@std@@YAPEAV?$weak_ptr@VofBaseSoundOutput@@@0@PEAV10@00AEAU?$_Wrap_alloc@V?$allocator@V?$weak_ptr@VofBaseSoundOutput@@@std@@@std@@@0@@Z
	??$_Uninit_move@PEAV?$weak_ptr@VofBaseSoundOutput@@@std@@PEAV12@V?$allocator@V?$weak_ptr@VofBaseSoundOutput@@@std@@@2@V12@@std@@YAPEAV?$weak_ptr@VofBaseSoundOutput@@@0@PEAV10@00AEAU?$_Wrap_alloc@V?$allocator@V?$weak_ptr@VofBaseSoundOutput@@@std@@@std@@@0@0U_Nonscalar_ptr_iterator_tag@0@@Z
	??$_Uninitialized_move@PEAUActiveSound@SoundEngine@Utils@ofxRulr@@PEAU1234@U?$_Wrap_alloc@V?$allocator@UActiveSound@SoundEngine@Utils@ofxRulr@@@std@@@std@@@std@@YAPEAUActiveSound@SoundEngine@Utils@ofxRulr@@PEAU1234@00AEAU?$_Wrap_alloc@V?$allocator@UActiveSound@SoundEngine@Utils@ofxRulr@@@std@@@0@@Z
	??$_Uninitialized_move@PEAV?$weak_ptr@VofBaseSoundOutput@@@std@@PEAV12@U?$_Wrap_alloc@V?$allocator@V?$weak_ptr@VofBaseSoundOutput@@@std@@@std@@@2@@std@@YAPEAV?$weak_ptr@VofBaseSoundOutput@@@0@PEAV10@00AEAU?$_Wrap_alloc@V?$allocator@V?$weak_ptr@VofBaseSoundOutput@@@std@@@std@@@0@@Z
	??$_Val_type@PEAUActiveSound@SoundEngine@Utils@ofxRulr@@@std@@YAPEAUActiveSound@SoundEngine@Utils@ofxRulr@@PEAU1234@@Z
	??$_Val_type@PEAV?$weak_ptr@VofBaseSoundOutput@@@std@@@std@@YAPEAV?$weak_ptr@VofBaseSoundOutput@@@0@PEAV10@@Z
	??$addressof@$$CBUActiveSound@SoundEngine@Utils@ofxRulr@@@std@@YAPEBUActiveSound@SoundEngine@Utils@ofxRulr@@AEBU1234@@Z
	??$addressof@$$CBV?$weak_ptr@VofBaseSoundOutput@@@std@@@std@@YAPEBV?$weak_ptr@VofBaseSoundOutput@@@0@AEBV10@@Z
	??$addressof@UActiveSound@SoundEngine@Utils@ofxRulr@@@std@@YAPEAUActiveSound@SoundEngine@Utils@ofxRulr@@AEAU1234@@Z
	??$addressof@V?$weak_ptr@VofBaseSoundOutput@@@std@@@std@@YAPEAV?$weak_ptr@VofBaseSoundOutput@@@0@AEAV10@@Z
	??$addressof@VofSoundDevice@@@std@@YAPEAVofSoundDevice@@AEAV1@@Z
	??$construct@UActiveSound@SoundEngine@Utils@ofxRulr@@AEAU1234@@?$_Wrap_alloc@V?$allocator@UActiveSound@SoundEngine@Utils@ofxRulr@@@std@@@std@@QEAAXPEAUActiveSound@SoundEngine@Utils@ofxRulr@@AEAU2345@@Z
	??$construct@UActiveSound@SoundEngine@Utils@ofxRulr@@AEAU1234@@?$allocator@UActiveSound@SoundEngine@Utils@ofxRulr@@@std@@QEAAXPEAUActiveSound@SoundEngine@Utils@ofxRulr@@AEAU2345@@Z
	??$construct@UActiveSound@SoundEngine@Utils@ofxRulr@@AEAU1234@@?$allocator_traits@V?$allocator@UActiveSound@SoundEngine@Utils@ofxRulr@@@std@@@std@@SAXAEAV?$allocator@UActiveSound@SoundEngine@Utils@ofxRulr@@@1@PEAUActiveSound@SoundEngine@Utils@ofxRulr@@AEAU3456@@Z
	??$construct@UActiveSound@SoundEngine@Utils@ofxRulr@@AEBU1234@@?$_Wrap_alloc@V?$allocator@UActiveSound@SoundEngine@Utils@ofxRulr@@@std@@@std@@QEAAXPEAUActiveSound@SoundEngine@Utils@ofxRulr@@AEBU2345@@Z
	??$construct@UActiveSound@SoundEngine@Utils@ofxRulr@@AEBU1234@@?$allocator@UActiveSound@SoundEngine@Utils@ofxRulr@@@std@@QEAAXPEAUActiveSound@SoundEngine@Utils@ofxRulr@@AEBU2345@@Z
	??$construct@UActiveSound@SoundEngine@Utils@ofxRulr@@AEBU1234@@?$allocator_traits@V?$allocator@UActiveSound@SoundEngine@Utils@ofxRulr@@@std@@@std@@SAXAEAV?$allocator@UActiveSound@SoundEngine@Utils@ofxRulr@@@1@PEAUActiveSound@SoundEngine@Utils@ofxRulr@@AEBU3456@@Z
	??$construct@UActiveSound@SoundEngine@Utils@ofxRulr@@U1234@@?$_Wrap_alloc@V?$allocator@UActiveSound@SoundEngine@Utils@ofxRulr@@@std@@@std@@QEAAXPEAUActiveSound@SoundEngine@Utils@ofxRulr@@$$QEAU2345@@Z
	??$construct@UActiveSound@SoundEngine@Utils@ofxRulr@@U1234@@?$allocator@UActiveSound@SoundEngine@Utils@ofxRulr@@@std@@QEAAXPEAUActiveSound@SoundEngine@Utils@ofxRulr@@$$QEAU2345@@Z
	??$construct@UActiveSound@SoundEngine@Utils@ofxRulr@@U1234@@?$allocator_traits@V?$allocator@UActiveSound@SoundEngine@Utils@ofxRulr@@@std@@@std@@SAXAEAV?$allocator@UActiveSound@SoundEngine@Utils@ofxRulr@@@1@PEAUActiveSound@SoundEngine@Utils@ofxRulr@@$$QEAU3456@@Z
	??$construct@V?$weak_ptr@VofBaseSoundOutput@@@std@@AEAV12@@?$_Wrap_alloc@V?$allocator@V?$weak_ptr@VofBaseSoundOutput@@@std@@@std@@@std@@QEAAXPEAV?$weak_ptr@VofBaseSoundOutput@@@1@AEAV21@@Z
	??$construct@V?$weak_ptr@VofBaseSoundOutput@@@std@@AEAV12@@?$allocator@V?$weak_ptr@VofBaseSoundOutput@@@std@@@std@@QEAAXPEAV?$weak_ptr@VofBaseSoundOutput@@@1@AEAV21@@Z
	??$construct@V?$weak_ptr@VofBaseSoundOutput@@@std@@AEAV12@@?$allocator_traits@V?$allocator@V?$weak_ptr@VofBaseSoundOutput@@@std@@@std@@@std@@SAXAEAV?$allocator@V?$weak_ptr@VofBaseSoundOutput@@@std@@@1@PEAV?$weak_ptr@VofBaseSoundOutput@@@1@AEAV31@@Z
	??$construct@V?$weak_ptr@VofBaseSoundOutput@@@std@@AEBV12@@?$_Wrap_alloc@V?$allocator@V?$weak_ptr@VofBaseSoundOutput@@@std@@@std@@@std@@QEAAXPEAV?$weak_ptr@VofBaseSoundOutput@@@1@AEBV21@@Z
	??$construct@V?$weak_ptr@VofBaseSoundOutput@@@std@@AEBV12@@?$allocator@V?$weak_ptr@VofBaseSoundOutput@@@std@@@std@@QEAAXPEAV?$weak_ptr@VofBaseSoundOutput@@@1@AEBV21@@Z
	??$construct@V?$weak_ptr@VofBaseSoundOutput@@@std@@AEBV12@@?$allocator_traits@V?$allocator@V?$weak_ptr@VofBaseSoundOutput@@@std@@@std@@@std@@SAXAEAV?$allocator@V?$weak_ptr@VofBaseSoundOutput@@@std@@@1@PEAV?$weak_ptr@VofBaseSoundOutput@@@1@AEBV31@@Z
	??$construct@V?$weak_ptr@VofBaseSoundOutput@@@std@@V12@@?$_Wrap_alloc@V?$allocator@V?$weak_ptr@VofBaseSoundOutput@@@std@@@std@@@std@@QEAAXPEAV?$weak_ptr@VofBaseSoundOutput@@@1@$$QEAV21@@Z
	??$construct@V?$weak_ptr@VofBaseSoundOutput@@@std@@V12@@?$allocator@V?$weak_ptr@VofBaseSoundOutput@@@std@@@std@@QEAAXPEAV?$weak_ptr@VofBaseSoundOutput@@@1@$$QEAV21@@Z
	??$construct@V?$weak_ptr@VofBaseSoundOutput@@@std@@V12@@?$allocator_traits@V?$allocator@V?$weak_ptr@VofBaseSoundOutput@@@std@@@std@@@std@@SAXAEAV?$allocator@V?$weak_ptr@VofBaseSoundOutput@@@std@@@1@PEAV?$weak_ptr@VofBaseSoundOutput@@@1@$$QEAV31@@Z
	??$destroy@UActiveSound@SoundEngine@Utils@ofxRulr@@@?$_Wrap_alloc@V?$allocator@UActiveSound@SoundEngine@Utils@ofxRulr@@@std@@@std@@QEAAXPEAUActiveSound@SoundEngine@Utils@ofxRulr@@@Z
	??$destroy@UActiveSound@SoundEngine@Utils@ofxRulr@@@?$allocator@UActiveSound@SoundEngine@Utils@ofxRulr@@@std@@QEAAXPEAUActiveSound@SoundEngine@Utils@ofxRulr@@@Z
	??$destroy@UActiveSound@SoundEngine@Utils@ofxRulr@@@?$allocator_traits@V?$allocator@UActiveSound@SoundEngine@Utils@ofxRulr@@@std@@@std@@SAXAEAV?$allocator@UActiveSound@SoundEngine@Utils@ofxRulr@@@1@PEAUActiveSound@SoundEngine@Utils@ofxRulr@@@Z
	??$destroy@V?$weak_ptr@VofBaseSoundOutput@@@std@@@?$_Wrap_alloc@V?$allocator@V?$weak_ptr@VofBaseSoundOutput@@@std@@@std@@@std@@QEAAXPEAV?$weak_ptr@VofBaseSoundOutput@@@1@@Z
	??$destroy@V?$weak_ptr@VofBaseSoundOutput@@@std@@@?$allocator@V?$weak_ptr@VofBaseSoundOutput@@@std@@@std@@QEAAXPEAV?$weak_ptr@VofBaseSoundOutput@@@1@@Z
	??$destroy@V?$weak_ptr@VofBaseSoundOutput@@@std@@@?$allocator_traits@V?$allocator@V?$weak_ptr@VofBaseSoundOutput@@@std@@@std@@@std@@SAXAEAV?$allocator@V?$weak_ptr@VofBaseSoundOutput@@@std@@@1@PEAV?$weak_ptr@VofBaseSoundOutput@@@1@@Z
	??$destroy@VofSoundDevice@@@?$_Wrap_alloc@V?$allocator@VofSoundDevice@@@std@@@std@@QEAAXPEAVofSoundDevice@@@Z
	??$destroy@VofSoundDevice@@@?$allocator@VofSoundDevice@@@std@@QEAAXPEAVofSoundDevice@@@Z
	??$destroy@VofSoundDevice@@@?$allocator_traits@V?$allocator@VofSoundDevice@@@std@@@std@@SAXAEAV?$allocator@VofSoundDevice@@@1@PEAVofSoundDevice@@@Z
	??$forward@AEAUActiveSound@SoundEngine@Utils@ofxRulr@@@std@@YAAEAUActiveSound@SoundEngine@Utils@ofxRulr@@AEAU1234@@Z
	??$forward@AEAV?$weak_ptr@VofBaseSoundOutput@@@std@@@std@@YAAEAV?$weak_ptr@VofBaseSoundOutput@@@0@AEAV10@@Z
	??$forward@AEBUActiveSound@SoundEngine@Utils@ofxRulr@@@std@@YAAEBUActiveSound@SoundEngine@Utils@ofxRulr@@AEBU1234@@Z
	??$forward@AEBV?$allocator@I@std@@@std@@YAAEBV?$allocator@I@0@AEBV10@@Z
	??$forward@AEBV?$allocator@UActiveSound@SoundEngine@Utils@ofxRulr@@@std@@@std@@YAAEBV?$allocator@UActiveSound@SoundEngine@Utils@ofxRulr@@@0@AEBV10@@Z
	??$forward@AEBV?$allocator@V?$weak_ptr@VofBaseSoundOutput@@@std@@@std@@@std@@YAAEBV?$allocator@V?$weak_ptr@VofBaseSoundOutput@@@std@@@0@AEBV10@@Z
	??$forward@AEBV?$weak_ptr@VofBaseSoundOutput@@@std@@@std@@YAAEBV?$weak_ptr@VofBaseSoundOutput@@@0@AEBV10@@Z
	??$forward@AEB_K@std@@YAAEB_KAEB_K@Z
	??$forward@UActiveSound@SoundEngine@Utils@ofxRulr@@@std@@YA$$QEAUActiveSound@SoundEngine@Utils@ofxRulr@@AEAU1234@@Z
	??$forward@V?$allocator@D@std@@@std@@YA$$QEAV?$allocator@D@0@AEAV10@@Z
	??$forward@V?$weak_ptr@VofBaseSoundOutput@@@std@@@std@@YA$$QEAV?$weak_ptr@VofBaseSoundOutput@@@0@AEAV10@@Z
	??$make_shared@VRegister@ofxAssets@@$$V@std@@YA?AV?$shared_ptr@VRegister@ofxAssets@@@0@XZ
	??$max@_K@std@@YAAEB_KAEB_K0@Z
	??$move@AEAUActiveSound@SoundEngine@Utils@ofxRulr@@@std@@YA$$QEAUActiveSound@SoundEngine@Utils@ofxRulr@@AEAU1234@@Z
	??$move@AEAV?$allocator@D@std@@@std@@YA$$QEAV?$allocator@D@0@AEAV10@@Z
	??$move@AEAV?$shared_ptr@VRegister@ofxAssets@@@std@@@std@@YA$$QEAV?$shared_ptr@VRegister@ofxAssets@@@0@AEAV10@@Z
	??$move@AEAV?$shared_ptr@VSound@ofxAssets@@@std@@@std@@YA$$QEAV?$shared_ptr@VSound@ofxAssets@@@0@AEAV10@@Z
	??$move@AEAV?$weak_ptr@VofBaseSoundOutput@@@std@@@std@@YA$$QEAV?$weak_ptr@VofBaseSoundOutput@@@0@AEAV10@@Z
	??$swap@PEAVRegister@ofxAssets@@@std@@YAXAEAPEAVRegister@ofxAssets@@0@Z
	??$swap@PEAVSound@ofxAssets@@@std@@YAXAEAPEAVSound@ofxAssets@@0@Z
	??$swap@PEAV_Ref_count_base@std@@@std@@YAXAEAPEAV_Ref_count_base@0@0@Z
	??$swap@PEAVofBaseSoundOutput@@@std@@YAXAEAPEAVofBaseSoundOutput@@0@Z
	??0?$_Func_class@XAEAVofSoundBuffer@@@std@@QEAA@XZ
	??0?$_Iterator012@Urandom_access_iterator_tag@std@@UActiveSound@SoundEngine@Utils@ofxRulr@@_JPEBU3456@AEBU3456@U_Iterator_base12@2@@std@@QEAA@$$QEAU01@@Z
	??0?$_Iterator012@Urandom_access_iterator_tag@std@@UActiveSound@SoundEngine@Utils@ofxRulr@@_JPEBU3456@AEBU3456@U_Iterator_base12@2@@std@@QEAA@AEBU01@@Z
	??0?$_Iterator012@Urandom_access_iterator_tag@std@@UActiveSound@SoundEngine@Utils@ofxRulr@@_JPEBU3456@AEBU3456@U_Iterator_base12@2@@std@@QEAA@XZ
	??0?$_Iterator012@Urandom_access_iterator_tag@std@@V?$weak_ptr@VofBaseSoundOutput@@@2@_JPEBV32@AEBV32@U_Iterator_base12@2@@std@@QEAA@$$QEAU01@@Z
	??0?$_Iterator012@Urandom_access_iterator_tag@std@@V?$weak_ptr@VofBaseSoundOutput@@@2@_JPEBV32@AEBV32@U_Iterator_base12@2@@std@@QEAA@AEBU01@@Z
	??0?$_Iterator012@Urandom_access_iterator_tag@std@@V?$weak_ptr@VofBaseSoundOutput@@@2@_JPEBV32@AEBV32@U_Iterator_base12@2@@std@@QEAA@XZ
	??0?$_Iterator012@Urandom_access_iterator_tag@std@@VofSoundDevice@@_JPEBV3@AEBV3@U_Iterator_base12@2@@std@@QEAA@XZ
	??0?$_Ptr_base@VRegister@ofxAssets@@@std@@QEAA@$$QEAV01@@Z
	??0?$_Ptr_base@VRegister@ofxAssets@@@std@@QEAA@XZ
	??0?$_Ptr_base@VSound@ofxAssets@@@std@@QEAA@$$QEAV01@@Z
	??0?$_Ptr_base@VSound@ofxAssets@@@std@@QEAA@XZ
	??0?$_Ptr_base@VSoundEngine@Utils@ofxRulr@@@std@@QEAA@XZ
	??0?$_Ptr_base@VofBaseSoundOutput@@@std@@QEAA@$$QEAV01@@Z
	??0?$_Ptr_base@VofBaseSoundOutput@@@std@@QEAA@XZ
	??0?$_String_alloc@U?$_String_base_types@DV?$allocator@D@std@@@std@@@std@@QEAA@$$QEAV?$allocator@D@1@@Z
	??0?$_Vector_alloc@U?$_Vec_base_types@IV?$allocator@I@std@@@std@@@std@@QEAA@AEBV?$allocator@I@1@@Z
	??0?$_Vector_alloc@U?$_Vec_base_types@UActiveSound@SoundEngine@Utils@ofxRulr@@V?$allocator@UActiveSound@SoundEngine@Utils@ofxRulr@@@std@@@std@@@std@@QEAA@AEBV?$allocator@UActiveSound@SoundEngine@Utils@ofxRulr@@@1@@Z
	??0?$_Vector_alloc@U?$_Vec_base_types@V?$weak_ptr@VofBaseSoundOutput@@@std@@V?$allocator@V?$weak_ptr@VofBaseSoundOutput@@@std@@@2@@std@@@std@@QEAA@AEBV?$allocator@V?$weak_ptr@VofBaseSoundOutput@@@std@@@1@@Z
	??0?$_Vector_const_iterator@V?$_Vector_val@U?$_Simple_types@UActiveSound@SoundEngine@Utils@ofxRulr@@@std@@@std@@@std@@QEAA@$$QEAV01@@Z
	??0?$_Vector_const_iterator@V?$_Vector_val@U?$_Simple_types@UActiveSound@SoundEngine@Utils@ofxRulr@@@std@@@std@@@std@@QEAA@AEBV01@@Z
	??0?$_Vector_const_iterator@V?$_Vector_val@U?$_Simple_types@UActiveSound@SoundEngine@Utils@ofxRulr@@@std@@@std@@@std@@QEAA@PEAUActiveSound@SoundEngine@Utils@ofxRulr@@PEBU_Container_base12@1@@Z
	??0?$_Vector_const_iterator@V?$_Vector_val@U?$_Simple_types@V?$weak_ptr@VofBaseSoundOutput@@@std@@@std@@@std@@@std@@QEAA@$$QEAV01@@Z
	??0?$_Vector_const_iterator@V?$_Vector_val@U?$_Simple_types@V?$weak_ptr@VofBaseSoundOutput@@@std@@@std@@@std@@@std@@QEAA@AEBV01@@Z
	??0?$_Vector_const_iterator@V?$_Vector_val@U?$_Simple_types@V?$weak_ptr@VofBaseSoundOutput@@@std@@@std@@@std@@@std@@QEAA@PEAV?$weak_ptr@VofBaseSoundOutput@@@1@PEBU_Container_base12@1@@Z
	??0?$_Vector_const_iterator@V?$_Vector_val@U?$_Simple_types@VofSoundDevice@@@std@@@std@@@std@@QEAA@PEAVofSoundDevice@@PEBU_Container_base12@1@@Z
	??0?$_Vector_iterator@V?$_Vector_val@U?$_Simple_types@UActiveSound@SoundEngine@Utils@ofxRulr@@@std@@@std@@@std@@QEAA@$$QEAV01@@Z
	??0?$_Vector_iterator@V?$_Vector_val@U?$_Simple_types@UActiveSound@SoundEngine@Utils@ofxRulr@@@std@@@std@@@std@@QEAA@AEBV01@@Z
	??0?$_Vector_iterator@V?$_Vector_val@U?$_Simple_types@UActiveSound@SoundEngine@Utils@ofxRulr@@@std@@@std@@@std@@QEAA@PEAUActiveSound@SoundEngine@Utils@ofxRulr@@PEBU_Container_base12@1@@Z
	??0?$_Vector_iterator@V?$_Vector_val@U?$_Simple_types@V?$weak_ptr@VofBaseSoundOutput@@@std@@@std@@@std@@@std@@QEAA@$$QEAV01@@Z
	??0?$_Vector_iterator@V?$_Vector_val@U?$_Simple_types@V?$weak_ptr@VofBaseSoundOutput@@@std@@@std@@@std@@@std@@QEAA@AEBV01@@Z
	??0?$_Vector_iterator@V?$_Vector_val@U?$_Simple_types@V?$weak_ptr@VofBaseSoundOutput@@@std@@@std@@@std@@@std@@QEAA@PEAV?$weak_ptr@VofBaseSoundOutput@@@1@PEBU_Container_base12@1@@Z
	??0?$_Vector_iterator@V?$_Vector_val@U?$_Simple_types@VofSoundDevice@@@std@@@std@@@std@@QEAA@PEAVofSoundDevice@@PEBU_Container_base12@1@@Z
	??0?$_Vector_val@U?$_Simple_types@I@std@@@std@@QEAA@XZ
	??0?$_Vector_val@U?$_Simple_types@UActiveSound@SoundEngine@Utils@ofxRulr@@@std@@@std@@QEAA@XZ
	??0?$_Vector_val@U?$_Simple_types@V?$weak_ptr@VofBaseSoundOutput@@@std@@@std@@@std@@QEAA@XZ
	??0?$_Wrap_alloc@V?$allocator@I@std@@@std@@QEAA@AEBV?$allocator@I@1@@Z
	??0?$_Wrap_alloc@V?$allocator@UActiveSound@SoundEngine@Utils@ofxRulr@@@std@@@std@@QEAA@AEBV?$allocator@UActiveSound@SoundEngine@Utils@ofxRulr@@@1@@Z
	??0?$_Wrap_alloc@V?$allocator@V?$weak_ptr@VofBaseSoundOutput@@@std@@@std@@@std@@QEAA@AEBV?$allocator@V?$weak_ptr@VofBaseSoundOutput@@@std@@@1@@Z
	??0?$allocator@I@std@@QEAA@AEBV01@@Z
	??0?$allocator@I@std@@QEAA@XZ
	??0?$allocator@UActiveSound@SoundEngine@Utils@ofxRulr@@@std@@QEAA@AEBV01@@Z
	??0?$allocator@UActiveSound@SoundEngine@Utils@ofxRulr@@@std@@QEAA@XZ
	??0?$allocator@V?$weak_ptr@VofBaseSoundOutput@@@std@@@std@@QEAA@AEBV01@@Z
	??0?$allocator@V?$weak_ptr@VofBaseSoundOutput@@@std@@@std@@QEAA@XZ
	??0?$basic_string@DU?$char_traits@D@std@@V?$allocator@D@2@@std@@QEAA@AEBV01@@Z
	??0?$function@$$A6AXAEAVofSoundBuffer@@@Z@std@@QEAA@XZ
	??0?$lock_guard@Vmutex@std@@@std@@QEAA@AEAVmutex@1@@Z
	??0?$shared_ptr@VRegister@ofxAssets@@@std@@QEAA@$$QEAV01@@Z
	??0?$shared_ptr@VRegister@ofxAssets@@@std@@QEAA@AEBV01@@Z
	??0?$shared_ptr@VRegister@ofxAssets@@@std@@QEAA@XZ
	??0?$shared_ptr@VSound@ofxAssets@@@std@@QEAA@$$QEAV01@@Z
	??0?$shared_ptr@VSound@ofxAssets@@@std@@QEAA@AEBV01@@Z
	??0?$shared_ptr@VSound@ofxAssets@@@std@@QEAA@XZ
	??0?$shared_ptr@VSoundEngine@Utils@ofxRulr@@@std@@QEAA@XZ
	??0?$vector@IV?$allocator@I@std@@@std@@QEAA@XZ
	??0?$vector@UActiveSound@SoundEngine@Utils@ofxRulr@@V?$allocator@UActiveSound@SoundEngine@Utils@ofxRulr@@@std@@@std@@QEAA@XZ
	??0?$vector@V?$weak_ptr@VofBaseSoundOutput@@@std@@V?$allocator@V?$weak_ptr@VofBaseSoundOutput@@@std@@@2@@std@@QEAA@XZ
	??0?$weak_ptr@VofBaseSoundOutput@@@std@@QEAA@$$QEAV01@@Z
	??0?$weak_ptr@VofBaseSoundOutput@@@std@@QEAA@AEBV01@@Z
	??0ActiveSound@SoundEngine@Utils@ofxRulr@@QEAA@$$QEAU0123@@Z
	??0ActiveSound@SoundEngine@Utils@ofxRulr@@QEAA@AEBU0123@@Z
	??0ActiveSound@SoundEngine@Utils@ofxRulr@@QEAA@XZ
	??0SingletonStore@?$Singleton@VSoundEngine@Utils@ofxRulr@@@ofxSingleton@@QEAA@XZ
	??0SoundEngine@Utils@ofxRulr@@QEAA@XZ
	??0_Iterator_base12@std@@QEAA@AEBU01@@Z
	??0_Iterator_base12@std@@QEAA@XZ
	??0_Mutex_base@std@@QEAA@H@Z
	??0_Ref_count_base@std@@IEAA@XZ
	??0_Sentry_base@?$basic_ostream@DU?$char_traits@D@std@@@std@@QEAA@AEAV12@@Z
	??0bad_weak_ptr@std@@QEAA@AEBV01@@Z
	??0bad_weak_ptr@std@@QEAA@PEBD@Z
	??0exception@std@@QEAA@AEBV01@@Z
	??0exception@std@@QEAA@XZ
	??0mutex@std@@QEAA@XZ
	??0ofBaseSoundOutput@@QEAA@XZ
	??0ofSoundDevice@@QEAA@XZ
	??0ofSoundStreamSettings@@QEAA@XZ
	??0sentry@?$basic_ostream@DU?$char_traits@D@std@@@std@@QEAA@AEAV12@@Z
	??1?$_Compressed_pair@U?$_Wrap_alloc@V?$allocator@I@std@@@std@@V?$_Vector_val@U?$_Simple_types@I@std@@@2@$00@std@@QEAA@XZ
	??1?$_Compressed_pair@U?$_Wrap_alloc@V?$allocator@UActiveSound@SoundEngine@Utils@ofxRulr@@@std@@@std@@V?$_Vector_val@U?$_Simple_types@UActiveSound@SoundEngine@Utils@ofxRulr@@@std@@@2@$00@std@@QEAA@XZ
	??1?$_Compressed_pair@U?$_Wrap_alloc@V?$allocator@V?$weak_ptr@VofBaseSoundOutput@@@std@@@std@@@std@@V?$_Vector_val@U?$_Simple_types@V?$weak_ptr@VofBaseSoundOutput@@@std@@@std@@@2@$00@std@@QEAA@XZ
	??1?$_Compressed_pair@U?$_Wrap_alloc@V?$allocator@VofSoundDevice@@@std@@@std@@V?$_Vector_val@U?$_Simple_types@VofSoundDevice@@@std@@@2@$00@std@@QEAA@XZ
	??1?$_Func_class@XAEAVofSoundBuffer@@@std@@QEAA@XZ
	??1?$_Iterator012@Urandom_access_iterator_tag@std@@UActiveSound@SoundEngine@Utils@ofxRulr@@_JPEBU3456@AEBU3456@U_Iterator_base12@2@@std@@QEAA@XZ
	??1?$_Iterator012@Urandom_access_iterator_tag@std@@V?$weak_ptr@VofBaseSoundOutput@@@2@_JPEBV32@AEBV32@U_Iterator_base12@2@@std@@QEAA@XZ
	??1?$_Iterator012@Urandom_access_iterator_tag@std@@VofSoundDevice@@_JPEBV3@AEBV3@U_Iterator_base12@2@@std@@QEAA@XZ
	??1?$_Ref_count_obj@VRegister@ofxAssets@@@std@@UEAA@XZ
	??1?$_Vector_alloc@U?$_Vec_base_types@IV?$allocator@I@std@@@std@@@std@@QEAA@XZ
	??1?$_Vector_alloc@U?$_Vec_base_types@UActiveSound@SoundEngine@Utils@ofxRulr@@V?$allocator@UActiveSound@SoundEngine@Utils@ofxRulr@@@std@@@std@@@std@@QEAA@XZ
	??1?$_Vector_alloc@U?$_Vec_base_types@V?$weak_ptr@VofBaseSoundOutput@@@std@@V?$allocator@V?$weak_ptr@VofBaseSoundOutput@@@std@@@2@@std@@@std@@QEAA@XZ
	??1?$_Vector_alloc@U?$_Vec_base_types@VofSoundDevice@@V?$allocator@VofSoundDevice@@@std@@@std@@@std@@QEAA@XZ
	??1?$_Vector_const_iterator@V?$_Vector_val@U?$_Simple_types@UActiveSound@SoundEngine@Utils@ofxRulr@@@std@@@std@@@std@@QEAA@XZ
	??1?$_Vector_const_iterator@V?$_Vector_val@U?$_Simple_types@V?$weak_ptr@VofBaseSoundOutput@@@std@@@std@@@std@@@std@@QEAA@XZ
	??1?$_Vector_const_iterator@V?$_Vector_val@U?$_Simple_types@VofSoundDevice@@@std@@@std@@@std@@QEAA@XZ
	??1?$_Vector_iterator@V?$_Vector_val@U?$_Simple_types@UActiveSound@SoundEngine@Utils@ofxRulr@@@std@@@std@@@std@@QEAA@XZ
	??1?$_Vector_iterator@V?$_Vector_val@U?$_Simple_types@V?$weak_ptr@VofBaseSoundOutput@@@std@@@std@@@std@@@std@@QEAA@XZ
	??1?$_Vector_iterator@V?$_Vector_val@U?$_Simple_types@VofSoundDevice@@@std@@@std@@@std@@QEAA@XZ
	??1?$_Vector_val@U?$_Simple_types@I@std@@@std@@QEAA@XZ
	??1?$_Vector_val@U?$_Simple_types@UActiveSound@SoundEngine@Utils@ofxRulr@@@std@@@std@@QEAA@XZ
	??1?$_Vector_val@U?$_Simple_types@V?$weak_ptr@VofBaseSoundOutput@@@std@@@std@@@std@@QEAA@XZ
	??1?$_Vector_val@U?$_Simple_types@VofSoundDevice@@@std@@@std@@QEAA@XZ
	??1?$function@$$A6AXAEAVofSoundBuffer@@@Z@std@@QEAA@XZ
	??1?$lock_guard@Vmutex@std@@@std@@QEAA@XZ
	??1?$shared_ptr@VRegister@ofxAssets@@@std@@QEAA@XZ
	??1?$shared_ptr@VRegister@ofxSingleton@@@std@@QEAA@XZ
	??1?$shared_ptr@VSound@ofxAssets@@@std@@QEAA@XZ
	??1?$shared_ptr@VSoundEngine@Utils@ofxRulr@@@std@@QEAA@XZ
	??1?$shared_ptr@VofBaseSoundOutput@@@std@@QEAA@XZ
	??1?$shared_ptr@VofBaseSoundStream@@@std@@QEAA@XZ
	??1?$vector@IV?$allocator@I@std@@@std@@QEAA@XZ
	??1?$vector@UActiveSound@SoundEngine@Utils@ofxRulr@@V?$allocator@UActiveSound@SoundEngine@Utils@ofxRulr@@@std@@@std@@QEAA@XZ
	??1?$vector@V?$weak_ptr@VofBaseSoundOutput@@@std@@V?$allocator@V?$weak_ptr@VofBaseSoundOutput@@@std@@@2@@std@@QEAA@XZ
	??1?$vector@VofSoundDevice@@V?$allocator@VofSoundDevice@@@std@@@std@@QEAA@XZ
	??1?$weak_ptr@VofBaseSoundOutput@@@std@@QEAA@XZ
	??1ActiveSound@SoundEngine@Utils@ofxRulr@@QEAA@XZ
	??1SingletonStore@?$Singleton@VSoundEngine@Utils@ofxRulr@@@ofxSingleton@@QEAA@XZ
	??1SoundEngine@Utils@ofxRulr@@UEAA@XZ
	??1_Iterator_base12@std@@QEAA@XZ
	??1_Mutex_base@std@@QEAA@XZ
	??1_Ref_count_base@std@@UEAA@XZ
	??1_Sentry_base@?$basic_ostream@DU?$char_traits@D@std@@@std@@QEAA@XZ
	??1bad_weak_ptr@std@@UEAA@XZ
	??1exception@std@@UEAA@XZ
	??1mutex@std@@QEAA@XZ
	??1ofBaseSoundOutput@@UEAA@XZ
	??1ofLogError@@UEAA@XZ
	??1ofSoundDevice@@QEAA@XZ
	??1ofSoundStream@@QEAA@XZ
	??1ofSoundStreamSettings@@UEAA@XZ
	??1sentry@?$basic_ostream@DU?$char_traits@D@std@@@std@@QEAA@XZ
	??3@YAXPEAX0@Z
	??4?$_Iterator012@Urandom_access_iterator_tag@std@@UActiveSound@SoundEngine@Utils@ofxRulr@@_JPEBU3456@AEBU3456@U_Iterator_base12@2@@std@@QEAAAEAU01@$$QEAU01@@Z
	??4?$_Iterator012@Urandom_access_iterator_tag@std@@V?$weak_ptr@VofBaseSoundOutput@@@2@_JPEBV32@AEBV32@U_Iterator_base12@2@@std@@QEAAAEAU01@$$QEAU01@@Z
	??4?$_Vector_const_iterator@V?$_Vector_val@U?$_Simple_types@UActiveSound@SoundEngine@Utils@ofxRulr@@@std@@@std@@@std@@QEAAAEAV01@$$QEAV01@@Z
	??4?$_Vector_const_iterator@V?$_Vector_val@U?$_Simple_types@V?$weak_ptr@VofBaseSoundOutput@@@std@@@std@@@std@@@std@@QEAAAEAV01@$$QEAV01@@Z
	??4?$_Vector_iterator@V?$_Vector_val@U?$_Simple_types@UActiveSound@SoundEngine@Utils@ofxRulr@@@std@@@std@@@std@@QEAAAEAV01@$$QEAV01@@Z
	??4?$_Vector_iterator@V?$_Vector_val@U?$_Simple_types@V?$weak_ptr@VofBaseSoundOutput@@@std@@@std@@@std@@@std@@QEAAAEAV01@$$QEAV01@@Z
	??4?$shared_ptr@VRegister@ofxAssets@@@std@@QEAAAEAV01@$$QEAV01@@Z
	??4?$shared_ptr@VSound@ofxAssets@@@std@@QEAAAEAV01@$$QEAV01@@Z
	??4?$shared_ptr@VSound@ofxAssets@@@std@@QEAAAEAV01@AEBV01@@Z
	??4?$weak_ptr@VofBaseSoundOutput@@@std@@QEAAAEAV01@$$QEAV01@@Z
	??4ActiveSound@SoundEngine@Utils@ofxRulr@@QEAAAEAU0123@$$QEAU0123@@Z
	??4_Iterator_base12@std@@QEAAAEAU01@AEBU01@@Z
	??8?$_Vector_const_iterator@V?$_Vector_val@U?$_Simple_types@UActiveSound@SoundEngine@Utils@ofxRulr@@@std@@@std@@@std@@QEBA_NAEBV01@@Z
	??8?$_Vector_const_iterator@V?$_Vector_val@U?$_Simple_types@V?$weak_ptr@VofBaseSoundOutput@@@std@@@std@@@std@@@std@@QEBA_NAEBV01@@Z
	??8?$_Vector_const_iterator@V?$_Vector_val@U?$_Simple_types@VofSoundDevice@@@std@@@std@@@std@@QEBA_NAEBV01@@Z
	??9?$_Vector_const_iterator@V?$_Vector_val@U?$_Simple_types@UActiveSound@SoundEngine@Utils@ofxRulr@@@std@@@std@@@std@@QEBA_NAEBV01@@Z
	??9?$_Vector_const_iterator@V?$_Vector_val@U?$_Simple_types@V?$weak_ptr@VofBaseSoundOutput@@@std@@@std@@@std@@@std@@QEBA_NAEBV01@@Z
	??9?$_Vector_const_iterator@V?$_Vector_val@U?$_Simple_types@VofSoundDevice@@@std@@@std@@@std@@QEBA_NAEBV01@@Z
	??B?$shared_ptr@VRegister@ofxAssets@@@std@@QEBA_NXZ
	??B?$shared_ptr@VSound@ofxAssets@@@std@@QEBA_NXZ
	??B?$shared_ptr@VofBaseSoundOutput@@@std@@QEBA_NXZ
	??Bsentry@?$basic_ostream@DU?$char_traits@D@std@@@std@@QEBA_NXZ
	??C?$_Vector_iterator@V?$_Vector_val@U?$_Simple_types@UActiveSound@SoundEngine@Utils@ofxRulr@@@std@@@std@@@std@@QEBAPEAUActiveSound@SoundEngine@Utils@ofxRulr@@XZ
	??C?$_Vector_iterator@V?$_Vector_val@U?$_Simple_types@V?$weak_ptr@VofBaseSoundOutput@@@std@@@std@@@std@@@std@@QEBAPEAV?$weak_ptr@VofBaseSoundOutput@@@1@XZ
	??C?$shared_ptr@VSound@ofxAssets@@@std@@QEBAPEAVSound@ofxAssets@@XZ
	??C?$shared_ptr@VofBaseSoundOutput@@@std@@QEBAPEAVofBaseSoundOutput@@XZ
	??D?$_Vector_const_iterator@V?$_Vector_val@U?$_Simple_types@UActiveSound@SoundEngine@Utils@ofxRulr@@@std@@@std@@@std@@QEBAAEBUActiveSound@SoundEngine@Utils@ofxRulr@@XZ
	??D?$_Vector_const_iterator@V?$_Vector_val@U?$_Simple_types@V?$weak_ptr@VofBaseSoundOutput@@@std@@@std@@@std@@@std@@QEBAAEBV?$weak_ptr@VofBaseSoundOutput@@@1@XZ
	??D?$_Vector_const_iterator@V?$_Vector_val@U?$_Simple_types@VofSoundDevice@@@std@@@std@@@std@@QEBAAEBVofSoundDevice@@XZ
	??D?$_Vector_iterator@V?$_Vector_val@U?$_Simple_types@UActiveSound@SoundEngine@Utils@ofxRulr@@@std@@@std@@@std@@QEBAAEAUActiveSound@SoundEngine@Utils@ofxRulr@@XZ
	??D?$_Vector_iterator@V?$_Vector_val@U?$_Simple_types@V?$weak_ptr@VofBaseSoundOutput@@@std@@@std@@@std@@@std@@QEBAAEAV?$weak_ptr@VofBaseSoundOutput@@@1@XZ
	??D?$_Vector_iterator@V?$_Vector_val@U?$_Simple_types@VofSoundDevice@@@std@@@std@@@std@@QEBAAEAVofSoundDevice@@XZ
	??D?$shared_ptr@VRegister@ofxAssets@@@std@@QEBAAEAVRegister@ofxAssets@@XZ
	??D?$shared_ptr@VRegister@ofxSingleton@@@std@@QEBAAEAVRegister@ofxSingleton@@XZ
	??E?$_Vector_const_iterator@V?$_Vector_val@U?$_Simple_types@UActiveSound@SoundEngine@Utils@ofxRulr@@@std@@@std@@@std@@QEAAAEAV01@XZ
	??E?$_Vector_const_iterator@V?$_Vector_val@U?$_Simple_types@V?$weak_ptr@VofBaseSoundOutput@@@std@@@std@@@std@@@std@@QEAAAEAV01@XZ
	??E?$_Vector_const_iterator@V?$_Vector_val@U?$_Simple_types@VofSoundDevice@@@std@@@std@@@std@@QEAAAEAV01@XZ
	??E?$_Vector_iterator@V?$_Vector_val@U?$_Simple_types@UActiveSound@SoundEngine@Utils@ofxRulr@@@std@@@std@@@std@@QEAA?AV01@H@Z
	??E?$_Vector_iterator@V?$_Vector_val@U?$_Simple_types@UActiveSound@SoundEngine@Utils@ofxRulr@@@std@@@std@@@std@@QEAAAEAV01@XZ
	??E?$_Vector_iterator@V?$_Vector_val@U?$_Simple_types@V?$weak_ptr@VofBaseSoundOutput@@@std@@@std@@@std@@@std@@QEAA?AV01@H@Z
	??E?$_Vector_iterator@V?$_Vector_val@U?$_Simple_types@V?$weak_ptr@VofBaseSoundOutput@@@std@@@std@@@std@@@std@@QEAAAEAV01@XZ
	??E?$_Vector_iterator@V?$_Vector_val@U?$_Simple_types@VofSoundDevice@@@std@@@std@@@std@@QEAAAEAV01@XZ
	??_7?$_Ref_count_obj@VRegister@ofxAssets@@@std@@6B@
	??_7SingletonStore@?$Singleton@VSoundEngine@Utils@ofxRulr@@@ofxSingleton@@6B@
	??_7SoundEngine@Utils@ofxRulr@@6B@
	??_7_Ref_count_base@std@@6B@
	??_7bad_weak_ptr@std@@6B@
	??_7exception@std@@6B@
	??_7ofBaseSoundOutput@@6B@
	??_7ofSoundStreamSettings@@6B@
	??_C@_07NBCGADJA@Unknown?$AA@
	??_C@_0BC@EOODALEL@Unknown?5exception?$AA@
	??_C@_0BD@OLBABOEK@vector?$DMT?$DO?5too?5long?$AA@
	??_C@_0BL@LAEDAOAK@ofxRulr?3?3Utils?3?3SondEngine?$AA@
	??_C@_0CE@OFMIGAMM@Standard?5C?$CL?$CL?5Libraries?5Out?5of?5Ra@
	??_C@_0CI@FNPHFCCM@Standard?5C?$CL?$CL?5Libraries?5Invalid?5A@
	??_C@_0GB@HDDDMCCL@No?5workable?5sound?5output?5device?5@
	??_C@_0N@FJHHFFAF@bad_weak_ptr?$AA@
	??_C@_1BBC@HNCCAFOL@?$AAs?$AAt?$AAd?$AA?3?$AA?3?$AA_?$AAV?$AAe?$AAc?$AAt?$AAo?$AAr?$AA_?$AAc?$AAo?$AAn?$AAs?$AAt?$AA_?$AAi?$AAt?$AAe?$AAr?$AAa?$AAt?$AAo?$AAr?$AA?$DM?$AAc?$AAl?$AAa?$AAs@
	??_C@_1BBG@OMEEMILP@?$AAs?$AAt?$AAd?$AA?3?$AA?3?$AA_?$AAV?$AAe?$AAc?$AAt?$AAo?$AAr?$AA_?$AAc?$AAo?$AAn?$AAs?$AAt?$AA_?$AAi?$AAt?$AAe?$AAr?$AAa?$AAt?$AAo?$AAr?$AA?$DM?$AAc?$AAl?$AAa?$AAs@
	??_C@_1BBI@HKNMOLKC@?$AAs?$AAt?$AAd?$AA?3?$AA?3?$AA_?$AAV?$AAe?$AAc?$AAt?$AAo?$AAr?$AA_?$AAc?$AAo?$AAn?$AAs?$AAt?$AA_?$AAi?$AAt?$AAe?$AAr?$AAa?$AAt?$AAo?$AAr?$AA?$DM?$AAc?$AAl?$AAa?$AAs@
	??_C@_1BBK@BHIGGENN@?$AAs?$AAt?$AAd?$AA?3?$AA?3?$AA_?$AAV?$AAe?$AAc?$AAt?$AAo?$AAr?$AA_?$AAc?$AAo?$AAn?$AAs?$AAt?$AA_?$AAi?$AAt?$AAe?$AAr?$AAa?$AAt?$AAo?$AAr?$AA?$DM?$AAc?$AAl?$AAa?$AAs@
	??_C@_1BBM@BONKPHDB@?$AAs?$AAt?$AAd?$AA?3?$AA?3?$AA_?$AAV?$AAe?$AAc?$AAt?$AAo?$AAr?$AA_?$AAc?$AAo?$AAn?$AAs?$AAt?$AA_?$AAi?$AAt?$AAe?$AAr?$AAa?$AAt?$AAo?$AAr?$AA?$DM?$AAc?$AAl?$AAa?$AAs@
	??_C@_1BBO@FJOLIFEN@?$AAs?$AAt?$AAd?$AA?3?$AA?3?$AA_?$AAV?$AAe?$AAc?$AAt?$AAo?$AAr?$AA_?$AAc?$AAo?$AAn?$AAs?$AAt?$AA_?$AAi?$AAt?$AAe?$AAr?$AAa?$AAt?$AAo?$AAr?$AA?$DM?$AAc?$AAl?$AAa?$AAs@
	??_C@_1BO@MEPPHOO@?$AA?$CC?$AAo?$AAu?$AAt?$AA?5?$AAo?$AAf?$AA?5?$AAr?$AAa?$AAn?$AAg?$AAe?$AA?$CC?$AA?$AA@
	??_C@_1CG@LEJCKCBB@?$AAi?$AAn?$AAv?$AAa?$AAl?$AAi?$AAd?$AA?5?$AAc?$AAo?$AAm?$AAp?$AAa?$AAr?$AAa?$AAt?$AAo?$AAr?$AA?$AA@
	??_C@_1CO@DGLIKNHI@?$AAi?$AAn?$AAv?$AAa?$AAl?$AAi?$AAd?$AA?5?$AAi?$AAt?$AAe?$AAr?$AAa?$AAt?$AAo?$AAr?$AA?5?$AAr?$AAa?$AAn?$AAg?$AAe?$AA?$AA@
	??_C@_1DC@POOIKBAO@?$AAI?$AAT?$AAE?$AAR?$AAA?$AAT?$AAO?$AAR?$AA?5?$AAL?$AAI?$AAS?$AAT?$AA?5?$AAC?$AAO?$AAR?$AAR?$AAU?$AAP?$AAT?$AAE?$AAD?$AA?$CB?$AA?$AA@
	??_C@_1DM@HINDPMBP@?$AAv?$AAe?$AAc?$AAt?$AAo?$AAr?$AA?5?$AAi?$AAt?$AAe?$AAr?$AAa?$AAt?$AAo?$AAr?$AAs?$AA?5?$AAi?$AAn?$AAc?$AAo?$AAm?$AAp?$AAa?$AAt?$AAi?$AAb?$AAl?$AAe?$AA?$AA@
	??_C@_1EE@EJDKCLKB@?$AAv?$AAe?$AAc?$AAt?$AAo?$AAr?$AA?5?$AAi?$AAt?$AAe?$AAr?$AAa?$AAt?$AAo?$AAr?$AA?5?$AAn?$AAo?$AAt?$AA?5?$AAi?$AAn?$AAc?$AAr?$AAe?$AAm?$AAe?$AAn?$AAt?$AAa?$AAb?$AAl@
	??_C@_1EG@FOHJJHAC@?$AAv?$AAe?$AAc?$AAt?$AAo?$AAr?$AA?5?$AAi?$AAt?$AAe?$AAr?$AAa?$AAt?$AAo?$AAr?$AA?5?$AAn?$AAo?$AAt?$AA?5?$AAd?$AAe?$AAr?$AAe?$AAf?$AAe?$AAr?$AAe?$AAn?$AAc?$AAa?$AAb@
	??_C@_1EI@HGIDLLCM@?$AAv?$AAe?$AAc?$AAt?$AAo?$AAr?$AA?5?$AAe?$AAr?$AAa?$AAs?$AAe?$AA?5?$AAi?$AAt?$AAe?$AAr?$AAa?$AAt?$AAo?$AAr?$AA?5?$AAo?$AAu?$AAt?$AAs?$AAi?$AAd?$AAe?$AA?5?$AAr?$AAa@
	??_C@_1FG@IBPIFFN@?$AA?$CC?$AAS?$AAt?$AAa?$AAn?$AAd?$AAa?$AAr?$AAd?$AA?5?$AAC?$AA?$CL?$AA?$CL?$AA?5?$AAL?$AAi?$AAb?$AAr?$AAa?$AAr?$AAi?$AAe?$AAs?$AA?5?$AAO?$AAu?$AAt?$AA?5?$AAo?$AAf?$AA?5?$AAR@
	??_C@_1FO@GJIHNDLM@?$AA?$CC?$AAS?$AAt?$AAa?$AAn?$AAd?$AAa?$AAr?$AAd?$AA?5?$AAC?$AA?$CL?$AA?$CL?$AA?5?$AAL?$AAi?$AAb?$AAr?$AAa?$AAr?$AAi?$AAe?$AAs?$AA?5?$AAI?$AAn?$AAv?$AAa?$AAl?$AAi?$AAd?$AA?5@
	??_C@_1IM@NCODKBJH@?$AAc?$AA?3?$AA?2?$AAp?$AAr?$AAo?$AAg?$AAr?$AAa?$AAm?$AA?5?$AAf?$AAi?$AAl?$AAe?$AAs?$AA?5?$AA?$CI?$AAx?$AA8?$AA6?$AA?$CJ?$AA?2?$AAm?$AAi?$AAc?$AAr?$AAo?$AAs?$AAo?$AAf?$AAt@
	??_C@_1IO@KOLLFFAJ@?$AAc?$AA?3?$AA?2?$AAp?$AAr?$AAo?$AAg?$AAr?$AAa?$AAm?$AA?5?$AAf?$AAi?$AAl?$AAe?$AAs?$AA?5?$AA?$CI?$AAx?$AA8?$AA6?$AA?$CJ?$AA?2?$AAm?$AAi?$AAc?$AAr?$AAo?$AAs?$AAo?$AAf?$AAt@
	??_C@_1JA@MHADJNIL@?$AAc?$AA?3?$AA?2?$AAp?$AAr?$AAo?$AAg?$AAr?$AAa?$AAm?$AA?5?$AAf?$AAi?$AAl?$AAe?$AAs?$AA?5?$AA?$CI?$AAx?$AA8?$AA6?$AA?$CJ?$AA?2?$AAm?$AAi?$AAc?$AAr?$AAo?$AAs?$AAo?$AAf?$AAt@
	??_C@_1JC@ELNBGKIG@?$AAc?$AA?3?$AA?2?$AAp?$AAr?$AAo?$AAg?$AAr?$AAa?$AAm?$AA?5?$AAf?$AAi?$AAl?$AAe?$AAs?$AA?5?$AA?$CI?$AAx?$AA8?$AA6?$AA?$CJ?$AA?2?$AAm?$AAi?$AAc?$AAr?$AAo?$AAs?$AAo?$AAf?$AAt@
	??_C@_1NO@CMDKGAFL@?$AAs?$AAt?$AAd?$AA?3?$AA?3?$AA_?$AAV?$AAe?$AAc?$AAt?$AAo?$AAr?$AA_?$AAc?$AAo?$AAn?$AAs?$AAt?$AA_?$AAi?$AAt?$AAe?$AAr?$AAa?$AAt?$AAo?$AAr?$AA?$DM?$AAc?$AAl?$AAa?$AAs@
	??_C@_1OE@MJBHDLBN@?$AAs?$AAt?$AAd?$AA?3?$AA?3?$AA_?$AAV?$AAe?$AAc?$AAt?$AAo?$AAr?$AA_?$AAc?$AAo?$AAn?$AAs?$AAt?$AA_?$AAi?$AAt?$AAe?$AAr?$AAa?$AAt?$AAo?$AAr?$AA?$DM?$AAc?$AAl?$AAa?$AAs@
	??_C@_1OG@PCAILHLF@?$AAs?$AAt?$AAd?$AA?3?$AA?3?$AA_?$AAV?$AAe?$AAc?$AAt?$AAo?$AAr?$AA_?$AAc?$AAo?$AAn?$AAs?$AAt?$AA_?$AAi?$AAt?$AAe?$AAr?$AAa?$AAt?$AAo?$AAr?$AA?$DM?$AAc?$AAl?$AAa?$AAs@
	??_G?$_Ref_count_obj@VRegister@ofxAssets@@@std@@UEAAPEAXI@Z
	??_G?$weak_ptr@VofBaseSoundOutput@@@std@@QEAAPEAXI@Z
	??_GActiveSound@SoundEngine@Utils@ofxRulr@@QEAAPEAXI@Z
	??_GSoundEngine@Utils@ofxRulr@@UEAAPEAXI@Z
	??_G_Ref_count_base@std@@UEAAPEAXI@Z
	??_Gbad_weak_ptr@std@@UEAAPEAXI@Z
	??_Gexception@std@@UEAAPEAXI@Z
	??_GofBaseSoundOutput@@UEAAPEAXI@Z
	??_GofSoundDevice@@QEAAPEAXI@Z
	??_GofSoundStreamSettings@@UEAAPEAXI@Z
	??_R0?AV?$Singleton@VSoundEngine@Utils@ofxRulr@@@ofxSingleton@@@8
	??_R0?AV?$_Ref_count_obj@VRegister@ofxAssets@@@std@@@8
	??_R0?AVBaseStore@ofxSingleton@@@8
	??_R0?AVSingletonStore@?$Singleton@VSoundEngine@Utils@ofxRulr@@@ofxSingleton@@@8
	??_R0?AVSoundEngine@Utils@ofxRulr@@@8
	??_R0?AV_Ref_count_base@std@@@8
	??_R0?AVbad_weak_ptr@std@@@8
	??_R0?AVexception@std@@@8
	??_R0?AVofBaseSoundOutput@@@8
	??_R0?AVofSoundStreamSettings@@@8
	??_R17?0A@EA@?$Singleton@VSoundEngine@Utils@ofxRulr@@@ofxSingleton@@8
	??_R1A@?0A@EA@?$Singleton@VSoundEngine@Utils@ofxRulr@@@ofxSingleton@@8
	??_R1A@?0A@EA@?$_Ref_count_obj@VRegister@ofxAssets@@@std@@8
	??_R1A@?0A@EA@BaseStore@ofxSingleton@@8
	??_R1A@?0A@EA@SingletonStore@?$Singleton@VSoundEngine@Utils@ofxRulr@@@ofxSingleton@@8
	??_R1A@?0A@EA@SoundEngine@Utils@ofxRulr@@8
	??_R1A@?0A@EA@_Ref_count_base@std@@8
	??_R1A@?0A@EA@bad_weak_ptr@std@@8
	??_R1A@?0A@EA@exception@std@@8
	??_R1A@?0A@EA@ofBaseSoundOutput@@8
	??_R1A@?0A@EA@ofSoundStreamSettings@@8
	??_R2?$Singleton@VSoundEngine@Utils@ofxRulr@@@ofxSingleton@@8
	??_R2?$_Ref_count_obj@VRegister@ofxAssets@@@std@@8
	??_R2BaseStore@ofxSingleton@@8
	??_R2SingletonStore@?$Singleton@VSoundEngine@Utils@ofxRulr@@@ofxSingleton@@8
	??_R2SoundEngine@Utils@ofxRulr@@8
	??_R2_Ref_count_base@std@@8
	??_R2bad_weak_ptr@std@@8
	??_R2exception@std@@8
	??_R2ofBaseSoundOutput@@8
	??_R2ofSoundStreamSettings@@8
	??_R3?$Singleton@VSoundEngine@Utils@ofxRulr@@@ofxSingleton@@8
	??_R3?$_Ref_count_obj@VRegister@ofxAssets@@@std@@8
	??_R3BaseStore@ofxSingleton@@8
	??_R3SingletonStore@?$Singleton@VSoundEngine@Utils@ofxRulr@@@ofxSingleton@@8
	??_R3SoundEngine@Utils@ofxRulr@@8
	??_R3_Ref_count_base@std@@8
	??_R3bad_weak_ptr@std@@8
	??_R3exception@std@@8
	??_R3ofBaseSoundOutput@@8
	??_R3ofSoundStreamSettings@@8
	??_R4?$_Ref_count_obj@VRegister@ofxAssets@@@std@@6B@
	??_R4SingletonStore@?$Singleton@VSoundEngine@Utils@ofxRulr@@@ofxSingleton@@6B@
	??_R4SoundEngine@Utils@ofxRulr@@6B@
	??_R4_Ref_count_base@std@@6B@
	??_R4bad_weak_ptr@std@@6B@
	??_R4exception@std@@6B@
	??_R4ofBaseSoundOutput@@6B@
	??_R4ofSoundStreamSettings@@6B@
	?X@?$Singleton@VRegister@ofxAssets@@@ofxSingleton@@SAAEAVRegister@ofxAssets@@XZ
	?X@?$UnmanagedSingleton@VRegister@ofxSingleton@@@ofxSingleton@@SAAEAVRegister@2@XZ
	?_Adopt@_Iterator_base12@std@@QEAAXPEBU_Container_base12@2@@Z
	?_Alloc_proxy@?$_Vector_alloc@U?$_Vec_base_types@IV?$allocator@I@std@@@std@@@std@@QEAAXXZ
	?_Alloc_proxy@?$_Vector_alloc@U?$_Vec_base_types@UActiveSound@SoundEngine@Utils@ofxRulr@@V?$allocator@UActiveSound@SoundEngine@Utils@ofxRulr@@@std@@@std@@@std@@QEAAXXZ
	?_Alloc_proxy@?$_Vector_alloc@U?$_Vec_base_types@V?$weak_ptr@VofBaseSoundOutput@@@std@@V?$allocator@V?$weak_ptr@VofBaseSoundOutput@@@std@@@2@@std@@@std@@QEAAXXZ
	?_Check_C_return@std@@YAHH@Z
	?_Clrcont@_Iterator_base12@std@@QEAAXXZ
	?_Compat@?$_Vector_const_iterator@V?$_Vector_val@U?$_Simple_types@UActiveSound@SoundEngine@Utils@ofxRulr@@@std@@@std@@@std@@QEBAXAEBV12@@Z
	?_Compat@?$_Vector_const_iterator@V?$_Vector_val@U?$_Simple_types@V?$weak_ptr@VofBaseSoundOutput@@@std@@@std@@@std@@@std@@QEBAXAEBV12@@Z
	?_Compat@?$_Vector_const_iterator@V?$_Vector_val@U?$_Simple_types@VofSoundDevice@@@std@@@std@@@std@@QEBAXAEBV12@@Z
	?_Decref@?$_Ptr_base@VRegister@ofxAssets@@@std@@QEAAXXZ
	?_Decref@?$_Ptr_base@VRegister@ofxSingleton@@@std@@QEAAXXZ
	?_Decref@?$_Ptr_base@VSound@ofxAssets@@@std@@QEAAXXZ
	?_Decref@?$_Ptr_base@VSoundEngine@Utils@ofxRulr@@@std@@QEAAXXZ
	?_Decref@?$_Ptr_base@VofBaseSoundOutput@@@std@@QEAAXXZ
	?_Decref@?$_Ptr_base@VofBaseSoundStream@@@std@@QEAAXXZ
	?_Decref@_Ref_count_base@std@@QEAAXXZ
	?_Decwref@?$_Ptr_base@VofBaseSoundOutput@@@std@@QEAAXXZ
	?_Decwref@_Ref_count_base@std@@QEAAXXZ
	?_Delete_this@?$_Ref_count_obj@VRegister@ofxAssets@@@std@@EEAAXXZ
	?_Destroy@?$_Ref_count_obj@VRegister@ofxAssets@@@std@@EEAAXXZ
	?_Destroy@?$vector@IV?$allocator@I@std@@@std@@IEAAXPEAI0@Z
	?_Destroy@?$vector@UActiveSound@SoundEngine@Utils@ofxRulr@@V?$allocator@UActiveSound@SoundEngine@Utils@ofxRulr@@@std@@@std@@IEAAXPEAUActiveSound@SoundEngine@Utils@ofxRulr@@0@Z
	?_Destroy@?$vector@V?$weak_ptr@VofBaseSoundOutput@@@std@@V?$allocator@V?$weak_ptr@VofBaseSoundOutput@@@std@@@2@@std@@IEAAXPEAV?$weak_ptr@VofBaseSoundOutput@@@2@0@Z
	?_Destroy@?$vector@VofSoundDevice@@V?$allocator@VofSoundDevice@@@std@@@std@@IEAAXPEAVofSoundDevice@@0@Z
	?_Empty@?$_Func_class@XAEAVofSoundBuffer@@@std@@IEBA_NXZ
	?_Enable_shared@std@@YAXPEDX0@Z
	?_Free_proxy@?$_Vector_alloc@U?$_Vec_base_types@IV?$allocator@I@std@@@std@@@std@@QEAAXXZ
	?_Free_proxy@?$_Vector_alloc@U?$_Vec_base_types@UActiveSound@SoundEngine@Utils@ofxRulr@@V?$allocator@UActiveSound@SoundEngine@Utils@ofxRulr@@@std@@@std@@@std@@QEAAXXZ
	?_Free_proxy@?$_Vector_alloc@U?$_Vec_base_types@V?$weak_ptr@VofBaseSoundOutput@@@std@@V?$allocator@V?$weak_ptr@VofBaseSoundOutput@@@std@@@2@@std@@@std@@QEAAXXZ
	?_Free_proxy@?$_Vector_alloc@U?$_Vec_base_types@VofSoundDevice@@V?$allocator@VofSoundDevice@@@std@@@std@@@std@@QEAAXXZ
	?_Get@?$_Ptr_base@VRegister@ofxAssets@@@std@@QEBAPEAVRegister@ofxAssets@@XZ
	?_Get@?$_Ptr_base@VRegister@ofxSingleton@@@std@@QEBAPEAVRegister@ofxSingleton@@XZ
	?_Get@?$_Ptr_base@VSound@ofxAssets@@@std@@QEBAPEAVSound@ofxAssets@@XZ
	?_Get@?$_Ptr_base@VofBaseSoundOutput@@@std@@QEBAPEAVofBaseSoundOutput@@XZ
	?_Get_data@?$_Vector_alloc@U?$_Vec_base_types@IV?$allocator@I@std@@@std@@@std@@QEAAAEAV?$_Vector_val@U?$_Simple_types@I@std@@@2@XZ
	?_Get_data@?$_Vector_alloc@U?$_Vec_base_types@MV?$allocator@M@std@@@std@@@std@@QEBAAEBV?$_Vector_val@U?$_Simple_types@M@std@@@2@XZ
	?_Get_data@?$_Vector_alloc@U?$_Vec_base_types@UActiveSound@SoundEngine@Utils@ofxRulr@@V?$allocator@UActiveSound@SoundEngine@Utils@ofxRulr@@@std@@@std@@@std@@QEAAAEAV?$_Vector_val@U?$_Simple_types@UActiveSound@SoundEngine@Utils@ofxRulr@@@std@@@2@XZ
	?_Get_data@?$_Vector_alloc@U?$_Vec_base_types@UActiveSound@SoundEngine@Utils@ofxRulr@@V?$allocator@UActiveSound@SoundEngine@Utils@ofxRulr@@@std@@@std@@@std@@QEBAAEBV?$_Vector_val@U?$_Simple_types@UActiveSound@SoundEngine@Utils@ofxRulr@@@std@@@2@XZ
	?_Get_data@?$_Vector_alloc@U?$_Vec_base_types@V?$weak_ptr@VofBaseSoundOutput@@@std@@V?$allocator@V?$weak_ptr@VofBaseSoundOutput@@@std@@@2@@std@@@std@@QEAAAEAV?$_Vector_val@U?$_Simple_types@V?$weak_ptr@VofBaseSoundOutput@@@std@@@std@@@2@XZ
	?_Get_data@?$_Vector_alloc@U?$_Vec_base_types@V?$weak_ptr@VofBaseSoundOutput@@@std@@V?$allocator@V?$weak_ptr@VofBaseSoundOutput@@@std@@@2@@std@@@std@@QEBAAEBV?$_Vector_val@U?$_Simple_types@V?$weak_ptr@VofBaseSoundOutput@@@std@@@std@@@2@XZ
	?_Get_data@?$_Vector_alloc@U?$_Vec_base_types@VofSoundDevice@@V?$allocator@VofSoundDevice@@@std@@@std@@@std@@QEAAAEAV?$_Vector_val@U?$_Simple_types@VofSoundDevice@@@std@@@2@XZ
	?_Get_deleter@_Ref_count_base@std@@UEBAPEAXAEBVtype_info@@@Z
	?_Get_first@?$_Compressed_pair@U?$_Wrap_alloc@V?$allocator@I@std@@@std@@V?$_Vector_val@U?$_Simple_types@I@std@@@2@$00@std@@QEAAAEAU?$_Wrap_alloc@V?$allocator@I@std@@@2@XZ
	?_Get_first@?$_Compressed_pair@U?$_Wrap_alloc@V?$allocator@UActiveSound@SoundEngine@Utils@ofxRulr@@@std@@@std@@V?$_Vector_val@U?$_Simple_types@UActiveSound@SoundEngine@Utils@ofxRulr@@@std@@@2@$00@std@@QEAAAEAU?$_Wrap_alloc@V?$allocator@UActiveSound@SoundEngine@Utils@ofxRulr@@@std@@@2@XZ
	?_Get_first@?$_Compressed_pair@U?$_Wrap_alloc@V?$allocator@UActiveSound@SoundEngine@Utils@ofxRulr@@@std@@@std@@V?$_Vector_val@U?$_Simple_types@UActiveSound@SoundEngine@Utils@ofxRulr@@@std@@@2@$00@std@@QEBAAEBU?$_Wrap_alloc@V?$allocator@UActiveSound@SoundEngine@Utils@ofxRulr@@@std@@@2@XZ
	?_Get_first@?$_Compressed_pair@U?$_Wrap_alloc@V?$allocator@V?$weak_ptr@VofBaseSoundOutput@@@std@@@std@@@std@@V?$_Vector_val@U?$_Simple_types@V?$weak_ptr@VofBaseSoundOutput@@@std@@@std@@@2@$00@std@@QEAAAEAU?$_Wrap_alloc@V?$allocator@V?$weak_ptr@VofBaseSoundOutput@@@std@@@std@@@2@XZ
	?_Get_first@?$_Compressed_pair@U?$_Wrap_alloc@V?$allocator@V?$weak_ptr@VofBaseSoundOutput@@@std@@@std@@@std@@V?$_Vector_val@U?$_Simple_types@V?$weak_ptr@VofBaseSoundOutput@@@std@@@std@@@2@$00@std@@QEBAAEBU?$_Wrap_alloc@V?$allocator@V?$weak_ptr@VofBaseSoundOutput@@@std@@@std@@@2@XZ
	?_Get_first@?$_Compressed_pair@U?$_Wrap_alloc@V?$allocator@VofSoundDevice@@@std@@@std@@V?$_Vector_val@U?$_Simple_types@VofSoundDevice@@@std@@@2@$00@std@@QEAAAEAU?$_Wrap_alloc@V?$allocator@VofSoundDevice@@@std@@@2@XZ
	?_Get_second@?$_Compressed_pair@U?$_Wrap_alloc@V?$allocator@I@std@@@std@@V?$_Vector_val@U?$_Simple_types@I@std@@@2@$00@std@@QEAAAEAV?$_Vector_val@U?$_Simple_types@I@std@@@2@XZ
	?_Get_second@?$_Compressed_pair@U?$_Wrap_alloc@V?$allocator@M@std@@@std@@V?$_Vector_val@U?$_Simple_types@M@std@@@2@$00@std@@QEBAAEBV?$_Vector_val@U?$_Simple_types@M@std@@@2@XZ
	?_Get_second@?$_Compressed_pair@U?$_Wrap_alloc@V?$allocator@UActiveSound@SoundEngine@Utils@ofxRulr@@@std@@@std@@V?$_Vector_val@U?$_Simple_types@UActiveSound@SoundEngine@Utils@ofxRulr@@@std@@@2@$00@std@@QEAAAEAV?$_Vector_val@U?$_Simple_types@UActiveSound@SoundEngine@Utils@ofxRulr@@@std@@@2@XZ
	?_Get_second@?$_Compressed_pair@U?$_Wrap_alloc@V?$allocator@UActiveSound@SoundEngine@Utils@ofxRulr@@@std@@@std@@V?$_Vector_val@U?$_Simple_types@UActiveSound@SoundEngine@Utils@ofxRulr@@@std@@@2@$00@std@@QEBAAEBV?$_Vector_val@U?$_Simple_types@UActiveSound@SoundEngine@Utils@ofxRulr@@@std@@@2@XZ
	?_Get_second@?$_Compressed_pair@U?$_Wrap_alloc@V?$allocator@V?$weak_ptr@VofBaseSoundOutput@@@std@@@std@@@std@@V?$_Vector_val@U?$_Simple_types@V?$weak_ptr@VofBaseSoundOutput@@@std@@@std@@@2@$00@std@@QEAAAEAV?$_Vector_val@U?$_Simple_types@V?$weak_ptr@VofBaseSoundOutput@@@std@@@std@@@2@XZ
	?_Get_second@?$_Compressed_pair@U?$_Wrap_alloc@V?$allocator@V?$weak_ptr@VofBaseSoundOutput@@@std@@@std@@@std@@V?$_Vector_val@U?$_Simple_types@V?$weak_ptr@VofBaseSoundOutput@@@std@@@std@@@2@$00@std@@QEBAAEBV?$_Vector_val@U?$_Simple_types@V?$weak_ptr@VofBaseSoundOutput@@@std@@@std@@@2@XZ
	?_Get_second@?$_Compressed_pair@U?$_Wrap_alloc@V?$allocator@VofSoundDevice@@@std@@@std@@V?$_Vector_val@U?$_Simple_types@VofSoundDevice@@@std@@@2@$00@std@@QEAAAEAV?$_Vector_val@U?$_Simple_types@VofSoundDevice@@@std@@@2@XZ
	?_Getal@?$_Vector_alloc@U?$_Vec_base_types@IV?$allocator@I@std@@@std@@@std@@QEAAAEAU?$_Wrap_alloc@V?$allocator@I@std@@@2@XZ
	?_Getal@?$_Vector_alloc@U?$_Vec_base_types@UActiveSound@SoundEngine@Utils@ofxRulr@@V?$allocator@UActiveSound@SoundEngine@Utils@ofxRulr@@@std@@@std@@@std@@QEAAAEAU?$_Wrap_alloc@V?$allocator@UActiveSound@SoundEngine@Utils@ofxRulr@@@std@@@2@XZ
	?_Getal@?$_Vector_alloc@U?$_Vec_base_types@UActiveSound@SoundEngine@Utils@ofxRulr@@V?$allocator@UActiveSound@SoundEngine@Utils@ofxRulr@@@std@@@std@@@std@@QEBAAEBU?$_Wrap_alloc@V?$allocator@UActiveSound@SoundEngine@Utils@ofxRulr@@@std@@@2@XZ
	?_Getal@?$_Vector_alloc@U?$_Vec_base_types@V?$weak_ptr@VofBaseSoundOutput@@@std@@V?$allocator@V?$weak_ptr@VofBaseSoundOutput@@@std@@@2@@std@@@std@@QEAAAEAU?$_Wrap_alloc@V?$allocator@V?$weak_ptr@VofBaseSoundOutput@@@std@@@std@@@2@XZ
	?_Getal@?$_Vector_alloc@U?$_Vec_base_types@V?$weak_ptr@VofBaseSoundOutput@@@std@@V?$allocator@V?$weak_ptr@VofBaseSoundOutput@@@std@@@2@@std@@@std@@QEBAAEBU?$_Wrap_alloc@V?$allocator@V?$weak_ptr@VofBaseSoundOutput@@@std@@@std@@@2@XZ
	?_Getal@?$_Vector_alloc@U?$_Vec_base_types@VofSoundDevice@@V?$allocator@VofSoundDevice@@@std@@@std@@@std@@QEAAAEAU?$_Wrap_alloc@V?$allocator@VofSoundDevice@@@std@@@2@XZ
	?_Getcont@_Iterator_base12@std@@QEBAPEBU_Container_base12@2@XZ
	?_Getimpl@?$_Func_class@XAEAVofSoundBuffer@@@std@@AEBAPEAV?$_Func_base@XAEAVofSoundBuffer@@@2@XZ
	?_Getpfirst@?$_Vector_alloc@U?$_Vec_base_types@UActiveSound@SoundEngine@Utils@ofxRulr@@V?$allocator@UActiveSound@SoundEngine@Utils@ofxRulr@@@std@@@std@@@std@@QEBAPEAPEAU_Iterator_base12@2@XZ
	?_Getpfirst@?$_Vector_alloc@U?$_Vec_base_types@V?$weak_ptr@VofBaseSoundOutput@@@std@@V?$allocator@V?$weak_ptr@VofBaseSoundOutput@@@std@@@2@@std@@@std@@QEBAPEAPEAU_Iterator_base12@2@XZ
	?_Getpfirst@_Container_base12@std@@QEBAPEAPEAU_Iterator_base12@2@XZ
	?_Getpnext@_Iterator_base12@std@@QEAAPEAPEAU12@XZ
	?_Getptr@?$_Ref_count_obj@VRegister@ofxAssets@@@std@@QEBAPEAVRegister@ofxAssets@@XZ
	?_Getspace@?$_Func_class@XAEAVofSoundBuffer@@@std@@AEBAPEBXXZ
	?_Grow_to@?$vector@UActiveSound@SoundEngine@Utils@ofxRulr@@V?$allocator@UActiveSound@SoundEngine@Utils@ofxRulr@@@std@@@std@@IEBA_K_K@Z
	?_Grow_to@?$vector@V?$weak_ptr@VofBaseSoundOutput@@@std@@V?$allocator@V?$weak_ptr@VofBaseSoundOutput@@@std@@@2@@std@@IEBA_K_K@Z
	?_Incref@_Ref_count_base@std@@QEAAXXZ
	?_Incref_nz@_Ref_count_base@std@@QEAA_NXZ
	?_Incwref@_Ref_count_base@std@@QEAAXXZ
	?_Init_atomic_counter@std@@YAXAEAKK@Z
	?_Inside@?$vector@UActiveSound@SoundEngine@Utils@ofxRulr@@V?$allocator@UActiveSound@SoundEngine@Utils@ofxRulr@@@std@@@std@@IEBA_NPEBUActiveSound@SoundEngine@Utils@ofxRulr@@@Z
	?_Inside@?$vector@V?$weak_ptr@VofBaseSoundOutput@@@std@@V?$allocator@V?$weak_ptr@VofBaseSoundOutput@@@std@@@2@@std@@IEBA_NPEBV?$weak_ptr@VofBaseSoundOutput@@@2@@Z
	?_Local@?$_Func_class@XAEAVofSoundBuffer@@@std@@AEBA_NXZ
	?_Make_iter@?$vector@UActiveSound@SoundEngine@Utils@ofxRulr@@V?$allocator@UActiveSound@SoundEngine@Utils@ofxRulr@@@std@@@std@@QEBA?AV?$_Vector_iterator@V?$_Vector_val@U?$_Simple_types@UActiveSound@SoundEngine@Utils@ofxRulr@@@std@@@std@@@2@V?$_Vector_const_iterator@V?$_Vector_val@U?$_Simple_types@UActiveSound@SoundEngine@Utils@ofxRulr@@@std@@@std@@@2@@Z
	?_Make_iter@?$vector@V?$weak_ptr@VofBaseSoundOutput@@@std@@V?$allocator@V?$weak_ptr@VofBaseSoundOutput@@@std@@@2@@std@@QEBA?AV?$_Vector_iterator@V?$_Vector_val@U?$_Simple_types@V?$weak_ptr@VofBaseSoundOutput@@@std@@@std@@@std@@@2@V?$_Vector_const_iterator@V?$_Vector_val@U?$_Simple_types@V?$weak_ptr@VofBaseSoundOutput@@@std@@@std@@@std@@@2@@Z
	?_Mtx_lockX@std@@YAHPEAU_Mtx_internal_imp_t@@@Z
	?_Mtx_unlockX@std@@YAHPEAU_Mtx_internal_imp_t@@@Z
	?_Myend@?$_Vector_alloc@U?$_Vec_base_types@IV?$allocator@I@std@@@std@@@std@@QEAAAEAPEAIXZ
	?_Myend@?$_Vector_alloc@U?$_Vec_base_types@UActiveSound@SoundEngine@Utils@ofxRulr@@V?$allocator@UActiveSound@SoundEngine@Utils@ofxRulr@@@std@@@std@@@std@@QEAAAEAPEAUActiveSound@SoundEngine@Utils@ofxRulr@@XZ
	?_Myend@?$_Vector_alloc@U?$_Vec_base_types@UActiveSound@SoundEngine@Utils@ofxRulr@@V?$allocator@UActiveSound@SoundEngine@Utils@ofxRulr@@@std@@@std@@@std@@QEBAAEBQEAUActiveSound@SoundEngine@Utils@ofxRulr@@XZ
	?_Myend@?$_Vector_alloc@U?$_Vec_base_types@V?$weak_ptr@VofBaseSoundOutput@@@std@@V?$allocator@V?$weak_ptr@VofBaseSoundOutput@@@std@@@2@@std@@@std@@QEAAAEAPEAV?$weak_ptr@VofBaseSoundOutput@@@2@XZ
	?_Myend@?$_Vector_alloc@U?$_Vec_base_types@V?$weak_ptr@VofBaseSoundOutput@@@std@@V?$allocator@V?$weak_ptr@VofBaseSoundOutput@@@std@@@2@@std@@@std@@QEBAAEBQEAV?$weak_ptr@VofBaseSoundOutput@@@2@XZ
	?_Myend@?$_Vector_alloc@U?$_Vec_base_types@VofSoundDevice@@V?$allocator@VofSoundDevice@@@std@@@std@@@std@@QEAAAEAPEAVofSoundDevice@@XZ
	?_Myfirst@?$_Vector_alloc@U?$_Vec_base_types@IV?$allocator@I@std@@@std@@@std@@QEAAAEAPEAIXZ
	?_Myfirst@?$_Vector_alloc@U?$_Vec_base_types@MV?$allocator@M@std@@@std@@@std@@QEBAAEBQEAMXZ
	?_Myfirst@?$_Vector_alloc@U?$_Vec_base_types@UActiveSound@SoundEngine@Utils@ofxRulr@@V?$allocator@UActiveSound@SoundEngine@Utils@ofxRulr@@@std@@@std@@@std@@QEAAAEAPEAUActiveSound@SoundEngine@Utils@ofxRulr@@XZ
	?_Myfirst@?$_Vector_alloc@U?$_Vec_base_types@UActiveSound@SoundEngine@Utils@ofxRulr@@V?$allocator@UActiveSound@SoundEngine@Utils@ofxRulr@@@std@@@std@@@std@@QEBAAEBQEAUActiveSound@SoundEngine@Utils@ofxRulr@@XZ
	?_Myfirst@?$_Vector_alloc@U?$_Vec_base_types@V?$weak_ptr@VofBaseSoundOutput@@@std@@V?$allocator@V?$weak_ptr@VofBaseSoundOutput@@@std@@@2@@std@@@std@@QEAAAEAPEAV?$weak_ptr@VofBaseSoundOutput@@@2@XZ
	?_Myfirst@?$_Vector_alloc@U?$_Vec_base_types@V?$weak_ptr@VofBaseSoundOutput@@@std@@V?$allocator@V?$weak_ptr@VofBaseSoundOutput@@@std@@@2@@std@@@std@@QEBAAEBQEAV?$weak_ptr@VofBaseSoundOutput@@@2@XZ
	?_Myfirst@?$_Vector_alloc@U?$_Vec_base_types@VofSoundDevice@@V?$allocator@VofSoundDevice@@@std@@@std@@@std@@QEAAAEAPEAVofSoundDevice@@XZ
	?_Mylast@?$_Vector_alloc@U?$_Vec_base_types@IV?$allocator@I@std@@@std@@@std@@QEAAAEAPEAIXZ
	?_Mylast@?$_Vector_alloc@U?$_Vec_base_types@MV?$allocator@M@std@@@std@@@std@@QEBAAEBQEAMXZ
	?_Mylast@?$_Vector_alloc@U?$_Vec_base_types@UActiveSound@SoundEngine@Utils@ofxRulr@@V?$allocator@UActiveSound@SoundEngine@Utils@ofxRulr@@@std@@@std@@@std@@QEAAAEAPEAUActiveSound@SoundEngine@Utils@ofxRulr@@XZ
	?_Mylast@?$_Vector_alloc@U?$_Vec_base_types@UActiveSound@SoundEngine@Utils@ofxRulr@@V?$allocator@UActiveSound@SoundEngine@Utils@ofxRulr@@@std@@@std@@@std@@QEBAAEBQEAUActiveSound@SoundEngine@Utils@ofxRulr@@XZ
	?_Mylast@?$_Vector_alloc@U?$_Vec_base_types@V?$weak_ptr@VofBaseSoundOutput@@@std@@V?$allocator@V?$weak_ptr@VofBaseSoundOutput@@@std@@@2@@std@@@std@@QEAAAEAPEAV?$weak_ptr@VofBaseSoundOutput@@@2@XZ
	?_Mylast@?$_Vector_alloc@U?$_Vec_base_types@V?$weak_ptr@VofBaseSoundOutput@@@std@@V?$allocator@V?$weak_ptr@VofBaseSoundOutput@@@std@@@2@@std@@@std@@QEBAAEBQEAV?$weak_ptr@VofBaseSoundOutput@@@2@XZ
	?_Mylast@?$_Vector_alloc@U?$_Vec_base_types@VofSoundDevice@@V?$allocator@VofSoundDevice@@@std@@@std@@@std@@QEAAAEAPEAVofSoundDevice@@XZ
	?_Mymtx@_Mutex_base@std@@AEAAPEAU_Mtx_internal_imp_t@@XZ
	?_Myproxy@?$_Vector_alloc@U?$_Vec_base_types@IV?$allocator@I@std@@@std@@@std@@QEAAAEAPEAU_Container_proxy@2@XZ
	?_Myproxy@?$_Vector_alloc@U?$_Vec_base_types@UActiveSound@SoundEngine@Utils@ofxRulr@@V?$allocator@UActiveSound@SoundEngine@Utils@ofxRulr@@@std@@@std@@@std@@QEAAAEAPEAU_Container_proxy@2@XZ
	?_Myproxy@?$_Vector_alloc@U?$_Vec_base_types@V?$weak_ptr@VofBaseSoundOutput@@@std@@V?$allocator@V?$weak_ptr@VofBaseSoundOutput@@@std@@@2@@std@@@std@@QEAAAEAPEAU_Container_proxy@2@XZ
	?_Myproxy@?$_Vector_alloc@U?$_Vec_base_types@VofSoundDevice@@V?$allocator@VofSoundDevice@@@std@@@std@@@std@@QEAAAEAPEAU_Container_proxy@2@XZ
	?_Orphan_all@?$_Vector_alloc@U?$_Vec_base_types@IV?$allocator@I@std@@@std@@@std@@QEAAXXZ
	?_Orphan_all@?$_Vector_alloc@U?$_Vec_base_types@UActiveSound@SoundEngine@Utils@ofxRulr@@V?$allocator@UActiveSound@SoundEngine@Utils@ofxRulr@@@std@@@std@@@std@@QEAAXXZ
	?_Orphan_all@?$_Vector_alloc@U?$_Vec_base_types@V?$weak_ptr@VofBaseSoundOutput@@@std@@V?$allocator@V?$weak_ptr@VofBaseSoundOutput@@@std@@@2@@std@@@std@@QEAAXXZ
	?_Orphan_all@?$_Vector_alloc@U?$_Vec_base_types@VofSoundDevice@@V?$allocator@VofSoundDevice@@@std@@@std@@@std@@QEAAXXZ
	?_Orphan_me@_Iterator_base12@std@@QEAAXXZ
	?_Orphan_range@?$vector@UActiveSound@SoundEngine@Utils@ofxRulr@@V?$allocator@UActiveSound@SoundEngine@Utils@ofxRulr@@@std@@@std@@IEBAXPEAUActiveSound@SoundEngine@Utils@ofxRulr@@0@Z
	?_Orphan_range@?$vector@V?$weak_ptr@VofBaseSoundOutput@@@std@@V?$allocator@V?$weak_ptr@VofBaseSoundOutput@@@std@@@2@@std@@IEBAXPEAV?$weak_ptr@VofBaseSoundOutput@@@2@0@Z
	?_Reallocate@?$vector@UActiveSound@SoundEngine@Utils@ofxRulr@@V?$allocator@UActiveSound@SoundEngine@Utils@ofxRulr@@@std@@@std@@IEAAX_K@Z
	?_Reallocate@?$vector@V?$weak_ptr@VofBaseSoundOutput@@@std@@V?$allocator@V?$weak_ptr@VofBaseSoundOutput@@@std@@@2@@std@@IEAAX_K@Z
	?_Reserve@?$vector@UActiveSound@SoundEngine@Utils@ofxRulr@@V?$allocator@UActiveSound@SoundEngine@Utils@ofxRulr@@@std@@@std@@IEAAX_K@Z
	?_Reserve@?$vector@V?$weak_ptr@VofBaseSoundOutput@@@std@@V?$allocator@V?$weak_ptr@VofBaseSoundOutput@@@std@@@2@@std@@IEAAX_K@Z
	?_Reset0@?$_Ptr_base@VRegister@ofxAssets@@@std@@QEAAXPEAVRegister@ofxAssets@@PEAV_Ref_count_base@2@@Z
	?_Reset0@?$_Ptr_base@VSound@ofxAssets@@@std@@QEAAXPEAVSound@ofxAssets@@PEAV_Ref_count_base@2@@Z
	?_Reset0@?$_Ptr_base@VofBaseSoundOutput@@@std@@QEAAXPEAVofBaseSoundOutput@@PEAV_Ref_count_base@2@@Z
	?_Reset@?$_Ptr_base@VRegister@ofxAssets@@@std@@QEAAXPEAVRegister@ofxAssets@@PEAV_Ref_count_base@2@@Z
	?_Reset@?$_Ptr_base@VSound@ofxAssets@@@std@@QEAAXPEAVSound@ofxAssets@@PEAV_Ref_count_base@2@@Z
	?_Reset@?$_Ptr_base@VofBaseSoundOutput@@@std@@QEAAXPEAVofBaseSoundOutput@@PEAV_Ref_count_base@2@_N@Z
	?_Set@?$_Func_class@XAEAVofSoundBuffer@@@std@@AEAAXPEAV?$_Func_base@XAEAVofSoundBuffer@@@2@@Z
	?_Swap@?$_Ptr_base@VRegister@ofxAssets@@@std@@QEAAXAEAV12@@Z
	?_Swap@?$_Ptr_base@VSound@ofxAssets@@@std@@QEAAXAEAV12@@Z
	?_Swap@?$_Ptr_base@VofBaseSoundOutput@@@std@@QEAAXAEAV12@@Z
	?_Tidy@?$_Func_class@XAEAVofSoundBuffer@@@std@@IEAAXXZ
	?_Tidy@?$vector@IV?$allocator@I@std@@@std@@IEAAXXZ
	?_Tidy@?$vector@UActiveSound@SoundEngine@Utils@ofxRulr@@V?$allocator@UActiveSound@SoundEngine@Utils@ofxRulr@@@std@@@std@@IEAAXXZ
	?_Tidy@?$vector@V?$weak_ptr@VofBaseSoundOutput@@@std@@V?$allocator@V?$weak_ptr@VofBaseSoundOutput@@@std@@@2@@std@@IEAAXXZ
	?_Tidy@?$vector@VofSoundDevice@@V?$allocator@VofSoundDevice@@@std@@@std@@IEAAXXZ
	?_Unused_capacity@?$vector@UActiveSound@SoundEngine@Utils@ofxRulr@@V?$allocator@UActiveSound@SoundEngine@Utils@ofxRulr@@@std@@@std@@QEBA_KXZ
	?_Unused_capacity@?$vector@V?$weak_ptr@VofBaseSoundOutput@@@std@@V?$allocator@V?$weak_ptr@VofBaseSoundOutput@@@std@@@2@@std@@QEBA_KXZ
	?_Xlen@?$vector@UActiveSound@SoundEngine@Utils@ofxRulr@@V?$allocator@UActiveSound@SoundEngine@Utils@ofxRulr@@@std@@@std@@IEBAXXZ
	?_Xlen@?$vector@V?$weak_ptr@VofBaseSoundOutput@@@std@@V?$allocator@V?$weak_ptr@VofBaseSoundOutput@@@std@@@2@@std@@IEBAXXZ
	?__autoclassinit2@?$_Vector_iterator@V?$_Vector_val@U?$_Simple_types@UActiveSound@SoundEngine@Utils@ofxRulr@@@std@@@std@@@std@@QEAAX_K@Z
	?__autoclassinit2@?$_Vector_iterator@V?$_Vector_val@U?$_Simple_types@V?$weak_ptr@VofBaseSoundOutput@@@std@@@std@@@std@@@std@@QEAAX_K@Z
	?__autoclassinit2@?$_Vector_iterator@V?$_Vector_val@U?$_Simple_types@VofSoundDevice@@@std@@@std@@@std@@QEAAX_K@Z
	?__autoclassinit2@?$shared_ptr@VRegister@ofxAssets@@@std@@QEAAX_K@Z
	?__autoclassinit2@?$shared_ptr@VSound@ofxAssets@@@std@@QEAAX_K@Z
	?__autoclassinit2@?$shared_ptr@VofBaseSoundOutput@@@std@@QEAAX_K@Z
	?__autoclassinit2@?$vector@VofSoundDevice@@V?$allocator@VofSoundDevice@@@std@@@std@@QEAAX_K@Z
	?__autoclassinit2@SingletonStore@?$Singleton@VSoundEngine@Utils@ofxRulr@@@ofxSingleton@@QEAAX_K@Z
	?__autoclassinit2@ofSoundStreamSettings@@QEAAX_K@Z
	?addSource@SoundEngine@Utils@ofxRulr@@QEAAXV?$weak_ptr@VofBaseSoundOutput@@@std@@@Z
	?allocate@?$_Wrap_alloc@V?$allocator@UActiveSound@SoundEngine@Utils@ofxRulr@@@std@@@std@@QEAAPEAUActiveSound@SoundEngine@Utils@ofxRulr@@_K@Z
	?allocate@?$_Wrap_alloc@V?$allocator@V?$weak_ptr@VofBaseSoundOutput@@@std@@@std@@@std@@QEAAPEAV?$weak_ptr@VofBaseSoundOutput@@@2@_K@Z
	?allocate@?$allocator@UActiveSound@SoundEngine@Utils@ofxRulr@@@std@@QEAAPEAUActiveSound@SoundEngine@Utils@ofxRulr@@_K@Z
	?allocate@?$allocator@V?$weak_ptr@VofBaseSoundOutput@@@std@@@std@@QEAAPEAV?$weak_ptr@VofBaseSoundOutput@@@2@_K@Z
	?audioOut@SoundEngine@Utils@ofxRulr@@UEAAXAEAVofSoundBuffer@@@Z
	?audioRequested@ofBaseSoundOutput@@UEAAXPEAMHH@Z
	?begin@?$vector@UActiveSound@SoundEngine@Utils@ofxRulr@@V?$allocator@UActiveSound@SoundEngine@Utils@ofxRulr@@@std@@@std@@QEAA?AV?$_Vector_iterator@V?$_Vector_val@U?$_Simple_types@UActiveSound@SoundEngine@Utils@ofxRulr@@@std@@@std@@@2@XZ
	?begin@?$vector@V?$weak_ptr@VofBaseSoundOutput@@@std@@V?$allocator@V?$weak_ptr@VofBaseSoundOutput@@@std@@@2@@std@@QEAA?AV?$_Vector_iterator@V?$_Vector_val@U?$_Simple_types@V?$weak_ptr@VofBaseSoundOutput@@@std@@@std@@@std@@@2@XZ
	?begin@?$vector@VofSoundDevice@@V?$allocator@VofSoundDevice@@@std@@@std@@QEAA?AV?$_Vector_iterator@V?$_Vector_val@U?$_Simple_types@VofSoundDevice@@@std@@@std@@@2@XZ
	?c_str@?$basic_string@DU?$char_traits@D@std@@V?$allocator@D@2@@std@@QEBAPEBDXZ
	?capacity@?$vector@UActiveSound@SoundEngine@Utils@ofxRulr@@V?$allocator@UActiveSound@SoundEngine@Utils@ofxRulr@@@std@@@std@@QEBA_KXZ
	?capacity@?$vector@V?$weak_ptr@VofBaseSoundOutput@@@std@@V?$allocator@V?$weak_ptr@VofBaseSoundOutput@@@std@@@2@@std@@QEBA_KXZ
	?clear@?$vector@UActiveSound@SoundEngine@Utils@ofxRulr@@V?$allocator@UActiveSound@SoundEngine@Utils@ofxRulr@@@std@@@std@@QEAAXXZ
	?deallocate@?$_Wrap_alloc@V?$allocator@I@std@@@std@@QEAAXPEAI_K@Z
	?deallocate@?$_Wrap_alloc@V?$allocator@UActiveSound@SoundEngine@Utils@ofxRulr@@@std@@@std@@QEAAXPEAUActiveSound@SoundEngine@Utils@ofxRulr@@_K@Z
	?deallocate@?$_Wrap_alloc@V?$allocator@V?$weak_ptr@VofBaseSoundOutput@@@std@@@std@@@std@@QEAAXPEAV?$weak_ptr@VofBaseSoundOutput@@@2@_K@Z
	?deallocate@?$_Wrap_alloc@V?$allocator@VofSoundDevice@@@std@@@std@@QEAAXPEAVofSoundDevice@@_K@Z
	?deallocate@?$allocator@I@std@@QEAAXPEAI_K@Z
	?deallocate@?$allocator@UActiveSound@SoundEngine@Utils@ofxRulr@@@std@@QEAAXPEAUActiveSound@SoundEngine@Utils@ofxRulr@@_K@Z
	?deallocate@?$allocator@V?$weak_ptr@VofBaseSoundOutput@@@std@@@std@@QEAAXPEAV?$weak_ptr@VofBaseSoundOutput@@@2@_K@Z
	?deallocate@?$allocator@VofSoundDevice@@@std@@QEAAXPEAVofSoundDevice@@_K@Z
	?end@?$vector@UActiveSound@SoundEngine@Utils@ofxRulr@@V?$allocator@UActiveSound@SoundEngine@Utils@ofxRulr@@@std@@@std@@QEAA?AV?$_Vector_iterator@V?$_Vector_val@U?$_Simple_types@UActiveSound@SoundEngine@Utils@ofxRulr@@@std@@@std@@@2@XZ
	?end@?$vector@V?$weak_ptr@VofBaseSoundOutput@@@std@@V?$allocator@V?$weak_ptr@VofBaseSoundOutput@@@std@@@2@@std@@QEAA?AV?$_Vector_iterator@V?$_Vector_val@U?$_Simple_types@V?$weak_ptr@VofBaseSoundOutput@@@std@@@std@@@std@@@2@XZ
	?end@?$vector@VofSoundDevice@@V?$allocator@VofSoundDevice@@@std@@@std@@QEAA?AV?$_Vector_iterator@V?$_Vector_val@U?$_Simple_types@VofSoundDevice@@@std@@@std@@@2@XZ
	?eof@?$char_traits@D@std@@SAHXZ
	?eq_int_type@?$char_traits@D@std@@SA_NAEBH0@Z
	?erase@?$vector@UActiveSound@SoundEngine@Utils@ofxRulr@@V?$allocator@UActiveSound@SoundEngine@Utils@ofxRulr@@@std@@@std@@QEAA?AV?$_Vector_iterator@V?$_Vector_val@U?$_Simple_types@UActiveSound@SoundEngine@Utils@ofxRulr@@@std@@@std@@@2@V?$_Vector_const_iterator@V?$_Vector_val@U?$_Simple_types@UActiveSound@SoundEngine@Utils@ofxRulr@@@std@@@std@@@2@@Z
	?erase@?$vector@V?$weak_ptr@VofBaseSoundOutput@@@std@@V?$allocator@V?$weak_ptr@VofBaseSoundOutput@@@std@@@2@@std@@QEAA?AV?$_Vector_iterator@V?$_Vector_val@U?$_Simple_types@V?$weak_ptr@VofBaseSoundOutput@@@std@@@std@@@std@@@2@V?$_Vector_const_iterator@V?$_Vector_val@U?$_Simple_types@V?$weak_ptr@VofBaseSoundOutput@@@std@@@std@@@std@@@2@@Z
	?get@?$shared_ptr@VSound@ofxAssets@@@std@@QEBAPEAVSound@ofxAssets@@XZ
	?getInstance@SingletonStore@?$Singleton@VRegister@ofxAssets@@@ofxSingleton@@QEAA?AV?$shared_ptr@VRegister@ofxAssets@@@std@@XZ
	?getNumChannels@ofSoundBuffer@@QEBA_KXZ
	?getNumFrames@ofSoundBuffer@@QEBA_KXZ
	?getRemainingNumFrames@SoundEngine@Utils@ofxRulr@@QEAA_KV?$shared_ptr@VSound@ofxAssets@@@std@@@Z
	?getSingletonStore@?$Singleton@VSoundEngine@Utils@ofxRulr@@@ofxSingleton@@SAAEAVSingletonStore@12@XZ
	?getTypeInfo@SingletonStore@?$Singleton@VSoundEngine@Utils@ofxRulr@@@ofxSingleton@@UEBAPEBVtype_info@@XZ
	?isSoundActive@SoundEngine@Utils@ofxRulr@@QEAA_NV?$shared_ptr@VSound@ofxAssets@@@std@@@Z
	?lock@?$weak_ptr@VofBaseSoundOutput@@@std@@QEBA?AV?$shared_ptr@VofBaseSoundOutput@@@2@XZ
	?lock@_Mutex_base@std@@QEAAXXZ
	?max_size@?$_Wrap_alloc@V?$allocator@UActiveSound@SoundEngine@Utils@ofxRulr@@@std@@@std@@QEBA_KU_Nil@2@@Z
	?max_size@?$_Wrap_alloc@V?$allocator@V?$weak_ptr@VofBaseSoundOutput@@@std@@@std@@@std@@QEBA_KU_Nil@2@@Z
	?max_size@?$allocator@UActiveSound@SoundEngine@Utils@ofxRulr@@@std@@QEBA_KXZ
	?max_size@?$allocator@V?$weak_ptr@VofBaseSoundOutput@@@std@@@std@@QEBA_KXZ
	?max_size@?$allocator_traits@V?$allocator@UActiveSound@SoundEngine@Utils@ofxRulr@@@std@@@std@@SA_KAEBV?$allocator@UActiveSound@SoundEngine@Utils@ofxRulr@@@2@@Z
	?max_size@?$allocator_traits@V?$allocator@V?$weak_ptr@VofBaseSoundOutput@@@std@@@std@@@std@@SA_KAEBV?$allocator@V?$weak_ptr@VofBaseSoundOutput@@@std@@@2@@Z
	?max_size@?$vector@UActiveSound@SoundEngine@Utils@ofxRulr@@V?$allocator@UActiveSound@SoundEngine@Utils@ofxRulr@@@std@@@std@@QEBA_KXZ
	?max_size@?$vector@V?$weak_ptr@VofBaseSoundOutput@@@std@@V?$allocator@V?$weak_ptr@VofBaseSoundOutput@@@std@@@2@@std@@QEBA_KXZ
	?npos@?$basic_string@DU?$char_traits@D@std@@V?$allocator@D@2@@std@@2_KB
	?play@SoundEngine@Utils@ofxRulr@@QEAAXAEBV?$basic_string@DU?$char_traits@D@std@@V?$allocator@D@2@@std@@@Z
	?play@SoundEngine@Utils@ofxRulr@@QEAAXUActiveSound@123@@Z
	?play@SoundEngine@Utils@ofxRulr@@QEAAXV?$shared_ptr@VSound@ofxAssets@@@std@@@Z
	?pointer_to@?$pointer_traits@PEAUActiveSound@SoundEngine@Utils@ofxRulr@@@std@@SAPEAUActiveSound@SoundEngine@Utils@ofxRulr@@AEAU3456@@Z
	?pointer_to@?$pointer_traits@PEAV?$weak_ptr@VofBaseSoundOutput@@@std@@@std@@SAPEAV?$weak_ptr@VofBaseSoundOutput@@@2@AEAV32@@Z
	?push_back@?$vector@UActiveSound@SoundEngine@Utils@ofxRulr@@V?$allocator@UActiveSound@SoundEngine@Utils@ofxRulr@@@std@@@std@@QEAAXAEBUActiveSound@SoundEngine@Utils@ofxRulr@@@Z
	?push_back@?$vector@V?$weak_ptr@VofBaseSoundOutput@@@std@@V?$allocator@V?$weak_ptr@VofBaseSoundOutput@@@std@@@2@@std@@QEAAXAEBV?$weak_ptr@VofBaseSoundOutput@@@2@@Z
	?select_on_container_copy_construction@?$_Wrap_alloc@V?$allocator@D@std@@@std@@QEBA?AU12@U_Nil@2@@Z
	?select_on_container_copy_construction@?$allocator_traits@V?$allocator@D@std@@@std@@SA?AV?$allocator@D@2@AEBV32@@Z
	?size@?$vector@MV?$allocator@M@std@@@std@@QEBA_KXZ
	?size@?$vector@UActiveSound@SoundEngine@Utils@ofxRulr@@V?$allocator@UActiveSound@SoundEngine@Utils@ofxRulr@@@std@@@std@@QEBA_KXZ
	?size@?$vector@V?$weak_ptr@VofBaseSoundOutput@@@std@@V?$allocator@V?$weak_ptr@VofBaseSoundOutput@@@std@@@2@@std@@QEBA_KXZ
	?size@ofSoundBuffer@@QEBA_KXZ
	?stopAll@SoundEngine@Utils@ofxRulr@@QEAAXAEBV?$basic_string@DU?$char_traits@D@std@@V?$allocator@D@2@@std@@@Z
	?stopAll@SoundEngine@Utils@ofxRulr@@QEAAXV?$shared_ptr@VSound@ofxAssets@@@std@@@Z
	?swap@?$shared_ptr@VRegister@ofxAssets@@@std@@QEAAXAEAV12@@Z
	?swap@?$shared_ptr@VSound@ofxAssets@@@std@@QEAAXAEAV12@@Z
	?swap@?$weak_ptr@VofBaseSoundOutput@@@std@@QEAAXAEAV12@@Z
	?unlock@_Mutex_base@std@@QEAAXXZ
	?what@bad_weak_ptr@std@@UEBAPEBDXZ
	?what@exception@std@@UEBAPEBDXZ
	_CT??_R0?AVbad_weak_ptr@std@@@8??0bad_weak_ptr@std@@QEAA@AEBV01@@Z24
	_CT??_R0?AVexception@std@@@8??0exception@std@@QEAA@AEBV01@@Z24
	_CTA2?AVbad_weak_ptr@std@@
	_TI2?AVbad_weak_ptr@std@@
	??$?0AEBV?$allocator@_W@std@@$$V@?$_Compressed_pair@U?$_Wrap_alloc@V?$allocator@_W@std@@@std@@V?$_String_val@U?$_Simple_types@_W@std@@@2@$00@std@@QEAA@U_One_then_variadic_args_t@1@AEBV?$allocator@_W@1@@Z
	??$?0PEAVValue@Json@@@?$allocator@PEAPEAVValue@Json@@@std@@QEAA@AEBV?$allocator@PEAVValue@Json@@@1@@Z
	??$?0PEAVValue@Json@@@?$allocator@U_Container_proxy@std@@@std@@QEAA@AEBV?$allocator@PEAVValue@Json@@@1@@Z
	??$?0U?$_Wrap_alloc@V?$allocator@PEAVValue@Json@@@std@@@std@@@?$_Wrap_alloc@V?$allocator@PEAPEAVValue@Json@@@std@@@std@@QEAA@AEAU?$_Wrap_alloc@V?$allocator@PEAVValue@Json@@@std@@@1@@Z
	??$?0U?$_Wrap_alloc@V?$allocator@PEAVValue@Json@@@std@@@std@@@?$_Wrap_alloc@V?$allocator@U_Container_proxy@std@@@std@@@std@@QEAA@AEAU?$_Wrap_alloc@V?$allocator@PEAVValue@Json@@@std@@@1@@Z
	??$?0U?$_Wrap_alloc@V?$allocator@V?$basic_string@DU?$char_traits@D@std@@V?$allocator@D@2@@std@@@std@@@std@@@?$_Wrap_alloc@V?$allocator@U_Container_proxy@std@@@std@@@std@@QEAA@AEAU?$_Wrap_alloc@V?$allocator@V?$basic_string@DU?$char_traits@D@std@@V?$allocator@D@2@@std@@@std@@@1@@Z
	??$?0U?$_Wrap_alloc@V?$allocator@VErrorInfo@Reader@Json@@@std@@@std@@@?$_Wrap_alloc@V?$allocator@PEAVErrorInfo@Reader@Json@@@std@@@std@@QEAA@AEAU?$_Wrap_alloc@V?$allocator@VErrorInfo@Reader@Json@@@std@@@1@@Z
	??$?0U?$_Wrap_alloc@V?$allocator@VErrorInfo@Reader@Json@@@std@@@std@@@?$_Wrap_alloc@V?$allocator@U_Container_proxy@std@@@std@@@std@@QEAA@AEAU?$_Wrap_alloc@V?$allocator@VErrorInfo@Reader@Json@@@std@@@1@@Z
	??$?0U?$_Wrap_alloc@V?$allocator@_W@std@@@std@@@?$_Wrap_alloc@V?$allocator@U_Container_proxy@std@@@std@@@std@@QEAA@AEAU?$_Wrap_alloc@V?$allocator@_W@std@@@1@@Z
	??$?0V?$basic_string@DU?$char_traits@D@std@@V?$allocator@D@2@@std@@@?$allocator@U_Container_proxy@std@@@std@@QEAA@AEBV?$allocator@V?$basic_string@DU?$char_traits@D@std@@V?$allocator@D@2@@std@@@1@@Z
	??$?0V?$basic_string@DU?$char_traits@D@std@@V?$allocator@D@2@@std@@@path@filesystem@boost@@QEAA@AEBV?$basic_string@DU?$char_traits@D@std@@V?$allocator@D@2@@std@@PEAX@Z
	??$?0VErrorInfo@Reader@Json@@@?$allocator@PEAVErrorInfo@Reader@Json@@@std@@QEAA@AEBV?$allocator@VErrorInfo@Reader@Json@@@1@@Z
	??$?0VErrorInfo@Reader@Json@@@?$allocator@U_Container_proxy@std@@@std@@QEAA@AEBV?$allocator@VErrorInfo@Reader@Json@@@1@@Z
	??$?0_W@?$allocator@U_Container_proxy@std@@@std@@QEAA@AEBV?$allocator@_W@1@@Z
	??$?8DD@std@@YA_NAEBV?$allocator@D@0@0@Z
	??$?8DU?$char_traits@D@std@@V?$allocator@D@1@@std@@YA_NAEBV?$basic_string@DU?$char_traits@D@std@@V?$allocator@D@2@@0@PEBD@Z
	??$?8V?$allocator@D@std@@V01@@std@@YA_NAEBU?$_Wrap_alloc@V?$allocator@D@std@@@0@0@Z
	??$?9DU?$char_traits@D@std@@V?$allocator@D@1@@std@@YA_NAEBV?$basic_string@DU?$char_traits@D@std@@V?$allocator@D@2@@0@PEBD@Z
	??$?9V?$allocator@D@std@@V01@@std@@YA_NAEBU?$_Wrap_alloc@V?$allocator@D@std@@@0@0@Z
	??$?HDU?$char_traits@D@std@@V?$allocator@D@1@@std@@YA?AV?$basic_string@DU?$char_traits@D@std@@V?$allocator@D@2@@0@AEBV10@PEBD@Z
	??$?HDU?$char_traits@D@std@@V?$allocator@D@1@@std@@YA?AV?$basic_string@DU?$char_traits@D@std@@V?$allocator@D@2@@0@PEBD$$QEAV10@@Z
	??$_Addressof@V?$basic_string@DU?$char_traits@D@std@@V?$allocator@D@2@@std@@@std@@YAPEAV?$basic_string@DU?$char_traits@D@std@@V?$allocator@D@2@@0@AEAV10@U?$integral_constant@_N$0A@@0@@Z
	??$_Addressof@_W@std@@YAPEA_WAEA_WU?$integral_constant@_N$0A@@0@@Z
	??$_Debug_pointer@V?$_String_iterator@V?$_String_val@U?$_Simple_types@D@std@@@std@@@std@@@std@@YAXAEAV?$_String_iterator@V?$_String_val@U?$_Simple_types@D@std@@@std@@@0@PEB_WI@Z
	??$_Debug_range2@V?$_String_iterator@V?$_String_val@U?$_Simple_types@D@std@@@std@@@std@@@std@@YAXV?$_String_iterator@V?$_String_val@U?$_Simple_types@D@std@@@std@@@0@0PEB_WIUrandom_access_iterator_tag@0@@Z
	??$_Debug_range@V?$_String_iterator@V?$_String_val@U?$_Simple_types@D@std@@@std@@@std@@@std@@YAXV?$_String_iterator@V?$_String_val@U?$_Simple_types@D@std@@@std@@@0@0PEB_WI@Z
	??$_Destroy_range@U?$_Wrap_alloc@V?$allocator@D@std@@@std@@@std@@YAXPEAD0AEAU?$_Wrap_alloc@V?$allocator@D@std@@@0@@Z
	??$_Destroy_range@U?$_Wrap_alloc@V?$allocator@D@std@@@std@@@std@@YAXPEAD0AEAU?$_Wrap_alloc@V?$allocator@D@std@@@0@U_Scalar_ptr_iterator_tag@0@@Z
	??$_Destroy_range@U?$_Wrap_alloc@V?$allocator@V?$basic_string@DU?$char_traits@D@std@@V?$allocator@D@2@@std@@@std@@@std@@@std@@YAXPEAV?$basic_string@DU?$char_traits@D@std@@V?$allocator@D@2@@0@0AEAU?$_Wrap_alloc@V?$allocator@V?$basic_string@DU?$char_traits@D@std@@V?$allocator@D@2@@std@@@std@@@0@@Z
	??$_Destroy_range@U?$_Wrap_alloc@V?$allocator@V?$basic_string@DU?$char_traits@D@std@@V?$allocator@D@2@@std@@@std@@@std@@@std@@YAXPEAV?$basic_string@DU?$char_traits@D@std@@V?$allocator@D@2@@0@0AEAU?$_Wrap_alloc@V?$allocator@V?$basic_string@DU?$char_traits@D@std@@V?$allocator@D@2@@std@@@std@@@0@U_Nonscalar_ptr_iterator_tag@0@@Z
	??$_Iter_cat@V?$_String_iterator@V?$_String_val@U?$_Simple_types@D@std@@@std@@@std@@@std@@YA?AUrandom_access_iterator_tag@0@AEBV?$_String_iterator@V?$_String_val@U?$_Simple_types@D@std@@@std@@@0@@Z
	??$_Pocca@U?$_Wrap_alloc@V?$allocator@D@std@@@std@@@std@@YAXAEAU?$_Wrap_alloc@V?$allocator@D@std@@@0@AEBU10@@Z
	??$_Pocca@U?$_Wrap_alloc@V?$allocator@D@std@@@std@@@std@@YAXAEAU?$_Wrap_alloc@V?$allocator@D@std@@@0@AEBU10@U?$integral_constant@_N$0A@@0@@Z
	??$_Ptr_cat@DD@std@@YA?AU_Scalar_ptr_iterator_tag@0@PEAD0@Z
	??$_Ptr_cat@V?$basic_string@DU?$char_traits@D@std@@V?$allocator@D@2@@std@@V12@@std@@YA?AU_Nonscalar_ptr_iterator_tag@0@PEAV?$basic_string@DU?$char_traits@D@std@@V?$allocator@D@2@@0@0@Z
	??$_Replace@PEADD@std@@YAXPEAD0AEBD1@Z
	??$_Unchecked@V?$_String_val@U?$_Simple_types@D@std@@@std@@@std@@YAPEADV?$_String_iterator@V?$_String_val@U?$_Simple_types@D@std@@@std@@@0@@Z
	??$addressof@V?$basic_string@DU?$char_traits@D@std@@V?$allocator@D@2@@std@@@std@@YAPEAV?$basic_string@DU?$char_traits@D@std@@V?$allocator@D@2@@0@AEAV10@@Z
	??$addressof@_W@std@@YAPEA_WAEA_W@Z
	??$destroy@PEAPEAVValue@Json@@@?$_Wrap_alloc@V?$allocator@PEAVValue@Json@@@std@@@std@@QEAAXPEAPEAPEAVValue@Json@@@Z
	??$destroy@PEAPEAVValue@Json@@@?$allocator@PEAVValue@Json@@@std@@QEAAXPEAPEAPEAVValue@Json@@@Z
	??$destroy@PEAPEAVValue@Json@@@?$allocator_traits@V?$allocator@PEAVValue@Json@@@std@@@std@@SAXAEAV?$allocator@PEAVValue@Json@@@1@PEAPEAPEAVValue@Json@@@Z
	??$destroy@PEAVErrorInfo@Reader@Json@@@?$_Wrap_alloc@V?$allocator@VErrorInfo@Reader@Json@@@std@@@std@@QEAAXPEAPEAVErrorInfo@Reader@Json@@@Z
	??$destroy@PEAVErrorInfo@Reader@Json@@@?$allocator@VErrorInfo@Reader@Json@@@std@@QEAAXPEAPEAVErrorInfo@Reader@Json@@@Z
	??$destroy@PEAVErrorInfo@Reader@Json@@@?$allocator_traits@V?$allocator@VErrorInfo@Reader@Json@@@std@@@std@@SAXAEAV?$allocator@VErrorInfo@Reader@Json@@@1@PEAPEAVErrorInfo@Reader@Json@@@Z
	??$destroy@PEAVValue@Json@@@?$_Wrap_alloc@V?$allocator@PEAVValue@Json@@@std@@@std@@QEAAXPEAPEAVValue@Json@@@Z
	??$destroy@PEAVValue@Json@@@?$allocator@PEAVValue@Json@@@std@@QEAAXPEAPEAVValue@Json@@@Z
	??$destroy@PEAVValue@Json@@@?$allocator_traits@V?$allocator@PEAVValue@Json@@@std@@@std@@SAXAEAV?$allocator@PEAVValue@Json@@@1@PEAPEAVValue@Json@@@Z
	??$destroy@PEA_W@?$_Wrap_alloc@V?$allocator@_W@std@@@std@@QEAAXPEAPEA_W@Z
	??$destroy@PEA_W@?$allocator@_W@std@@QEAAXPEAPEA_W@Z
	??$destroy@PEA_W@?$allocator_traits@V?$allocator@_W@std@@@std@@SAXAEAV?$allocator@_W@1@PEAPEA_W@Z
	??$destroy@V?$basic_string@DU?$char_traits@D@std@@V?$allocator@D@2@@std@@@?$_Wrap_alloc@V?$allocator@V?$basic_string@DU?$char_traits@D@std@@V?$allocator@D@2@@std@@@std@@@std@@QEAAXPEAV?$basic_string@DU?$char_traits@D@std@@V?$allocator@D@2@@1@@Z
	??$destroy@V?$basic_string@DU?$char_traits@D@std@@V?$allocator@D@2@@std@@@?$allocator@V?$basic_string@DU?$char_traits@D@std@@V?$allocator@D@2@@std@@@std@@QEAAXPEAV?$basic_string@DU?$char_traits@D@std@@V?$allocator@D@2@@1@@Z
	??$destroy@V?$basic_string@DU?$char_traits@D@std@@V?$allocator@D@2@@std@@@?$allocator_traits@V?$allocator@V?$basic_string@DU?$char_traits@D@std@@V?$allocator@D@2@@std@@@std@@@std@@SAXAEAV?$allocator@V?$basic_string@DU?$char_traits@D@std@@V?$allocator@D@2@@std@@@1@PEAV?$basic_string@DU?$char_traits@D@std@@V?$allocator@D@2@@1@@Z
	??$destroy@VErrorInfo@Reader@Json@@@?$_Wrap_alloc@V?$allocator@VErrorInfo@Reader@Json@@@std@@@std@@QEAAXPEAVErrorInfo@Reader@Json@@@Z
	??$destroy@VErrorInfo@Reader@Json@@@?$allocator@VErrorInfo@Reader@Json@@@std@@QEAAXPEAVErrorInfo@Reader@Json@@@Z
	??$destroy@VErrorInfo@Reader@Json@@@?$allocator_traits@V?$allocator@VErrorInfo@Reader@Json@@@std@@@std@@SAXAEAV?$allocator@VErrorInfo@Reader@Json@@@1@PEAVErrorInfo@Reader@Json@@@Z
	??$dispatch@V?$basic_string@_WU?$char_traits@_W@std@@V?$allocator@_W@2@@std@@@path_traits@filesystem@boost@@YAXAEBV?$basic_string@DU?$char_traits@D@std@@V?$allocator@D@2@@std@@AEAV?$basic_string@_WU?$char_traits@_W@std@@V?$allocator@_W@2@@4@@Z
	??$forward@AEAVValue@Json@@@std@@YAAEAVValue@Json@@AEAV12@@Z
	??$forward@AEBH@std@@YAAEBHAEBH@Z
	??$forward@AEBM@std@@YAAEBMAEBM@Z
	??$forward@AEBV?$allocator@_W@std@@@std@@YAAEBV?$allocator@_W@0@AEBV10@@Z
	??$forward@AEBV?$basic_string@DU?$char_traits@D@std@@V?$allocator@D@2@@std@@@std@@YAAEBV?$basic_string@DU?$char_traits@D@std@@V?$allocator@D@2@@0@AEBV10@@Z
	??$forward@AEBVValue@Json@@@std@@YAAEBVValue@Json@@AEBV12@@Z
	??$forward@AEB_N@std@@YAAEB_NAEB_N@Z
	??$forward@V?$basic_string@DU?$char_traits@D@std@@V?$allocator@D@2@@std@@@std@@YA$$QEAV?$basic_string@DU?$char_traits@D@std@@V?$allocator@D@2@@0@AEAV10@@Z
	??$move@AEAU?$_Wrap_alloc@V?$allocator@D@std@@@std@@@std@@YA$$QEAU?$_Wrap_alloc@V?$allocator@D@std@@@0@AEAU10@@Z
	??$move@AEAV?$basic_string@DU?$char_traits@D@std@@V?$allocator@D@2@@std@@@std@@YA$$QEAV?$basic_string@DU?$char_traits@D@std@@V?$allocator@D@2@@0@AEAV10@@Z
	??$replace@V?$_String_iterator@V?$_String_val@U?$_Simple_types@D@std@@@std@@@std@@D@std@@YAXV?$_String_iterator@V?$_String_val@U?$_Simple_types@D@std@@@std@@@0@0AEBD1@Z
	??0?$_Func_class@XAEAVValue@Json@@@std@@QEAA@XZ
	??0?$_Func_class@XAEBVValue@Json@@@std@@QEAA@XZ
	??0?$_Iterator012@Ubidirectional_iterator_tag@std@@U?$pair@$$CBUIndex@?$ofxLiquidEvent@$$CBVValue@Json@@@@V?$function@$$A6AXAEBVValue@Json@@@Z@std@@@2@_JPEBU32@AEBU32@U_Iterator_base12@2@@std@@QEAA@XZ
	??0?$_Iterator012@Ubidirectional_iterator_tag@std@@U?$pair@$$CBUIndex@?$ofxLiquidEvent@VValue@Json@@@@V?$function@$$A6AXAEAVValue@Json@@@Z@std@@@2@_JPEBU32@AEBU32@U_Iterator_base12@2@@std@@QEAA@XZ
	??0?$_Iterator012@Urandom_access_iterator_tag@std@@D_JPEBDAEBDU_Iterator_base12@2@@std@@QEAA@AEBU01@@Z
	??0?$_Iterator012@Urandom_access_iterator_tag@std@@D_JPEBDAEBDU_Iterator_base12@2@@std@@QEAA@XZ
	??0?$_String_alloc@U?$_String_base_types@_WV?$allocator@_W@std@@@std@@@std@@QEAA@AEBV?$allocator@_W@1@@Z
	??0?$_String_const_iterator@V?$_String_val@U?$_Simple_types@D@std@@@std@@@std@@QEAA@AEBV01@@Z
	??0?$_String_const_iterator@V?$_String_val@U?$_Simple_types@D@std@@@std@@@std@@QEAA@PEBDPEBU_Container_base12@1@@Z
	??0?$_String_iterator@V?$_String_val@U?$_Simple_types@D@std@@@std@@@std@@QEAA@AEBV01@@Z
	??0?$_String_iterator@V?$_String_val@U?$_Simple_types@D@std@@@std@@@std@@QEAA@PEADPEBU_Container_base12@1@@Z
	??0?$_String_val@U?$_Simple_types@_W@std@@@std@@QEAA@XZ
	??0?$_Tree_const_iterator@V?$_Tree_val@U?$_Tree_simple_types@U?$pair@$$CBUIndex@?$ofxLiquidEvent@$$CBVValue@Json@@@@V?$function@$$A6AXAEBVValue@Json@@@Z@std@@@std@@@std@@@std@@@std@@QEAA@PEAU?$_Tree_node@U?$pair@$$CBUIndex@?$ofxLiquidEvent@$$CBVValue@Json@@@@V?$function@$$A6AXAEBVValue@Json@@@Z@std@@@std@@PEAX@1@PEBV?$_Tree_val@U?$_Tree_simple_types@U?$pair@$$CBUIndex@?$ofxLiquidEvent@$$CBVValue@Json@@@@V?$function@$$A6AXAEBVValue@Json@@@Z@std@@@std@@@std@@@1@@Z
	??0?$_Tree_const_iterator@V?$_Tree_val@U?$_Tree_simple_types@U?$pair@$$CBUIndex@?$ofxLiquidEvent@VValue@Json@@@@V?$function@$$A6AXAEAVValue@Json@@@Z@std@@@std@@@std@@@std@@@std@@QEAA@PEAU?$_Tree_node@U?$pair@$$CBUIndex@?$ofxLiquidEvent@VValue@Json@@@@V?$function@$$A6AXAEAVValue@Json@@@Z@std@@@std@@PEAX@1@PEBV?$_Tree_val@U?$_Tree_simple_types@U?$pair@$$CBUIndex@?$ofxLiquidEvent@VValue@Json@@@@V?$function@$$A6AXAEAVValue@Json@@@Z@std@@@std@@@std@@@1@@Z
	??0?$_Tree_iterator@V?$_Tree_val@U?$_Tree_simple_types@U?$pair@$$CBUIndex@?$ofxLiquidEvent@$$CBVValue@Json@@@@V?$function@$$A6AXAEBVValue@Json@@@Z@std@@@std@@@std@@@std@@@std@@QEAA@PEAU?$_Tree_node@U?$pair@$$CBUIndex@?$ofxLiquidEvent@$$CBVValue@Json@@@@V?$function@$$A6AXAEBVValue@Json@@@Z@std@@@std@@PEAX@1@PEBV?$_Tree_val@U?$_Tree_simple_types@U?$pair@$$CBUIndex@?$ofxLiquidEvent@$$CBVValue@Json@@@@V?$function@$$A6AXAEBVValue@Json@@@Z@std@@@std@@@std@@@1@@Z
	??0?$_Tree_iterator@V?$_Tree_val@U?$_Tree_simple_types@U?$pair@$$CBUIndex@?$ofxLiquidEvent@VValue@Json@@@@V?$function@$$A6AXAEAVValue@Json@@@Z@std@@@std@@@std@@@std@@@std@@QEAA@PEAU?$_Tree_node@U?$pair@$$CBUIndex@?$ofxLiquidEvent@VValue@Json@@@@V?$function@$$A6AXAEAVValue@Json@@@Z@std@@@std@@PEAX@1@PEBV?$_Tree_val@U?$_Tree_simple_types@U?$pair@$$CBUIndex@?$ofxLiquidEvent@VValue@Json@@@@V?$function@$$A6AXAEAVValue@Json@@@Z@std@@@std@@@std@@@1@@Z
	??0?$_Tree_unchecked_const_iterator@V?$_Tree_val@U?$_Tree_simple_types@U?$pair@$$CBUIndex@?$ofxLiquidEvent@$$CBVValue@Json@@@@V?$function@$$A6AXAEBVValue@Json@@@Z@std@@@std@@@std@@@std@@U_Iterator_base12@2@@std@@QEAA@PEAU?$_Tree_node@U?$pair@$$CBUIndex@?$ofxLiquidEvent@$$CBVValue@Json@@@@V?$function@$$A6AXAEBVValue@Json@@@Z@std@@@std@@PEAX@1@PEBV?$_Tree_val@U?$_Tree_simple_types@U?$pair@$$CBUIndex@?$ofxLiquidEvent@$$CBVValue@Json@@@@V?$function@$$A6AXAEBVValue@Json@@@Z@std@@@std@@@std@@@1@@Z
	??0?$_Tree_unchecked_const_iterator@V?$_Tree_val@U?$_Tree_simple_types@U?$pair@$$CBUIndex@?$ofxLiquidEvent@VValue@Json@@@@V?$function@$$A6AXAEAVValue@Json@@@Z@std@@@std@@@std@@@std@@U_Iterator_base12@2@@std@@QEAA@PEAU?$_Tree_node@U?$pair@$$CBUIndex@?$ofxLiquidEvent@VValue@Json@@@@V?$function@$$A6AXAEAVValue@Json@@@Z@std@@@std@@PEAX@1@PEBV?$_Tree_val@U?$_Tree_simple_types@U?$pair@$$CBUIndex@?$ofxLiquidEvent@VValue@Json@@@@V?$function@$$A6AXAEAVValue@Json@@@Z@std@@@std@@@std@@@1@@Z
	??0?$_Wrap_alloc@V?$allocator@_W@std@@@std@@QEAA@AEBV?$allocator@_W@1@@Z
	??0?$allocator@_W@std@@QEAA@AEBV01@@Z
	??0?$allocator@_W@std@@QEAA@XZ
	??0?$basic_string@DU?$char_traits@D@std@@V?$allocator@D@2@@std@@QEAA@$$QEAV01@@Z
	??0?$basic_string@DU?$char_traits@D@std@@V?$allocator@D@2@@std@@QEAA@XZ
	??0?$basic_string@_WU?$char_traits@_W@std@@V?$allocator@_W@2@@std@@QEAA@XZ
	??0?$function@$$A6AXAEAVValue@Json@@@Z@std@@QEAA@AEBV01@@Z
	??0?$function@$$A6AXAEBVValue@Json@@@Z@std@@QEAA@AEBV01@@Z
	??0?$pair@$$CBUIndex@?$ofxLiquidEvent@$$CBVValue@Json@@@@V?$function@$$A6AXAEBVValue@Json@@@Z@std@@@std@@QEAA@AEBU01@@Z
	??0?$pair@$$CBUIndex@?$ofxLiquidEvent@VValue@Json@@@@V?$function@$$A6AXAEAVValue@Json@@@Z@std@@@std@@QEAA@AEBU01@@Z
	??1?$_Compressed_pair@U?$_Wrap_alloc@V?$allocator@D@std@@@std@@V?$_Vector_val@U?$_Simple_types@D@std@@@2@$00@std@@QEAA@XZ
	??1?$_Compressed_pair@U?$_Wrap_alloc@V?$allocator@PEAVValue@Json@@@std@@@std@@V?$_Deque_val@U?$_Deque_simple_types@PEAVValue@Json@@@std@@@2@$00@std@@QEAA@XZ
	??1?$_Compressed_pair@U?$_Wrap_alloc@V?$allocator@V?$basic_string@DU?$char_traits@D@std@@V?$allocator@D@2@@std@@@std@@@std@@V?$_Vector_val@U?$_Simple_types@V?$basic_string@DU?$char_traits@D@std@@V?$allocator@D@2@@std@@@std@@@2@$00@std@@QEAA@XZ
	??1?$_Compressed_pair@U?$_Wrap_alloc@V?$allocator@VErrorInfo@Reader@Json@@@std@@@std@@V?$_Deque_val@U?$_Deque_simple_types@VErrorInfo@Reader@Json@@@std@@@2@$00@std@@QEAA@XZ
	??1?$_Compressed_pair@U?$_Wrap_alloc@V?$allocator@_W@std@@@std@@V?$_String_val@U?$_Simple_types@_W@std@@@2@$00@std@@QEAA@XZ
	??1?$_Deque_alloc@U?$_Deque_base_types@PEAVValue@Json@@V?$allocator@PEAVValue@Json@@@std@@@std@@@std@@QEAA@XZ
	??1?$_Deque_alloc@U?$_Deque_base_types@VErrorInfo@Reader@Json@@V?$allocator@VErrorInfo@Reader@Json@@@std@@@std@@@std@@QEAA@XZ
	??1?$_Deque_val@U?$_Deque_simple_types@PEAVValue@Json@@@std@@@std@@QEAA@XZ
	??1?$_Deque_val@U?$_Deque_simple_types@VErrorInfo@Reader@Json@@@std@@@std@@QEAA@XZ
	??1?$_Func_class@XAEAVValue@Json@@@std@@QEAA@XZ
	??1?$_Func_class@XAEBVValue@Json@@@std@@QEAA@XZ
	??1?$_Iterator012@Ubidirectional_iterator_tag@std@@U?$pair@$$CBUIndex@?$ofxLiquidEvent@$$CBVValue@Json@@@@V?$function@$$A6AXAEBVValue@Json@@@Z@std@@@2@_JPEBU32@AEBU32@U_Iterator_base12@2@@std@@QEAA@XZ
	??1?$_Iterator012@Ubidirectional_iterator_tag@std@@U?$pair@$$CBUIndex@?$ofxLiquidEvent@VValue@Json@@@@V?$function@$$A6AXAEAVValue@Json@@@Z@std@@@2@_JPEBU32@AEBU32@U_Iterator_base12@2@@std@@QEAA@XZ
	??1?$_Iterator012@Urandom_access_iterator_tag@std@@D_JPEBDAEBDU_Iterator_base12@2@@std@@QEAA@XZ
	??1?$_String_alloc@U?$_String_base_types@_WV?$allocator@_W@std@@@std@@@std@@QEAA@XZ
	??1?$_String_const_iterator@V?$_String_val@U?$_Simple_types@D@std@@@std@@@std@@QEAA@XZ
	??1?$_String_iterator@V?$_String_val@U?$_Simple_types@D@std@@@std@@@std@@QEAA@XZ
	??1?$_String_val@U?$_Simple_types@_W@std@@@std@@QEAA@XZ
	??1?$_Tree_const_iterator@V?$_Tree_val@U?$_Tree_simple_types@U?$pair@$$CBUIndex@?$ofxLiquidEvent@$$CBVValue@Json@@@@V?$function@$$A6AXAEBVValue@Json@@@Z@std@@@std@@@std@@@std@@@std@@QEAA@XZ
	??1?$_Tree_const_iterator@V?$_Tree_val@U?$_Tree_simple_types@U?$pair@$$CBUIndex@?$ofxLiquidEvent@VValue@Json@@@@V?$function@$$A6AXAEAVValue@Json@@@Z@std@@@std@@@std@@@std@@@std@@QEAA@XZ
	??1?$_Tree_iterator@V?$_Tree_val@U?$_Tree_simple_types@U?$pair@$$CBUIndex@?$ofxLiquidEvent@$$CBVValue@Json@@@@V?$function@$$A6AXAEBVValue@Json@@@Z@std@@@std@@@std@@@std@@@std@@QEAA@XZ
	??1?$_Tree_iterator@V?$_Tree_val@U?$_Tree_simple_types@U?$pair@$$CBUIndex@?$ofxLiquidEvent@VValue@Json@@@@V?$function@$$A6AXAEAVValue@Json@@@Z@std@@@std@@@std@@@std@@@std@@QEAA@XZ
	??1?$_Tree_unchecked_const_iterator@V?$_Tree_val@U?$_Tree_simple_types@U?$pair@$$CBUIndex@?$ofxLiquidEvent@$$CBVValue@Json@@@@V?$function@$$A6AXAEBVValue@Json@@@Z@std@@@std@@@std@@@std@@U_Iterator_base12@2@@std@@QEAA@XZ
	??1?$_Tree_unchecked_const_iterator@V?$_Tree_val@U?$_Tree_simple_types@U?$pair@$$CBUIndex@?$ofxLiquidEvent@VValue@Json@@@@V?$function@$$A6AXAEAVValue@Json@@@Z@std@@@std@@@std@@@std@@U_Iterator_base12@2@@std@@QEAA@XZ
	??1?$_Vector_alloc@U?$_Vec_base_types@DV?$allocator@D@std@@@std@@@std@@QEAA@XZ
	??1?$_Vector_alloc@U?$_Vec_base_types@V?$basic_string@DU?$char_traits@D@std@@V?$allocator@D@2@@std@@V?$allocator@V?$basic_string@DU?$char_traits@D@std@@V?$allocator@D@2@@std@@@2@@std@@@std@@QEAA@XZ
	??1?$_Vector_const_iterator@V?$_Vector_val@U?$_Simple_types@D@std@@@std@@@std@@QEAA@XZ
	??1?$_Vector_iterator@V?$_Vector_val@U?$_Simple_types@D@std@@@std@@@std@@QEAA@XZ
	??1?$_Vector_val@U?$_Simple_types@D@std@@@std@@QEAA@XZ
	??1?$_Vector_val@U?$_Simple_types@V?$basic_string@DU?$char_traits@D@std@@V?$allocator@D@2@@std@@@std@@@std@@QEAA@XZ
	??1?$basic_string@_WU?$char_traits@_W@std@@V?$allocator@_W@2@@std@@QEAA@XZ
	??1?$deque@PEAVValue@Json@@V?$allocator@PEAVValue@Json@@@std@@@std@@QEAA@XZ
	??1?$deque@VErrorInfo@Reader@Json@@V?$allocator@VErrorInfo@Reader@Json@@@std@@@std@@QEAA@XZ
	??1?$function@$$A6AXAEAVValue@Json@@@Z@std@@QEAA@XZ
	??1?$function@$$A6AXAEBVValue@Json@@@Z@std@@QEAA@XZ
	??1?$pair@$$CBUIndex@?$ofxLiquidEvent@$$CBVValue@Json@@@@V?$function@$$A6AXAEBVValue@Json@@@Z@std@@@std@@QEAA@XZ
	??1?$pair@$$CBUIndex@?$ofxLiquidEvent@VValue@Json@@@@V?$function@$$A6AXAEAVValue@Json@@@Z@std@@@std@@QEAA@XZ
	??1?$stack@PEAVValue@Json@@V?$deque@PEAVValue@Json@@V?$allocator@PEAVValue@Json@@@std@@@std@@@std@@QEAA@XZ
	??1?$vector@DV?$allocator@D@std@@@std@@QEAA@XZ
	??1?$vector@V?$basic_string@DU?$char_traits@D@std@@V?$allocator@D@2@@std@@V?$allocator@V?$basic_string@DU?$char_traits@D@std@@V?$allocator@D@2@@std@@@2@@std@@QEAA@XZ
	??1ErrorInfo@Reader@Json@@QEAA@XZ
	??1Exception@ofxRulr@@UEAA@XZ
	??1Line@ofBuffer@@QEAA@XZ
	??1Reader@Json@@QEAA@XZ
	??1StyledWriter@Json@@UEAA@XZ
	??1ofBuffer@@QEAA@XZ
	??1ofFileDialogResult@@QEAA@XZ
	??1path@filesystem@boost@@QEAA@XZ
	??4?$basic_string@DU?$char_traits@D@std@@V?$allocator@D@2@@std@@QEAAAEAV01@AEBV01@@Z
	??8?$_String_const_iterator@V?$_String_val@U?$_Simple_types@D@std@@@std@@@std@@QEBA_NAEBV01@@Z
	??8?$_Tree_const_iterator@V?$_Tree_val@U?$_Tree_simple_types@U?$pair@$$CBUIndex@?$ofxLiquidEvent@$$CBVValue@Json@@@@V?$function@$$A6AXAEBVValue@Json@@@Z@std@@@std@@@std@@@std@@@std@@QEBA_NAEBV01@@Z
	??8?$_Tree_const_iterator@V?$_Tree_val@U?$_Tree_simple_types@U?$pair@$$CBUIndex@?$ofxLiquidEvent@VValue@Json@@@@V?$function@$$A6AXAEAVValue@Json@@@Z@std@@@std@@@std@@@std@@@std@@QEBA_NAEBV01@@Z
	??9?$_String_const_iterator@V?$_String_val@U?$_Simple_types@D@std@@@std@@@std@@QEBA_NAEBV01@@Z
	??9?$_Tree_const_iterator@V?$_Tree_val@U?$_Tree_simple_types@U?$pair@$$CBUIndex@?$ofxLiquidEvent@$$CBVValue@Json@@@@V?$function@$$A6AXAEBVValue@Json@@@Z@std@@@std@@@std@@@std@@@std@@QEBA_NAEBV01@@Z
	??9?$_Tree_const_iterator@V?$_Tree_val@U?$_Tree_simple_types@U?$pair@$$CBUIndex@?$ofxLiquidEvent@VValue@Json@@@@V?$function@$$A6AXAEAVValue@Json@@@Z@std@@@std@@@std@@@std@@@std@@QEBA_NAEBV01@@Z
	??C?$shared_ptr@VValue@?$ofParameter@H@@@std@@QEBAPEAVValue@?$ofParameter@H@@XZ
	??C?$shared_ptr@VValue@?$ofParameter@M@@@std@@QEBAPEAVValue@?$ofParameter@M@@XZ
	??C?$shared_ptr@VValue@?$ofParameter@V?$basic_string@DU?$char_traits@D@std@@V?$allocator@D@2@@std@@@@@std@@QEBAPEAVValue@?$ofParameter@V?$basic_string@DU?$char_traits@D@std@@V?$allocator@D@2@@std@@@@XZ
	??C?$shared_ptr@VValue@?$ofParameter@_N@@@std@@QEBAPEAVValue@?$ofParameter@_N@@XZ
	??D?$_String_const_iterator@V?$_String_val@U?$_Simple_types@D@std@@@std@@@std@@QEBAAEBDXZ
	??D?$_Tree_const_iterator@V?$_Tree_val@U?$_Tree_simple_types@U?$pair@$$CBUIndex@?$ofxLiquidEvent@$$CBVValue@Json@@@@V?$function@$$A6AXAEBVValue@Json@@@Z@std@@@std@@@std@@@std@@@std@@QEBAAEBU?$pair@$$CBUIndex@?$ofxLiquidEvent@$$CBVValue@Json@@@@V?$function@$$A6AXAEBVValue@Json@@@Z@std@@@1@XZ
	??D?$_Tree_const_iterator@V?$_Tree_val@U?$_Tree_simple_types@U?$pair@$$CBUIndex@?$ofxLiquidEvent@VValue@Json@@@@V?$function@$$A6AXAEAVValue@Json@@@Z@std@@@std@@@std@@@std@@@std@@QEBAAEBU?$pair@$$CBUIndex@?$ofxLiquidEvent@VValue@Json@@@@V?$function@$$A6AXAEAVValue@Json@@@Z@std@@@1@XZ
	??D?$_Tree_iterator@V?$_Tree_val@U?$_Tree_simple_types@U?$pair@$$CBUIndex@?$ofxLiquidEvent@$$CBVValue@Json@@@@V?$function@$$A6AXAEBVValue@Json@@@Z@std@@@std@@@std@@@std@@@std@@QEBAAEAU?$pair@$$CBUIndex@?$ofxLiquidEvent@$$CBVValue@Json@@@@V?$function@$$A6AXAEBVValue@Json@@@Z@std@@@1@XZ
	??D?$_Tree_iterator@V?$_Tree_val@U?$_Tree_simple_types@U?$pair@$$CBUIndex@?$ofxLiquidEvent@VValue@Json@@@@V?$function@$$A6AXAEAVValue@Json@@@Z@std@@@std@@@std@@@std@@@std@@QEBAAEAU?$pair@$$CBUIndex@?$ofxLiquidEvent@VValue@Json@@@@V?$function@$$A6AXAEAVValue@Json@@@Z@std@@@1@XZ
	??E?$_Tree_const_iterator@V?$_Tree_val@U?$_Tree_simple_types@U?$pair@$$CBUIndex@?$ofxLiquidEvent@$$CBVValue@Json@@@@V?$function@$$A6AXAEBVValue@Json@@@Z@std@@@std@@@std@@@std@@@std@@QEAAAEAV01@XZ
	??E?$_Tree_const_iterator@V?$_Tree_val@U?$_Tree_simple_types@U?$pair@$$CBUIndex@?$ofxLiquidEvent@VValue@Json@@@@V?$function@$$A6AXAEAVValue@Json@@@Z@std@@@std@@@std@@@std@@@std@@QEAAAEAV01@XZ
	??E?$_Tree_iterator@V?$_Tree_val@U?$_Tree_simple_types@U?$pair@$$CBUIndex@?$ofxLiquidEvent@$$CBVValue@Json@@@@V?$function@$$A6AXAEBVValue@Json@@@Z@std@@@std@@@std@@@std@@@std@@QEAAAEAV01@XZ
	??E?$_Tree_iterator@V?$_Tree_val@U?$_Tree_simple_types@U?$pair@$$CBUIndex@?$ofxLiquidEvent@VValue@Json@@@@V?$function@$$A6AXAEAVValue@Json@@@Z@std@@@std@@@std@@@std@@@std@@QEAAAEAV01@XZ
	??E?$_Tree_unchecked_const_iterator@V?$_Tree_val@U?$_Tree_simple_types@U?$pair@$$CBUIndex@?$ofxLiquidEvent@$$CBVValue@Json@@@@V?$function@$$A6AXAEBVValue@Json@@@Z@std@@@std@@@std@@@std@@U_Iterator_base12@2@@std@@QEAAAEAV01@XZ
	??E?$_Tree_unchecked_const_iterator@V?$_Tree_val@U?$_Tree_simple_types@U?$pair@$$CBUIndex@?$ofxLiquidEvent@VValue@Json@@@@V?$function@$$A6AXAEAVValue@Json@@@Z@std@@@std@@@std@@@std@@U_Iterator_base12@2@@std@@QEAAAEAV01@XZ
	??M?$_String_const_iterator@V?$_String_val@U?$_Simple_types@D@std@@@std@@@std@@QEBA_NAEBV01@@Z
	??R?$_Func_class@XAEAVValue@Json@@@std@@QEBAXAEAVValue@Json@@@Z
	??R?$_Func_class@XAEBH@std@@QEBAXAEBH@Z
	??R?$_Func_class@XAEBM@std@@QEBAXAEBM@Z
	??R?$_Func_class@XAEBV?$basic_string@DU?$char_traits@D@std@@V?$allocator@D@2@@std@@@std@@QEBAXAEBV?$basic_string@DU?$char_traits@D@std@@V?$allocator@D@2@@1@@Z
	??R?$_Func_class@XAEBVValue@Json@@@std@@QEBAXAEBVValue@Json@@@Z
	??R?$_Func_class@XAEB_N@std@@QEBAXAEB_N@Z
	??Y?$basic_string@DU?$char_traits@D@std@@V?$allocator@D@2@@std@@QEAAAEAV01@AEBV01@@Z
	??Y?$basic_string@DU?$char_traits@D@std@@V?$allocator@D@2@@std@@QEAAAEAV01@PEBD@Z
	??_7StyledWriter@Json@@6B@
	??_C@_00CNPNBAHC@?$AA@
	??_C@_05GBGGJALA@?4json?$AA@
	??_C@_05HEAFKDOP@Load?5?$AA@
	??_C@_05PFLJKINB@Save?5?$AA@
	??_C@_1BMC@CBIIGIEA@?$AAs?$AAt?$AAd?$AA?3?$AA?3?$AA_?$AAT?$AAr?$AAe?$AAe?$AA_?$AAc?$AAo?$AAn?$AAs?$AAt?$AA_?$AAi?$AAt?$AAe?$AAr?$AAa?$AAt?$AAo?$AAr?$AA?$DM?$AAc?$AAl?$AAa?$AAs?$AAs?$AA?5@
	??_C@_1BME@KPICJFLI@?$AAs?$AAt?$AAd?$AA?3?$AA?3?$AA_?$AAT?$AAr?$AAe?$AAe?$AA_?$AAc?$AAo?$AAn?$AAs?$AAt?$AA_?$AAi?$AAt?$AAe?$AAr?$AAa?$AAt?$AAo?$AAr?$AA?$DM?$AAc?$AAl?$AAa?$AAs?$AAs?$AA?5@
	??_C@_1BME@PHPHMHN@?$AAs?$AAt?$AAd?$AA?3?$AA?3?$AA_?$AAT?$AAr?$AAe?$AAe?$AA_?$AAc?$AAo?$AAn?$AAs?$AAt?$AA_?$AAi?$AAt?$AAe?$AAr?$AAa?$AAt?$AAo?$AAr?$AA?$DM?$AAc?$AAl?$AAa?$AAs?$AAs?$AA?5@
	??_C@_1BNM@FLCFPHGL@?$AAs?$AAt?$AAd?$AA?3?$AA?3?$AA_?$AAT?$AAr?$AAe?$AAe?$AA_?$AAc?$AAo?$AAn?$AAs?$AAt?$AA_?$AAi?$AAt?$AAe?$AAr?$AAa?$AAt?$AAo?$AAr?$AA?$DM?$AAc?$AAl?$AAa?$AAs?$AAs?$AA?5@
	??_C@_1BNO@BJLPHFGM@?$AAs?$AAt?$AAd?$AA?3?$AA?3?$AA_?$AAT?$AAr?$AAe?$AAe?$AA_?$AAc?$AAo?$AAn?$AAs?$AAt?$AA_?$AAi?$AAt?$AAe?$AAr?$AAa?$AAt?$AAo?$AAr?$AA?$DM?$AAc?$AAl?$AAa?$AAs?$AAs?$AA?5@
	??_C@_1BNO@LJECJMKJ@?$AAs?$AAt?$AAd?$AA?3?$AA?3?$AA_?$AAT?$AAr?$AAe?$AAe?$AA_?$AAc?$AAo?$AAn?$AAs?$AAt?$AA_?$AAi?$AAt?$AAe?$AAr?$AAa?$AAt?$AAo?$AAr?$AA?$DM?$AAc?$AAl?$AAa?$AAs?$AAs?$AA?5@
	??_C@_1CO@FNIDKHMC@?$AAd?$AAe?$AAq?$AAu?$AAe?$AA?5?$AAe?$AAm?$AAp?$AAt?$AAy?$AA?5?$AAb?$AAe?$AAf?$AAo?$AAr?$AAe?$AA?5?$AAp?$AAo?$AAp?$AA?$AA@
	??_C@_1DM@KDEKGMPF@?$AAs?$AAt?$AAr?$AAi?$AAn?$AAg?$AA?5?$AAi?$AAt?$AAe?$AAr?$AAa?$AAt?$AAo?$AAr?$AAs?$AA?5?$AAi?$AAn?$AAc?$AAo?$AAm?$AAp?$AAa?$AAt?$AAi?$AAb?$AAl?$AAe?$AA?$AA@
	??_C@_1DO@CFEEPGGJ@?$AAm?$AAa?$AAp?$AA?1?$AAs?$AAe?$AAt?$AA?5?$AAi?$AAt?$AAe?$AAr?$AAa?$AAt?$AAo?$AAr?$AAs?$AA?5?$AAi?$AAn?$AAc?$AAo?$AAm?$AAp?$AAa?$AAt?$AAi?$AAb?$AAl?$AAe?$AA?$AA@
	??_C@_1EG@CNCHLAOB@?$AAs?$AAt?$AAr?$AAi?$AAn?$AAg?$AA?5?$AAi?$AAt?$AAe?$AAr?$AAa?$AAt?$AAo?$AAr?$AA?5?$AAn?$AAo?$AAt?$AA?5?$AAd?$AAe?$AAr?$AAe?$AAf?$AAe?$AAr?$AAe?$AAn?$AAc?$AAa?$AAb@
	??_C@_1EG@EHJFMBHJ@?$AAm?$AAa?$AAp?$AA?1?$AAs?$AAe?$AAt?$AA?5?$AAi?$AAt?$AAe?$AAr?$AAa?$AAt?$AAo?$AAr?$AA?5?$AAn?$AAo?$AAt?$AA?5?$AAi?$AAn?$AAc?$AAr?$AAe?$AAm?$AAe?$AAn?$AAt?$AAa?$AAb@
	??_C@_1EI@FHEHNNNM@?$AAm?$AAa?$AAp?$AA?1?$AAs?$AAe?$AAt?$AA?5?$AAi?$AAt?$AAe?$AAr?$AAa?$AAt?$AAo?$AAr?$AA?5?$AAn?$AAo?$AAt?$AA?5?$AAd?$AAe?$AAr?$AAe?$AAf?$AAe?$AAr?$AAe?$AAn?$AAc?$AAa@
	??_C@_1IK@BHJCIFB@?$AAc?$AA?3?$AA?2?$AAp?$AAr?$AAo?$AAg?$AAr?$AAa?$AAm?$AA?5?$AAf?$AAi?$AAl?$AAe?$AAs?$AA?5?$AA?$CI?$AAx?$AA8?$AA6?$AA?$CJ?$AA?2?$AAm?$AAi?$AAc?$AAr?$AAo?$AAs?$AAo?$AAf?$AAt@
	??_C@_1IK@ENFOGHIC@?$AAc?$AA?3?$AA?2?$AAp?$AAr?$AAo?$AAg?$AAr?$AAa?$AAm?$AA?5?$AAf?$AAi?$AAl?$AAe?$AAs?$AA?5?$AA?$CI?$AAx?$AA8?$AA6?$AA?$CJ?$AA?2?$AAm?$AAi?$AAc?$AAr?$AAo?$AAs?$AAo?$AAf?$AAt@
	??_C@_1MA@BDELDFHB@?$AAs?$AAt?$AAd?$AA?3?$AA?3?$AA_?$AAS?$AAt?$AAr?$AAi?$AAn?$AAg?$AA_?$AAc?$AAo?$AAn?$AAs?$AAt?$AA_?$AAi?$AAt?$AAe?$AAr?$AAa?$AAt?$AAo?$AAr?$AA?$DM?$AAc?$AAl?$AAa?$AAs@
	??_C@_1MG@GDGHDIKC@?$AAs?$AAt?$AAd?$AA?3?$AA?3?$AA_?$AAS?$AAt?$AAr?$AAi?$AAn?$AAg?$AA_?$AAc?$AAo?$AAn?$AAs?$AAt?$AA_?$AAi?$AAt?$AAe?$AAr?$AAa?$AAt?$AAo?$AAr?$AA?$DM?$AAc?$AAl?$AAa?$AAs@
	??_DofFile@@QEAAXXZ
	??_G?$basic_string@DU?$char_traits@D@std@@V?$allocator@D@2@@std@@QEAAPEAXI@Z
	??_GErrorInfo@Reader@Json@@QEAAPEAXI@Z
	??_GStyledWriter@Json@@UEAAPEAXI@Z
	??_R0?AVException@cv@@@8
	??_R0?AVException@ofxRulr@@@8
	??_R0?AVStyledWriter@Json@@@8
	??_R0?AVWriter@Json@@@8
	??_R1A@?0A@EA@StyledWriter@Json@@8
	??_R1A@?0A@EA@Writer@Json@@8
	??_R2StyledWriter@Json@@8
	??_R2Writer@Json@@8
	??_R3StyledWriter@Json@@8
	??_R3Writer@Json@@8
	??_R4StyledWriter@Json@@6B@
	?_Alloc_proxy@?$_String_alloc@U?$_String_base_types@_WV?$allocator@_W@std@@@std@@@std@@QEAAXXZ
	?_Assign_rv@?$basic_string@DU?$char_traits@D@std@@V?$allocator@D@2@@std@@QEAAX$$QEAV12@@Z
	?_Bx@?$_String_alloc@U?$_String_base_types@_WV?$allocator@_W@std@@@std@@@std@@QEAAAEAT_Bxty@?$_String_val@U?$_Simple_types@_W@std@@@2@XZ
	?_Compat@?$_String_const_iterator@V?$_String_val@U?$_Simple_types@D@std@@@std@@@std@@QEBAXAEBV12@@Z
	?_Copy_alloc@?$_String_alloc@U?$_String_base_types@DV?$allocator@D@std@@@std@@@std@@QEAAXAEBU?$_Wrap_alloc@V?$allocator@D@std@@@2@@Z
	?_Destroy@?$vector@DV?$allocator@D@std@@@std@@IEAAXPEAD0@Z
	?_Destroy@?$vector@V?$basic_string@DU?$char_traits@D@std@@V?$allocator@D@2@@std@@V?$allocator@V?$basic_string@DU?$char_traits@D@std@@V?$allocator@D@2@@std@@@2@@std@@IEAAXPEAV?$basic_string@DU?$char_traits@D@std@@V?$allocator@D@2@@2@0@Z
	?_Empty@?$_Func_class@XAEAVValue@Json@@@std@@IEBA_NXZ
	?_Empty@?$_Func_class@XAEBH@std@@IEBA_NXZ
	?_Empty@?$_Func_class@XAEBM@std@@IEBA_NXZ
	?_Empty@?$_Func_class@XAEBV?$basic_string@DU?$char_traits@D@std@@V?$allocator@D@2@@std@@@std@@IEBA_NXZ
	?_Empty@?$_Func_class@XAEBVValue@Json@@@std@@IEBA_NXZ
	?_Empty@?$_Func_class@XAEB_N@std@@IEBA_NXZ
	?_Eos@?$basic_string@_WU?$char_traits@_W@std@@V?$allocator@_W@2@@std@@QEAAX_K@Z
	?_Free_proxy@?$_Deque_alloc@U?$_Deque_base_types@PEAVValue@Json@@V?$allocator@PEAVValue@Json@@@std@@@std@@@std@@QEAAXXZ
	?_Free_proxy@?$_Deque_alloc@U?$_Deque_base_types@VErrorInfo@Reader@Json@@V?$allocator@VErrorInfo@Reader@Json@@@std@@@std@@@std@@QEAAXXZ
	?_Free_proxy@?$_String_alloc@U?$_String_base_types@_WV?$allocator@_W@std@@@std@@@std@@QEAAXXZ
	?_Free_proxy@?$_Vector_alloc@U?$_Vec_base_types@DV?$allocator@D@std@@@std@@@std@@QEAAXXZ
	?_Free_proxy@?$_Vector_alloc@U?$_Vec_base_types@V?$basic_string@DU?$char_traits@D@std@@V?$allocator@D@2@@std@@V?$allocator@V?$basic_string@DU?$char_traits@D@std@@V?$allocator@D@2@@std@@@2@@std@@@std@@QEAAXXZ
	?_Get@?$_Ptr_base@VValue@?$ofParameter@H@@@std@@QEBAPEAVValue@?$ofParameter@H@@XZ
	?_Get@?$_Ptr_base@VValue@?$ofParameter@M@@@std@@QEBAPEAVValue@?$ofParameter@M@@XZ
	?_Get@?$_Ptr_base@VValue@?$ofParameter@V?$basic_string@DU?$char_traits@D@std@@V?$allocator@D@2@@std@@@@@std@@QEBAPEAVValue@?$ofParameter@V?$basic_string@DU?$char_traits@D@std@@V?$allocator@D@2@@std@@@@XZ
	?_Get@?$_Ptr_base@VValue@?$ofParameter@_N@@@std@@QEBAPEAVValue@?$ofParameter@_N@@XZ
	?_Get_data@?$_Deque_alloc@U?$_Deque_base_types@PEAVValue@Json@@V?$allocator@PEAVValue@Json@@@std@@@std@@@std@@QEAAAEAV?$_Deque_val@U?$_Deque_simple_types@PEAVValue@Json@@@std@@@2@XZ
	?_Get_data@?$_Deque_alloc@U?$_Deque_base_types@PEAVValue@Json@@V?$allocator@PEAVValue@Json@@@std@@@std@@@std@@QEBAAEBV?$_Deque_val@U?$_Deque_simple_types@PEAVValue@Json@@@std@@@2@XZ
	?_Get_data@?$_Deque_alloc@U?$_Deque_base_types@VErrorInfo@Reader@Json@@V?$allocator@VErrorInfo@Reader@Json@@@std@@@std@@@std@@QEAAAEAV?$_Deque_val@U?$_Deque_simple_types@VErrorInfo@Reader@Json@@@std@@@2@XZ
	?_Get_data@?$_Deque_alloc@U?$_Deque_base_types@VErrorInfo@Reader@Json@@V?$allocator@VErrorInfo@Reader@Json@@@std@@@std@@@std@@QEBAAEBV?$_Deque_val@U?$_Deque_simple_types@VErrorInfo@Reader@Json@@@std@@@2@XZ
	?_Get_data@?$_String_alloc@U?$_String_base_types@_WV?$allocator@_W@std@@@std@@@std@@QEAAAEAV?$_String_val@U?$_Simple_types@_W@std@@@2@XZ
	?_Get_data@?$_Tree_comp_alloc@V?$_Tmap_traits@UIndex@?$ofxLiquidEvent@$$CBVValue@Json@@@@V?$function@$$A6AXAEBVValue@Json@@@Z@std@@U?$less@UIndex@?$ofxLiquidEvent@$$CBVValue@Json@@@@@4@V?$allocator@U?$pair@$$CBUIndex@?$ofxLiquidEvent@$$CBVValue@Json@@@@V?$function@$$A6AXAEBVValue@Json@@@Z@std@@@std@@@4@$0A@@std@@@std@@QEAAAEAV?$_Tree_val@U?$_Tree_simple_types@U?$pair@$$CBUIndex@?$ofxLiquidEvent@$$CBVValue@Json@@@@V?$function@$$A6AXAEBVValue@Json@@@Z@std@@@std@@@std@@@2@XZ
	?_Get_data@?$_Tree_comp_alloc@V?$_Tmap_traits@UIndex@?$ofxLiquidEvent@$$CBVValue@Json@@@@V?$function@$$A6AXAEBVValue@Json@@@Z@std@@U?$less@UIndex@?$ofxLiquidEvent@$$CBVValue@Json@@@@@4@V?$allocator@U?$pair@$$CBUIndex@?$ofxLiquidEvent@$$CBVValue@Json@@@@V?$function@$$A6AXAEBVValue@Json@@@Z@std@@@std@@@4@$0A@@std@@@std@@QEBAAEBV?$_Tree_val@U?$_Tree_simple_types@U?$pair@$$CBUIndex@?$ofxLiquidEvent@$$CBVValue@Json@@@@V?$function@$$A6AXAEBVValue@Json@@@Z@std@@@std@@@std@@@2@XZ
	?_Get_data@?$_Tree_comp_alloc@V?$_Tmap_traits@UIndex@?$ofxLiquidEvent@VValue@Json@@@@V?$function@$$A6AXAEAVValue@Json@@@Z@std@@U?$less@UIndex@?$ofxLiquidEvent@VValue@Json@@@@@4@V?$allocator@U?$pair@$$CBUIndex@?$ofxLiquidEvent@VValue@Json@@@@V?$function@$$A6AXAEAVValue@Json@@@Z@std@@@std@@@4@$0A@@std@@@std@@QEAAAEAV?$_Tree_val@U?$_Tree_simple_types@U?$pair@$$CBUIndex@?$ofxLiquidEvent@VValue@Json@@@@V?$function@$$A6AXAEAVValue@Json@@@Z@std@@@std@@@std@@@2@XZ
	?_Get_data@?$_Tree_comp_alloc@V?$_Tmap_traits@UIndex@?$ofxLiquidEvent@VValue@Json@@@@V?$function@$$A6AXAEAVValue@Json@@@Z@std@@U?$less@UIndex@?$ofxLiquidEvent@VValue@Json@@@@@4@V?$allocator@U?$pair@$$CBUIndex@?$ofxLiquidEvent@VValue@Json@@@@V?$function@$$A6AXAEAVValue@Json@@@Z@std@@@std@@@4@$0A@@std@@@std@@QEBAAEBV?$_Tree_val@U?$_Tree_simple_types@U?$pair@$$CBUIndex@?$ofxLiquidEvent@VValue@Json@@@@V?$function@$$A6AXAEAVValue@Json@@@Z@std@@@std@@@std@@@2@XZ
	?_Get_data@?$_Vector_alloc@U?$_Vec_base_types@DV?$allocator@D@std@@@std@@@std@@QEAAAEAV?$_Vector_val@U?$_Simple_types@D@std@@@2@XZ
	?_Get_data@?$_Vector_alloc@U?$_Vec_base_types@V?$basic_string@DU?$char_traits@D@std@@V?$allocator@D@2@@std@@V?$allocator@V?$basic_string@DU?$char_traits@D@std@@V?$allocator@D@2@@std@@@2@@std@@@std@@QEAAAEAV?$_Vector_val@U?$_Simple_types@V?$basic_string@DU?$char_traits@D@std@@V?$allocator@D@2@@std@@@std@@@2@XZ
	?_Get_first@?$_Compressed_pair@U?$_Wrap_alloc@V?$allocator@D@std@@@std@@V?$_Vector_val@U?$_Simple_types@D@std@@@2@$00@std@@QEAAAEAU?$_Wrap_alloc@V?$allocator@D@std@@@2@XZ
	?_Get_first@?$_Compressed_pair@U?$_Wrap_alloc@V?$allocator@PEAVValue@Json@@@std@@@std@@V?$_Deque_val@U?$_Deque_simple_types@PEAVValue@Json@@@std@@@2@$00@std@@QEAAAEAU?$_Wrap_alloc@V?$allocator@PEAVValue@Json@@@std@@@2@XZ
	?_Get_first@?$_Compressed_pair@U?$_Wrap_alloc@V?$allocator@V?$basic_string@DU?$char_traits@D@std@@V?$allocator@D@2@@std@@@std@@@std@@V?$_Vector_val@U?$_Simple_types@V?$basic_string@DU?$char_traits@D@std@@V?$allocator@D@2@@std@@@std@@@2@$00@std@@QEAAAEAU?$_Wrap_alloc@V?$allocator@V?$basic_string@DU?$char_traits@D@std@@V?$allocator@D@2@@std@@@std@@@2@XZ
	?_Get_first@?$_Compressed_pair@U?$_Wrap_alloc@V?$allocator@VErrorInfo@Reader@Json@@@std@@@std@@V?$_Deque_val@U?$_Deque_simple_types@VErrorInfo@Reader@Json@@@std@@@2@$00@std@@QEAAAEAU?$_Wrap_alloc@V?$allocator@VErrorInfo@Reader@Json@@@std@@@2@XZ
	?_Get_first@?$_Compressed_pair@U?$_Wrap_alloc@V?$allocator@_W@std@@@std@@V?$_String_val@U?$_Simple_types@_W@std@@@2@$00@std@@QEAAAEAU?$_Wrap_alloc@V?$allocator@_W@std@@@2@XZ
	?_Get_second@?$_Compressed_pair@U?$_Wrap_alloc@V?$allocator@D@std@@@std@@V?$_Vector_val@U?$_Simple_types@D@std@@@2@$00@std@@QEAAAEAV?$_Vector_val@U?$_Simple_types@D@std@@@2@XZ
	?_Get_second@?$_Compressed_pair@U?$_Wrap_alloc@V?$allocator@PEAVValue@Json@@@std@@@std@@V?$_Deque_val@U?$_Deque_simple_types@PEAVValue@Json@@@std@@@2@$00@std@@QEAAAEAV?$_Deque_val@U?$_Deque_simple_types@PEAVValue@Json@@@std@@@2@XZ
	?_Get_second@?$_Compressed_pair@U?$_Wrap_alloc@V?$allocator@PEAVValue@Json@@@std@@@std@@V?$_Deque_val@U?$_Deque_simple_types@PEAVValue@Json@@@std@@@2@$00@std@@QEBAAEBV?$_Deque_val@U?$_Deque_simple_types@PEAVValue@Json@@@std@@@2@XZ
	?_Get_second@?$_Compressed_pair@U?$_Wrap_alloc@V?$allocator@U?$_Tree_node@U?$pair@$$CBUIndex@?$ofxLiquidEvent@$$CBVValue@Json@@@@V?$function@$$A6AXAEBVValue@Json@@@Z@std@@@std@@PEAX@std@@@std@@@std@@V?$_Tree_val@U?$_Tree_simple_types@U?$pair@$$CBUIndex@?$ofxLiquidEvent@$$CBVValue@Json@@@@V?$function@$$A6AXAEBVValue@Json@@@Z@std@@@std@@@std@@@2@$00@std@@QEAAAEAV?$_Tree_val@U?$_Tree_simple_types@U?$pair@$$CBUIndex@?$ofxLiquidEvent@$$CBVValue@Json@@@@V?$function@$$A6AXAEBVValue@Json@@@Z@std@@@std@@@std@@@2@XZ
	?_Get_second@?$_Compressed_pair@U?$_Wrap_alloc@V?$allocator@U?$_Tree_node@U?$pair@$$CBUIndex@?$ofxLiquidEvent@$$CBVValue@Json@@@@V?$function@$$A6AXAEBVValue@Json@@@Z@std@@@std@@PEAX@std@@@std@@@std@@V?$_Tree_val@U?$_Tree_simple_types@U?$pair@$$CBUIndex@?$ofxLiquidEvent@$$CBVValue@Json@@@@V?$function@$$A6AXAEBVValue@Json@@@Z@std@@@std@@@std@@@2@$00@std@@QEBAAEBV?$_Tree_val@U?$_Tree_simple_types@U?$pair@$$CBUIndex@?$ofxLiquidEvent@$$CBVValue@Json@@@@V?$function@$$A6AXAEBVValue@Json@@@Z@std@@@std@@@std@@@2@XZ
	?_Get_second@?$_Compressed_pair@U?$_Wrap_alloc@V?$allocator@U?$_Tree_node@U?$pair@$$CBUIndex@?$ofxLiquidEvent@VValue@Json@@@@V?$function@$$A6AXAEAVValue@Json@@@Z@std@@@std@@PEAX@std@@@std@@@std@@V?$_Tree_val@U?$_Tree_simple_types@U?$pair@$$CBUIndex@?$ofxLiquidEvent@VValue@Json@@@@V?$function@$$A6AXAEAVValue@Json@@@Z@std@@@std@@@std@@@2@$00@std@@QEAAAEAV?$_Tree_val@U?$_Tree_simple_types@U?$pair@$$CBUIndex@?$ofxLiquidEvent@VValue@Json@@@@V?$function@$$A6AXAEAVValue@Json@@@Z@std@@@std@@@std@@@2@XZ
	?_Get_second@?$_Compressed_pair@U?$_Wrap_alloc@V?$allocator@U?$_Tree_node@U?$pair@$$CBUIndex@?$ofxLiquidEvent@VValue@Json@@@@V?$function@$$A6AXAEAVValue@Json@@@Z@std@@@std@@PEAX@std@@@std@@@std@@V?$_Tree_val@U?$_Tree_simple_types@U?$pair@$$CBUIndex@?$ofxLiquidEvent@VValue@Json@@@@V?$function@$$A6AXAEAVValue@Json@@@Z@std@@@std@@@std@@@2@$00@std@@QEBAAEBV?$_Tree_val@U?$_Tree_simple_types@U?$pair@$$CBUIndex@?$ofxLiquidEvent@VValue@Json@@@@V?$function@$$A6AXAEAVValue@Json@@@Z@std@@@std@@@std@@@2@XZ
	?_Get_second@?$_Compressed_pair@U?$_Wrap_alloc@V?$allocator@V?$basic_string@DU?$char_traits@D@std@@V?$allocator@D@2@@std@@@std@@@std@@V?$_Vector_val@U?$_Simple_types@V?$basic_string@DU?$char_traits@D@std@@V?$allocator@D@2@@std@@@std@@@2@$00@std@@QEAAAEAV?$_Vector_val@U?$_Simple_types@V?$basic_string@DU?$char_traits@D@std@@V?$allocator@D@2@@std@@@std@@@2@XZ
	?_Get_second@?$_Compressed_pair@U?$_Wrap_alloc@V?$allocator@VErrorInfo@Reader@Json@@@std@@@std@@V?$_Deque_val@U?$_Deque_simple_types@VErrorInfo@Reader@Json@@@std@@@2@$00@std@@QEAAAEAV?$_Deque_val@U?$_Deque_simple_types@VErrorInfo@Reader@Json@@@std@@@2@XZ
	?_Get_second@?$_Compressed_pair@U?$_Wrap_alloc@V?$allocator@VErrorInfo@Reader@Json@@@std@@@std@@V?$_Deque_val@U?$_Deque_simple_types@VErrorInfo@Reader@Json@@@std@@@2@$00@std@@QEBAAEBV?$_Deque_val@U?$_Deque_simple_types@VErrorInfo@Reader@Json@@@std@@@2@XZ
	?_Get_second@?$_Compressed_pair@U?$_Wrap_alloc@V?$allocator@_W@std@@@std@@V?$_String_val@U?$_Simple_types@_W@std@@@2@$00@std@@QEAAAEAV?$_String_val@U?$_Simple_types@_W@std@@@2@XZ
	?_Get_second@?$_Compressed_pair@U?$less@UIndex@?$ofxLiquidEvent@$$CBVValue@Json@@@@@std@@V?$_Compressed_pair@U?$_Wrap_alloc@V?$allocator@U?$_Tree_node@U?$pair@$$CBUIndex@?$ofxLiquidEvent@$$CBVValue@Json@@@@V?$function@$$A6AXAEBVValue@Json@@@Z@std@@@std@@PEAX@std@@@std@@@std@@V?$_Tree_val@U?$_Tree_simple_types@U?$pair@$$CBUIndex@?$ofxLiquidEvent@$$CBVValue@Json@@@@V?$function@$$A6AXAEBVValue@Json@@@Z@std@@@std@@@std@@@2@$00@2@$00@std@@QEAAAEAV?$_Compressed_pair@U?$_Wrap_alloc@V?$allocator@U?$_Tree_node@U?$pair@$$CBUIndex@?$ofxLiquidEvent@$$CBVValue@Json@@@@V?$function@$$A6AXAEBVValue@Json@@@Z@std@@@std@@PEAX@std@@@std@@@std@@V?$_Tree_val@U?$_Tree_simple_types@U?$pair@$$CBUIndex@?$ofxLiquidEvent@$$CBVValue@Json@@@@V?$function@$$A6AXAEBVValue@Json@@@Z@std@@@std@@@std@@@2@$00@2@XZ
	?_Get_second@?$_Compressed_pair@U?$less@UIndex@?$ofxLiquidEvent@$$CBVValue@Json@@@@@std@@V?$_Compressed_pair@U?$_Wrap_alloc@V?$allocator@U?$_Tree_node@U?$pair@$$CBUIndex@?$ofxLiquidEvent@$$CBVValue@Json@@@@V?$function@$$A6AXAEBVValue@Json@@@Z@std@@@std@@PEAX@std@@@std@@@std@@V?$_Tree_val@U?$_Tree_simple_types@U?$pair@$$CBUIndex@?$ofxLiquidEvent@$$CBVValue@Json@@@@V?$function@$$A6AXAEBVValue@Json@@@Z@std@@@std@@@std@@@2@$00@2@$00@std@@QEBAAEBV?$_Compressed_pair@U?$_Wrap_alloc@V?$allocator@U?$_Tree_node@U?$pair@$$CBUIndex@?$ofxLiquidEvent@$$CBVValue@Json@@@@V?$function@$$A6AXAEBVValue@Json@@@Z@std@@@std@@PEAX@std@@@std@@@std@@V?$_Tree_val@U?$_Tree_simple_types@U?$pair@$$CBUIndex@?$ofxLiquidEvent@$$CBVValue@Json@@@@V?$function@$$A6AXAEBVValue@Json@@@Z@std@@@std@@@std@@@2@$00@2@XZ
	?_Get_second@?$_Compressed_pair@U?$less@UIndex@?$ofxLiquidEvent@VValue@Json@@@@@std@@V?$_Compressed_pair@U?$_Wrap_alloc@V?$allocator@U?$_Tree_node@U?$pair@$$CBUIndex@?$ofxLiquidEvent@VValue@Json@@@@V?$function@$$A6AXAEAVValue@Json@@@Z@std@@@std@@PEAX@std@@@std@@@std@@V?$_Tree_val@U?$_Tree_simple_types@U?$pair@$$CBUIndex@?$ofxLiquidEvent@VValue@Json@@@@V?$function@$$A6AXAEAVValue@Json@@@Z@std@@@std@@@std@@@2@$00@2@$00@std@@QEAAAEAV?$_Compressed_pair@U?$_Wrap_alloc@V?$allocator@U?$_Tree_node@U?$pair@$$CBUIndex@?$ofxLiquidEvent@VValue@Json@@@@V?$function@$$A6AXAEAVValue@Json@@@Z@std@@@std@@PEAX@std@@@std@@@std@@V?$_Tree_val@U?$_Tree_simple_types@U?$pair@$$CBUIndex@?$ofxLiquidEvent@VValue@Json@@@@V?$function@$$A6AXAEAVValue@Json@@@Z@std@@@std@@@std@@@2@$00@2@XZ
	?_Get_second@?$_Compressed_pair@U?$less@UIndex@?$ofxLiquidEvent@VValue@Json@@@@@std@@V?$_Compressed_pair@U?$_Wrap_alloc@V?$allocator@U?$_Tree_node@U?$pair@$$CBUIndex@?$ofxLiquidEvent@VValue@Json@@@@V?$function@$$A6AXAEAVValue@Json@@@Z@std@@@std@@PEAX@std@@@std@@@std@@V?$_Tree_val@U?$_Tree_simple_types@U?$pair@$$CBUIndex@?$ofxLiquidEvent@VValue@Json@@@@V?$function@$$A6AXAEAVValue@Json@@@Z@std@@@std@@@std@@@2@$00@2@$00@std@@QEBAAEBV?$_Compressed_pair@U?$_Wrap_alloc@V?$allocator@U?$_Tree_node@U?$pair@$$CBUIndex@?$ofxLiquidEvent@VValue@Json@@@@V?$function@$$A6AXAEAVValue@Json@@@Z@std@@@std@@PEAX@std@@@std@@@std@@V?$_Tree_val@U?$_Tree_simple_types@U?$pair@$$CBUIndex@?$ofxLiquidEvent@VValue@Json@@@@V?$function@$$A6AXAEAVValue@Json@@@Z@std@@@std@@@std@@@2@$00@2@XZ
	?_Getal@?$_Deque_alloc@U?$_Deque_base_types@PEAVValue@Json@@V?$allocator@PEAVValue@Json@@@std@@@std@@@std@@QEAAAEAU?$_Wrap_alloc@V?$allocator@PEAVValue@Json@@@std@@@2@XZ
	?_Getal@?$_Deque_alloc@U?$_Deque_base_types@VErrorInfo@Reader@Json@@V?$allocator@VErrorInfo@Reader@Json@@@std@@@std@@@std@@QEAAAEAU?$_Wrap_alloc@V?$allocator@VErrorInfo@Reader@Json@@@std@@@2@XZ
	?_Getal@?$_String_alloc@U?$_String_base_types@_WV?$allocator@_W@std@@@std@@@std@@QEAAAEAU?$_Wrap_alloc@V?$allocator@_W@std@@@2@XZ
	?_Getal@?$_Vector_alloc@U?$_Vec_base_types@DV?$allocator@D@std@@@std@@@std@@QEAAAEAU?$_Wrap_alloc@V?$allocator@D@std@@@2@XZ
	?_Getal@?$_Vector_alloc@U?$_Vec_base_types@V?$basic_string@DU?$char_traits@D@std@@V?$allocator@D@2@@std@@V?$allocator@V?$basic_string@DU?$char_traits@D@std@@V?$allocator@D@2@@std@@@2@@std@@@std@@QEAAAEAU?$_Wrap_alloc@V?$allocator@V?$basic_string@DU?$char_traits@D@std@@V?$allocator@D@2@@std@@@std@@@2@XZ
	?_Getblock@?$_Deque_alloc@U?$_Deque_base_types@PEAVValue@Json@@V?$allocator@PEAVValue@Json@@@std@@@std@@@std@@QEBA_K_K@Z
	?_Getblock@?$_Deque_alloc@U?$_Deque_base_types@VErrorInfo@Reader@Json@@V?$allocator@VErrorInfo@Reader@Json@@@std@@@std@@@std@@QEBA_K_K@Z
	?_Getblock@?$_Deque_val@U?$_Deque_simple_types@PEAVValue@Json@@@std@@@std@@QEBA_K_K@Z
	?_Getblock@?$_Deque_val@U?$_Deque_simple_types@VErrorInfo@Reader@Json@@@std@@@std@@QEBA_K_K@Z
	?_Getimpl@?$_Func_class@XAEAVValue@Json@@@std@@AEBAPEAV?$_Func_base@XAEAVValue@Json@@@2@XZ
	?_Getimpl@?$_Func_class@XAEBH@std@@AEBAPEAV?$_Func_base@XAEBH@2@XZ
	?_Getimpl@?$_Func_class@XAEBM@std@@AEBAPEAV?$_Func_base@XAEBM@2@XZ
	?_Getimpl@?$_Func_class@XAEBV?$basic_string@DU?$char_traits@D@std@@V?$allocator@D@2@@std@@@std@@AEBAPEAV?$_Func_base@XAEBV?$basic_string@DU?$char_traits@D@std@@V?$allocator@D@2@@std@@@2@XZ
	?_Getimpl@?$_Func_class@XAEBVValue@Json@@@std@@AEBAPEAV?$_Func_base@XAEBVValue@Json@@@2@XZ
	?_Getimpl@?$_Func_class@XAEB_N@std@@AEBAPEAV?$_Func_base@XAEB_N@2@XZ
	?_Getpfirst@?$_Deque_alloc@U?$_Deque_base_types@PEAVValue@Json@@V?$allocator@PEAVValue@Json@@@std@@@std@@@std@@QEBAPEAPEAU_Iterator_base12@2@XZ
	?_Getpfirst@?$_Deque_alloc@U?$_Deque_base_types@VErrorInfo@Reader@Json@@V?$allocator@VErrorInfo@Reader@Json@@@std@@@std@@@std@@QEBAPEAPEAU_Iterator_base12@2@XZ
	?_Getspace@?$_Func_class@XAEAVValue@Json@@@std@@AEAAPEAXXZ
	?_Getspace@?$_Func_class@XAEAVValue@Json@@@std@@AEBAPEBXXZ
	?_Getspace@?$_Func_class@XAEBVValue@Json@@@std@@AEAAPEAXXZ
	?_Getspace@?$_Func_class@XAEBVValue@Json@@@std@@AEBAPEBXXZ
	?_Isnil@?$_Tree_val@U?$_Tree_simple_types@U?$pair@$$CBUIndex@?$ofxLiquidEvent@$$CBVValue@Json@@@@V?$function@$$A6AXAEBVValue@Json@@@Z@std@@@std@@@std@@@std@@SAAEADPEAU?$_Tree_node@U?$pair@$$CBUIndex@?$ofxLiquidEvent@$$CBVValue@Json@@@@V?$function@$$A6AXAEBVValue@Json@@@Z@std@@@std@@PEAX@2@@Z
	?_Isnil@?$_Tree_val@U?$_Tree_simple_types@U?$pair@$$CBUIndex@?$ofxLiquidEvent@VValue@Json@@@@V?$function@$$A6AXAEAVValue@Json@@@Z@std@@@std@@@std@@@std@@SAAEADPEAU?$_Tree_node@U?$pair@$$CBUIndex@?$ofxLiquidEvent@VValue@Json@@@@V?$function@$$A6AXAEAVValue@Json@@@Z@std@@@std@@PEAX@2@@Z
	?_Left@?$_Tree_comp_alloc@V?$_Tmap_traits@UIndex@?$ofxLiquidEvent@$$CBVValue@Json@@@@V?$function@$$A6AXAEBVValue@Json@@@Z@std@@U?$less@UIndex@?$ofxLiquidEvent@$$CBVValue@Json@@@@@4@V?$allocator@U?$pair@$$CBUIndex@?$ofxLiquidEvent@$$CBVValue@Json@@@@V?$function@$$A6AXAEBVValue@Json@@@Z@std@@@std@@@4@$0A@@std@@@std@@SAAEAPEAU?$_Tree_node@U?$pair@$$CBUIndex@?$ofxLiquidEvent@$$CBVValue@Json@@@@V?$function@$$A6AXAEBVValue@Json@@@Z@std@@@std@@PEAX@2@PEAU32@@Z
	?_Left@?$_Tree_comp_alloc@V?$_Tmap_traits@UIndex@?$ofxLiquidEvent@VValue@Json@@@@V?$function@$$A6AXAEAVValue@Json@@@Z@std@@U?$less@UIndex@?$ofxLiquidEvent@VValue@Json@@@@@4@V?$allocator@U?$pair@$$CBUIndex@?$ofxLiquidEvent@VValue@Json@@@@V?$function@$$A6AXAEAVValue@Json@@@Z@std@@@std@@@4@$0A@@std@@@std@@SAAEAPEAU?$_Tree_node@U?$pair@$$CBUIndex@?$ofxLiquidEvent@VValue@Json@@@@V?$function@$$A6AXAEAVValue@Json@@@Z@std@@@std@@PEAX@2@PEAU32@@Z
	?_Left@?$_Tree_val@U?$_Tree_simple_types@U?$pair@$$CBUIndex@?$ofxLiquidEvent@$$CBVValue@Json@@@@V?$function@$$A6AXAEBVValue@Json@@@Z@std@@@std@@@std@@@std@@SAAEAPEAU?$_Tree_node@U?$pair@$$CBUIndex@?$ofxLiquidEvent@$$CBVValue@Json@@@@V?$function@$$A6AXAEBVValue@Json@@@Z@std@@@std@@PEAX@2@PEAU32@@Z
	?_Left@?$_Tree_val@U?$_Tree_simple_types@U?$pair@$$CBUIndex@?$ofxLiquidEvent@VValue@Json@@@@V?$function@$$A6AXAEAVValue@Json@@@Z@std@@@std@@@std@@@std@@SAAEAPEAU?$_Tree_node@U?$pair@$$CBUIndex@?$ofxLiquidEvent@VValue@Json@@@@V?$function@$$A6AXAEAVValue@Json@@@Z@std@@@std@@PEAX@2@PEAU32@@Z
	?_Lmost@?$_Tree@V?$_Tmap_traits@UIndex@?$ofxLiquidEvent@$$CBVValue@Json@@@@V?$function@$$A6AXAEBVValue@Json@@@Z@std@@U?$less@UIndex@?$ofxLiquidEvent@$$CBVValue@Json@@@@@4@V?$allocator@U?$pair@$$CBUIndex@?$ofxLiquidEvent@$$CBVValue@Json@@@@V?$function@$$A6AXAEBVValue@Json@@@Z@std@@@std@@@4@$0A@@std@@@std@@IEBAAEAPEAU?$_Tree_node@U?$pair@$$CBUIndex@?$ofxLiquidEvent@$$CBVValue@Json@@@@V?$function@$$A6AXAEBVValue@Json@@@Z@std@@@std@@PEAX@2@XZ
	?_Lmost@?$_Tree@V?$_Tmap_traits@UIndex@?$ofxLiquidEvent@VValue@Json@@@@V?$function@$$A6AXAEAVValue@Json@@@Z@std@@U?$less@UIndex@?$ofxLiquidEvent@VValue@Json@@@@@4@V?$allocator@U?$pair@$$CBUIndex@?$ofxLiquidEvent@VValue@Json@@@@V?$function@$$A6AXAEAVValue@Json@@@Z@std@@@std@@@4@$0A@@std@@@std@@IEBAAEAPEAU?$_Tree_node@U?$pair@$$CBUIndex@?$ofxLiquidEvent@VValue@Json@@@@V?$function@$$A6AXAEAVValue@Json@@@Z@std@@@std@@PEAX@2@XZ
	?_Local@?$_Func_class@XAEAVValue@Json@@@std@@AEBA_NXZ
	?_Local@?$_Func_class@XAEBVValue@Json@@@std@@AEBA_NXZ
	?_Map@?$_Deque_alloc@U?$_Deque_base_types@PEAVValue@Json@@V?$allocator@PEAVValue@Json@@@std@@@std@@@std@@QEAAAEAPEAPEAPEAVValue@Json@@XZ
	?_Map@?$_Deque_alloc@U?$_Deque_base_types@VErrorInfo@Reader@Json@@V?$allocator@VErrorInfo@Reader@Json@@@std@@@std@@@std@@QEAAAEAPEAPEAVErrorInfo@Reader@Json@@XZ
	?_Mapsize@?$_Deque_alloc@U?$_Deque_base_types@PEAVValue@Json@@V?$allocator@PEAVValue@Json@@@std@@@std@@@std@@QEAAAEA_KXZ
	?_Mapsize@?$_Deque_alloc@U?$_Deque_base_types@VErrorInfo@Reader@Json@@V?$allocator@VErrorInfo@Reader@Json@@@std@@@std@@@std@@QEAAAEA_KXZ
	?_Min@?$_Tree_val@U?$_Tree_simple_types@U?$pair@$$CBUIndex@?$ofxLiquidEvent@$$CBVValue@Json@@@@V?$function@$$A6AXAEBVValue@Json@@@Z@std@@@std@@@std@@@std@@SAPEAU?$_Tree_node@U?$pair@$$CBUIndex@?$ofxLiquidEvent@$$CBVValue@Json@@@@V?$function@$$A6AXAEBVValue@Json@@@Z@std@@@std@@PEAX@2@PEAU32@@Z
	?_Min@?$_Tree_val@U?$_Tree_simple_types@U?$pair@$$CBUIndex@?$ofxLiquidEvent@VValue@Json@@@@V?$function@$$A6AXAEAVValue@Json@@@Z@std@@@std@@@std@@@std@@SAPEAU?$_Tree_node@U?$pair@$$CBUIndex@?$ofxLiquidEvent@VValue@Json@@@@V?$function@$$A6AXAEAVValue@Json@@@Z@std@@@std@@PEAX@2@PEAU32@@Z
	?_Myend@?$_Vector_alloc@U?$_Vec_base_types@DV?$allocator@D@std@@@std@@@std@@QEAAAEAPEADXZ
	?_Myend@?$_Vector_alloc@U?$_Vec_base_types@V?$basic_string@DU?$char_traits@D@std@@V?$allocator@D@2@@std@@V?$allocator@V?$basic_string@DU?$char_traits@D@std@@V?$allocator@D@2@@std@@@2@@std@@@std@@QEAAAEAPEAV?$basic_string@DU?$char_traits@D@std@@V?$allocator@D@2@@2@XZ
	?_Myfirst@?$_Vector_alloc@U?$_Vec_base_types@DV?$allocator@D@std@@@std@@@std@@QEAAAEAPEADXZ
	?_Myfirst@?$_Vector_alloc@U?$_Vec_base_types@V?$basic_string@DU?$char_traits@D@std@@V?$allocator@D@2@@std@@V?$allocator@V?$basic_string@DU?$char_traits@D@std@@V?$allocator@D@2@@std@@@2@@std@@@std@@QEAAAEAPEAV?$basic_string@DU?$char_traits@D@std@@V?$allocator@D@2@@2@XZ
	?_Myhead@?$_Tree_comp_alloc@V?$_Tmap_traits@UIndex@?$ofxLiquidEvent@$$CBVValue@Json@@@@V?$function@$$A6AXAEBVValue@Json@@@Z@std@@U?$less@UIndex@?$ofxLiquidEvent@$$CBVValue@Json@@@@@4@V?$allocator@U?$pair@$$CBUIndex@?$ofxLiquidEvent@$$CBVValue@Json@@@@V?$function@$$A6AXAEBVValue@Json@@@Z@std@@@std@@@4@$0A@@std@@@std@@QEAAAEAPEAU?$_Tree_node@U?$pair@$$CBUIndex@?$ofxLiquidEvent@$$CBVValue@Json@@@@V?$function@$$A6AXAEBVValue@Json@@@Z@std@@@std@@PEAX@2@XZ
	?_Myhead@?$_Tree_comp_alloc@V?$_Tmap_traits@UIndex@?$ofxLiquidEvent@$$CBVValue@Json@@@@V?$function@$$A6AXAEBVValue@Json@@@Z@std@@U?$less@UIndex@?$ofxLiquidEvent@$$CBVValue@Json@@@@@4@V?$allocator@U?$pair@$$CBUIndex@?$ofxLiquidEvent@$$CBVValue@Json@@@@V?$function@$$A6AXAEBVValue@Json@@@Z@std@@@std@@@4@$0A@@std@@@std@@QEBAAEBQEAU?$_Tree_node@U?$pair@$$CBUIndex@?$ofxLiquidEvent@$$CBVValue@Json@@@@V?$function@$$A6AXAEBVValue@Json@@@Z@std@@@std@@PEAX@2@XZ
	?_Myhead@?$_Tree_comp_alloc@V?$_Tmap_traits@UIndex@?$ofxLiquidEvent@VValue@Json@@@@V?$function@$$A6AXAEAVValue@Json@@@Z@std@@U?$less@UIndex@?$ofxLiquidEvent@VValue@Json@@@@@4@V?$allocator@U?$pair@$$CBUIndex@?$ofxLiquidEvent@VValue@Json@@@@V?$function@$$A6AXAEAVValue@Json@@@Z@std@@@std@@@4@$0A@@std@@@std@@QEAAAEAPEAU?$_Tree_node@U?$pair@$$CBUIndex@?$ofxLiquidEvent@VValue@Json@@@@V?$function@$$A6AXAEAVValue@Json@@@Z@std@@@std@@PEAX@2@XZ
	?_Myhead@?$_Tree_comp_alloc@V?$_Tmap_traits@UIndex@?$ofxLiquidEvent@VValue@Json@@@@V?$function@$$A6AXAEAVValue@Json@@@Z@std@@U?$less@UIndex@?$ofxLiquidEvent@VValue@Json@@@@@4@V?$allocator@U?$pair@$$CBUIndex@?$ofxLiquidEvent@VValue@Json@@@@V?$function@$$A6AXAEAVValue@Json@@@Z@std@@@std@@@4@$0A@@std@@@std@@QEBAAEBQEAU?$_Tree_node@U?$pair@$$CBUIndex@?$ofxLiquidEvent@VValue@Json@@@@V?$function@$$A6AXAEAVValue@Json@@@Z@std@@@std@@PEAX@2@XZ
	?_Mylast@?$_Vector_alloc@U?$_Vec_base_types@DV?$allocator@D@std@@@std@@@std@@QEAAAEAPEADXZ
	?_Mylast@?$_Vector_alloc@U?$_Vec_base_types@V?$basic_string@DU?$char_traits@D@std@@V?$allocator@D@2@@std@@V?$allocator@V?$basic_string@DU?$char_traits@D@std@@V?$allocator@D@2@@std@@@2@@std@@@std@@QEAAAEAPEAV?$basic_string@DU?$char_traits@D@std@@V?$allocator@D@2@@2@XZ
	?_Myoff@?$_Deque_alloc@U?$_Deque_base_types@PEAVValue@Json@@V?$allocator@PEAVValue@Json@@@std@@@std@@@std@@QEAAAEA_KXZ
	?_Myoff@?$_Deque_alloc@U?$_Deque_base_types@PEAVValue@Json@@V?$allocator@PEAVValue@Json@@@std@@@std@@@std@@QEBAAEB_KXZ
	?_Myoff@?$_Deque_alloc@U?$_Deque_base_types@VErrorInfo@Reader@Json@@V?$allocator@VErrorInfo@Reader@Json@@@std@@@std@@@std@@QEAAAEA_KXZ
	?_Myoff@?$_Deque_alloc@U?$_Deque_base_types@VErrorInfo@Reader@Json@@V?$allocator@VErrorInfo@Reader@Json@@@std@@@std@@@std@@QEBAAEB_KXZ
	?_Myproxy@?$_Deque_alloc@U?$_Deque_base_types@PEAVValue@Json@@V?$allocator@PEAVValue@Json@@@std@@@std@@@std@@QEAAAEAPEAU_Container_proxy@2@XZ
	?_Myproxy@?$_Deque_alloc@U?$_Deque_base_types@VErrorInfo@Reader@Json@@V?$allocator@VErrorInfo@Reader@Json@@@std@@@std@@@std@@QEAAAEAPEAU_Container_proxy@2@XZ
	?_Myproxy@?$_String_alloc@U?$_String_base_types@_WV?$allocator@_W@std@@@std@@@std@@QEAAAEAPEAU_Container_proxy@2@XZ
	?_Myproxy@?$_Vector_alloc@U?$_Vec_base_types@DV?$allocator@D@std@@@std@@@std@@QEAAAEAPEAU_Container_proxy@2@XZ
	?_Myproxy@?$_Vector_alloc@U?$_Vec_base_types@V?$basic_string@DU?$char_traits@D@std@@V?$allocator@D@2@@std@@V?$allocator@V?$basic_string@DU?$char_traits@D@std@@V?$allocator@D@2@@std@@@2@@std@@@std@@QEAAAEAPEAU_Container_proxy@2@XZ
	?_Myptr@?$_String_alloc@U?$_String_base_types@_WV?$allocator@_W@std@@@std@@@std@@QEAAPEA_WXZ
	?_Myptr@?$_String_val@U?$_Simple_types@_W@std@@@std@@QEAAPEA_WXZ
	?_Myres@?$_String_alloc@U?$_String_base_types@_WV?$allocator@_W@std@@@std@@@std@@QEAAAEA_KXZ
	?_Mysize@?$_Deque_alloc@U?$_Deque_base_types@PEAVValue@Json@@V?$allocator@PEAVValue@Json@@@std@@@std@@@std@@QEAAAEA_KXZ
	?_Mysize@?$_Deque_alloc@U?$_Deque_base_types@PEAVValue@Json@@V?$allocator@PEAVValue@Json@@@std@@@std@@@std@@QEBAAEB_KXZ
	?_Mysize@?$_Deque_alloc@U?$_Deque_base_types@VErrorInfo@Reader@Json@@V?$allocator@VErrorInfo@Reader@Json@@@std@@@std@@@std@@QEAAAEA_KXZ
	?_Mysize@?$_Deque_alloc@U?$_Deque_base_types@VErrorInfo@Reader@Json@@V?$allocator@VErrorInfo@Reader@Json@@@std@@@std@@@std@@QEBAAEB_KXZ
	?_Mysize@?$_String_alloc@U?$_String_base_types@_WV?$allocator@_W@std@@@std@@@std@@QEAAAEA_KXZ
	?_Myval@?$_Tree_val@U?$_Tree_simple_types@U?$pair@$$CBUIndex@?$ofxLiquidEvent@$$CBVValue@Json@@@@V?$function@$$A6AXAEBVValue@Json@@@Z@std@@@std@@@std@@@std@@SAAEAU?$pair@$$CBUIndex@?$ofxLiquidEvent@$$CBVValue@Json@@@@V?$function@$$A6AXAEBVValue@Json@@@Z@std@@@2@PEAU?$_Tree_node@U?$pair@$$CBUIndex@?$ofxLiquidEvent@$$CBVValue@Json@@@@V?$function@$$A6AXAEBVValue@Json@@@Z@std@@@std@@PEAX@2@@Z
	?_Myval@?$_Tree_val@U?$_Tree_simple_types@U?$pair@$$CBUIndex@?$ofxLiquidEvent@VValue@Json@@@@V?$function@$$A6AXAEAVValue@Json@@@Z@std@@@std@@@std@@@std@@SAAEAU?$pair@$$CBUIndex@?$ofxLiquidEvent@VValue@Json@@@@V?$function@$$A6AXAEAVValue@Json@@@Z@std@@@2@PEAU?$_Tree_node@U?$pair@$$CBUIndex@?$ofxLiquidEvent@VValue@Json@@@@V?$function@$$A6AXAEAVValue@Json@@@Z@std@@@std@@PEAX@2@@Z
	?_Orphan_all@?$_Deque_alloc@U?$_Deque_base_types@PEAVValue@Json@@V?$allocator@PEAVValue@Json@@@std@@@std@@@std@@QEAAXXZ
	?_Orphan_all@?$_Deque_alloc@U?$_Deque_base_types@VErrorInfo@Reader@Json@@V?$allocator@VErrorInfo@Reader@Json@@@std@@@std@@@std@@QEAAXXZ
	?_Orphan_all@?$_String_alloc@U?$_String_base_types@_WV?$allocator@_W@std@@@std@@@std@@QEAAXXZ
	?_Orphan_all@?$_Vector_alloc@U?$_Vec_base_types@DV?$allocator@D@std@@@std@@@std@@QEAAXXZ
	?_Orphan_all@?$_Vector_alloc@U?$_Vec_base_types@V?$basic_string@DU?$char_traits@D@std@@V?$allocator@D@2@@std@@V?$allocator@V?$basic_string@DU?$char_traits@D@std@@V?$allocator@D@2@@std@@@2@@std@@@std@@QEAAXXZ
	?_Orphan_off@?$deque@PEAVValue@Json@@V?$allocator@PEAVValue@Json@@@std@@@std@@IEBAX_K@Z
	?_Orphan_off@?$deque@VErrorInfo@Reader@Json@@V?$allocator@VErrorInfo@Reader@Json@@@std@@@std@@IEBAX_K@Z
	?_Parent@?$_Tree_val@U?$_Tree_simple_types@U?$pair@$$CBUIndex@?$ofxLiquidEvent@$$CBVValue@Json@@@@V?$function@$$A6AXAEBVValue@Json@@@Z@std@@@std@@@std@@@std@@SAAEAPEAU?$_Tree_node@U?$pair@$$CBUIndex@?$ofxLiquidEvent@$$CBVValue@Json@@@@V?$function@$$A6AXAEBVValue@Json@@@Z@std@@@std@@PEAX@2@PEAU32@@Z
	?_Parent@?$_Tree_val@U?$_Tree_simple_types@U?$pair@$$CBUIndex@?$ofxLiquidEvent@VValue@Json@@@@V?$function@$$A6AXAEAVValue@Json@@@Z@std@@@std@@@std@@@std@@SAAEAPEAU?$_Tree_node@U?$pair@$$CBUIndex@?$ofxLiquidEvent@VValue@Json@@@@V?$function@$$A6AXAEAVValue@Json@@@Z@std@@@std@@PEAX@2@PEAU32@@Z
	?_Reset_copy@?$_Func_class@XAEAVValue@Json@@@std@@IEAAXAEBV12@@Z
	?_Reset_copy@?$_Func_class@XAEBVValue@Json@@@std@@IEAAXAEBV12@@Z
	?_Right@?$_Tree_val@U?$_Tree_simple_types@U?$pair@$$CBUIndex@?$ofxLiquidEvent@$$CBVValue@Json@@@@V?$function@$$A6AXAEBVValue@Json@@@Z@std@@@std@@@std@@@std@@SAAEAPEAU?$_Tree_node@U?$pair@$$CBUIndex@?$ofxLiquidEvent@$$CBVValue@Json@@@@V?$function@$$A6AXAEBVValue@Json@@@Z@std@@@std@@PEAX@2@PEAU32@@Z
	?_Right@?$_Tree_val@U?$_Tree_simple_types@U?$pair@$$CBUIndex@?$ofxLiquidEvent@VValue@Json@@@@V?$function@$$A6AXAEAVValue@Json@@@Z@std@@@std@@@std@@@std@@SAAEAPEAU?$_Tree_node@U?$pair@$$CBUIndex@?$ofxLiquidEvent@VValue@Json@@@@V?$function@$$A6AXAEAVValue@Json@@@Z@std@@@std@@PEAX@2@PEAU32@@Z
	?_Set@?$_Func_class@XAEAVValue@Json@@@std@@AEAAXPEAV?$_Func_base@XAEAVValue@Json@@@2@@Z
	?_Set@?$_Func_class@XAEBVValue@Json@@@std@@AEAAXPEAV?$_Func_base@XAEBVValue@Json@@@2@@Z
	?_Tidy@?$_Func_class@XAEAVValue@Json@@@std@@IEAAXXZ
	?_Tidy@?$_Func_class@XAEBVValue@Json@@@std@@IEAAXXZ
	?_Tidy@?$basic_string@_WU?$char_traits@_W@std@@V?$allocator@_W@2@@std@@QEAAX_N_K@Z
	?_Tidy@?$deque@PEAVValue@Json@@V?$allocator@PEAVValue@Json@@@std@@@std@@IEAAXXZ
	?_Tidy@?$deque@VErrorInfo@Reader@Json@@V?$allocator@VErrorInfo@Reader@Json@@@std@@@std@@IEAAXXZ
	?_Tidy@?$vector@DV?$allocator@D@std@@@std@@IEAAXXZ
	?_Tidy@?$vector@V?$basic_string@DU?$char_traits@D@std@@V?$allocator@D@2@@std@@V?$allocator@V?$basic_string@DU?$char_traits@D@std@@V?$allocator@D@2@@std@@@2@@std@@IEAAXXZ
	?_Unchecked@?$_String_iterator@V?$_String_val@U?$_Simple_types@D@std@@@std@@@std@@QEBAPEADXZ
	?__autoclassinit2@?$_Tree_iterator@V?$_Tree_val@U?$_Tree_simple_types@U?$pair@$$CBUIndex@?$ofxLiquidEvent@$$CBVValue@Json@@@@V?$function@$$A6AXAEBVValue@Json@@@Z@std@@@std@@@std@@@std@@@std@@QEAAX_K@Z
	?__autoclassinit2@?$_Tree_iterator@V?$_Tree_val@U?$_Tree_simple_types@U?$pair@$$CBUIndex@?$ofxLiquidEvent@VValue@Json@@@@V?$function@$$A6AXAEAVValue@Json@@@Z@std@@@std@@@std@@@std@@@std@@QEAAX_K@Z
	?__autoclassinit2@Reader@Json@@QEAAX_K@Z
	?__autoclassinit2@StyledWriter@Json@@QEAAX_K@Z
	?__autoclassinit2@Value@Json@@QEAAX_K@Z
	?__autoclassinit2@ofFile@@QEAAX_K@Z
	?append@?$basic_string@DU?$char_traits@D@std@@V?$allocator@D@2@@std@@QEAAAEAV12@AEBV12@@Z
	?append@?$basic_string@DU?$char_traits@D@std@@V?$allocator@D@2@@std@@QEAAAEAV12@AEBV12@_K1@Z
	?append@?$basic_string@DU?$char_traits@D@std@@V?$allocator@D@2@@std@@QEAAAEAV12@PEBD@Z
	?append@?$basic_string@DU?$char_traits@D@std@@V?$allocator@D@2@@std@@QEAAAEAV12@PEBD_K@Z
	?assign@?$basic_string@DU?$char_traits@D@std@@V?$allocator@D@2@@std@@QEAAAEAV12@AEBV12@@Z
	?assign@?$char_traits@_W@std@@SAXAEA_WAEB_W@Z
	?begin@?$_Tree@V?$_Tmap_traits@UIndex@?$ofxLiquidEvent@$$CBVValue@Json@@@@V?$function@$$A6AXAEBVValue@Json@@@Z@std@@U?$less@UIndex@?$ofxLiquidEvent@$$CBVValue@Json@@@@@4@V?$allocator@U?$pair@$$CBUIndex@?$ofxLiquidEvent@$$CBVValue@Json@@@@V?$function@$$A6AXAEBVValue@Json@@@Z@std@@@std@@@4@$0A@@std@@@std@@QEAA?AV?$_Tree_iterator@V?$_Tree_val@U?$_Tree_simple_types@U?$pair@$$CBUIndex@?$ofxLiquidEvent@$$CBVValue@Json@@@@V?$function@$$A6AXAEBVValue@Json@@@Z@std@@@std@@@std@@@std@@@2@XZ
	?begin@?$_Tree@V?$_Tmap_traits@UIndex@?$ofxLiquidEvent@VValue@Json@@@@V?$function@$$A6AXAEAVValue@Json@@@Z@std@@U?$less@UIndex@?$ofxLiquidEvent@VValue@Json@@@@@4@V?$allocator@U?$pair@$$CBUIndex@?$ofxLiquidEvent@VValue@Json@@@@V?$function@$$A6AXAEAVValue@Json@@@Z@std@@@std@@@4@$0A@@std@@@std@@QEAA?AV?$_Tree_iterator@V?$_Tree_val@U?$_Tree_simple_types@U?$pair@$$CBUIndex@?$ofxLiquidEvent@VValue@Json@@@@V?$function@$$A6AXAEAVValue@Json@@@Z@std@@@std@@@std@@@std@@@2@XZ
	?begin@?$basic_string@DU?$char_traits@D@std@@V?$allocator@D@2@@std@@QEAA?AV?$_String_iterator@V?$_String_val@U?$_Simple_types@D@std@@@std@@@2@XZ
	?begin@?$basic_string@DU?$char_traits@D@std@@V?$allocator@D@2@@std@@QEBA?AV?$_String_const_iterator@V?$_String_val@U?$_Simple_types@D@std@@@std@@@2@XZ
	?compare@?$basic_string@DU?$char_traits@D@std@@V?$allocator@D@2@@std@@QEBAHPEBD@Z
	?compare@?$basic_string@DU?$char_traits@D@std@@V?$allocator@D@2@@std@@QEBAH_K0PEBD0@Z
	?compare@?$char_traits@D@std@@SAHPEBD0_K@Z
	?convert@path_traits@filesystem@boost@@YAXPEBD0AEAV?$basic_string@_WU?$char_traits@_W@std@@V?$allocator@_W@2@@std@@@Z
	?copy@?$char_traits@_W@std@@SAPEA_WPEA_WPEB_W_K@Z
	?deallocate@?$_Wrap_alloc@V?$allocator@PEAPEAVValue@Json@@@std@@@std@@QEAAXPEAPEAPEAVValue@Json@@_K@Z
	?deallocate@?$_Wrap_alloc@V?$allocator@PEAVErrorInfo@Reader@Json@@@std@@@std@@QEAAXPEAPEAVErrorInfo@Reader@Json@@_K@Z
	?deallocate@?$_Wrap_alloc@V?$allocator@PEAVValue@Json@@@std@@@std@@QEAAXPEAPEAVValue@Json@@_K@Z
	?deallocate@?$_Wrap_alloc@V?$allocator@V?$basic_string@DU?$char_traits@D@std@@V?$allocator@D@2@@std@@@std@@@std@@QEAAXPEAV?$basic_string@DU?$char_traits@D@std@@V?$allocator@D@2@@2@_K@Z
	?deallocate@?$_Wrap_alloc@V?$allocator@VErrorInfo@Reader@Json@@@std@@@std@@QEAAXPEAVErrorInfo@Reader@Json@@_K@Z
	?deallocate@?$_Wrap_alloc@V?$allocator@_W@std@@@std@@QEAAXPEA_W_K@Z
	?deallocate@?$allocator@PEAPEAVValue@Json@@@std@@QEAAXPEAPEAPEAVValue@Json@@_K@Z
	?deallocate@?$allocator@PEAVErrorInfo@Reader@Json@@@std@@QEAAXPEAPEAVErrorInfo@Reader@Json@@_K@Z
	?deallocate@?$allocator@PEAVValue@Json@@@std@@QEAAXPEAPEAVValue@Json@@_K@Z
	?deallocate@?$allocator@V?$basic_string@DU?$char_traits@D@std@@V?$allocator@D@2@@std@@@std@@QEAAXPEAV?$basic_string@DU?$char_traits@D@std@@V?$allocator@D@2@@2@_K@Z
	?deallocate@?$allocator@VErrorInfo@Reader@Json@@@std@@QEAAXPEAVErrorInfo@Reader@Json@@_K@Z
	?deallocate@?$allocator@_W@std@@QEAAXPEA_W_K@Z
	?deserialize@Serializable@Utils@ofxRulr@@QEAAXAEBVValue@Json@@@Z
	?deserialize@Serializable@Utils@ofxRulr@@SAXAEAV?$ofParameter@H@@AEBVValue@Json@@@Z
	?deserialize@Serializable@Utils@ofxRulr@@SAXAEAV?$ofParameter@M@@AEBVValue@Json@@@Z
	?deserialize@Serializable@Utils@ofxRulr@@SAXAEAV?$ofParameter@V?$basic_string@DU?$char_traits@D@std@@V?$allocator@D@2@@std@@@@AEBVValue@Json@@@Z
	?deserialize@Serializable@Utils@ofxRulr@@SAXAEAV?$ofParameter@_N@@AEBVValue@Json@@@Z
	?empty@?$deque@PEAVValue@Json@@V?$allocator@PEAVValue@Json@@@std@@@std@@QEBA_NXZ
	?empty@?$deque@VErrorInfo@Reader@Json@@V?$allocator@VErrorInfo@Reader@Json@@@std@@@std@@QEBA_NXZ
	?end@?$_Tree@V?$_Tmap_traits@UIndex@?$ofxLiquidEvent@$$CBVValue@Json@@@@V?$function@$$A6AXAEBVValue@Json@@@Z@std@@U?$less@UIndex@?$ofxLiquidEvent@$$CBVValue@Json@@@@@4@V?$allocator@U?$pair@$$CBUIndex@?$ofxLiquidEvent@$$CBVValue@Json@@@@V?$function@$$A6AXAEBVValue@Json@@@Z@std@@@std@@@4@$0A@@std@@@std@@QEAA?AV?$_Tree_iterator@V?$_Tree_val@U?$_Tree_simple_types@U?$pair@$$CBUIndex@?$ofxLiquidEvent@$$CBVValue@Json@@@@V?$function@$$A6AXAEBVValue@Json@@@Z@std@@@std@@@std@@@std@@@2@XZ
	?end@?$_Tree@V?$_Tmap_traits@UIndex@?$ofxLiquidEvent@VValue@Json@@@@V?$function@$$A6AXAEAVValue@Json@@@Z@std@@U?$less@UIndex@?$ofxLiquidEvent@VValue@Json@@@@@4@V?$allocator@U?$pair@$$CBUIndex@?$ofxLiquidEvent@VValue@Json@@@@V?$function@$$A6AXAEAVValue@Json@@@Z@std@@@std@@@4@$0A@@std@@@std@@QEAA?AV?$_Tree_iterator@V?$_Tree_val@U?$_Tree_simple_types@U?$pair@$$CBUIndex@?$ofxLiquidEvent@VValue@Json@@@@V?$function@$$A6AXAEAVValue@Json@@@Z@std@@@std@@@std@@@std@@@2@XZ
	?end@?$basic_string@DU?$char_traits@D@std@@V?$allocator@D@2@@std@@QEAA?AV?$_String_iterator@V?$_String_val@U?$_Simple_types@D@std@@@std@@@2@XZ
	?get@?$ofParameter@H@@QEBAAEBHXZ
	?get@?$ofParameter@M@@QEBAAEBMXZ
	?get@?$ofParameter@V?$basic_string@DU?$char_traits@D@std@@V?$allocator@D@2@@std@@@@QEBAAEBV?$basic_string@DU?$char_traits@D@std@@V?$allocator@D@2@@std@@XZ
	?get@?$ofParameter@_N@@QEBAAEB_NXZ
	?getDefaultFilename@Serializable@Utils@ofxRulr@@QEBA?AV?$basic_string@DU?$char_traits@D@std@@V?$allocator@D@2@@std@@XZ
	?getName@Serializable@Utils@ofxRulr@@UEBA?AV?$basic_string@DU?$char_traits@D@std@@V?$allocator@D@2@@std@@XZ
	?insert@?$basic_string@DU?$char_traits@D@std@@V?$allocator@D@2@@std@@QEAAAEAV12@_KAEBV12@00@Z
	?insert@?$basic_string@DU?$char_traits@D@std@@V?$allocator@D@2@@std@@QEAAAEAV12@_KPEBD0@Z
	?insert@?$basic_string@DU?$char_traits@D@std@@V?$allocator@D@2@@std@@QEAAAEAV12@_KPEBD@Z
	?load@Serializable@Utils@ofxRulr@@QEAAXV?$basic_string@DU?$char_traits@D@std@@V?$allocator@D@2@@std@@@Z
	?notifyListeners@?$ofxLiquidEvent@$$CBVValue@Json@@@@QEAAXAEBVValue@Json@@@Z
	?notifyListeners@?$ofxLiquidEvent@VValue@Json@@@@QEAAXAEAVValue@Json@@@Z
	?pop_back@?$deque@PEAVValue@Json@@V?$allocator@PEAVValue@Json@@@std@@@std@@QEAAXXZ
	?pop_back@?$deque@VErrorInfo@Reader@Json@@V?$allocator@VErrorInfo@Reader@Json@@@std@@@std@@QEAAXXZ
	?reserve@?$basic_string@DU?$char_traits@D@std@@V?$allocator@D@2@@std@@QEAAX_K@Z
	?save@Serializable@Utils@ofxRulr@@QEAAXV?$basic_string@DU?$char_traits@D@std@@V?$allocator@D@2@@std@@@Z
	?serialize@Serializable@Utils@ofxRulr@@QEAAXAEAVValue@Json@@@Z
	?serialize@Serializable@Utils@ofxRulr@@SAXAEBV?$ofParameter@H@@AEAVValue@Json@@@Z
	?serialize@Serializable@Utils@ofxRulr@@SAXAEBV?$ofParameter@M@@AEAVValue@Json@@@Z
	?serialize@Serializable@Utils@ofxRulr@@SAXAEBV?$ofParameter@V?$basic_string@DU?$char_traits@D@std@@V?$allocator@D@2@@std@@@@AEAVValue@Json@@@Z
	?serialize@Serializable@Utils@ofxRulr@@SAXAEBV?$ofParameter@_N@@AEAVValue@Json@@@Z
	?set@?$ofParameter@H@@QEAAAEAV1@AEBH@Z
	?set@?$ofParameter@M@@QEAAAEAV1@AEBM@Z
	?set@?$ofParameter@V?$basic_string@DU?$char_traits@D@std@@V?$allocator@D@2@@std@@@@QEAAAEAV1@AEBV?$basic_string@DU?$char_traits@D@std@@V?$allocator@D@2@@std@@@Z
	?set@?$ofParameter@_N@@QEAAAEAV1@AEB_N@Z
	wmemcpy
	??$?0$$V@?$_Ref_count_obj@VSoundEngine@Utils@ofxRulr@@@std@@QEAA@XZ
	??$?0AEAPEAV?$tuple@V<lambda_79878afa15135556c38ad5c1a6013df8>@@@std@@@?$_Compressed_pair@U?$default_delete@V?$tuple@V<lambda_79878afa15135556c38ad5c1a6013df8>@@@std@@@std@@PEAV?$tuple@V<lambda_79878afa15135556c38ad5c1a6013df8>@@@2@$00@std@@QEAA@U_Zero_then_variadic_args_t@1@AEAPEAV?$tuple@V<lambda_79878afa15135556c38ad5c1a6013df8>@@@1@@Z
	??$?0PEAV?$tuple@V<lambda_79878afa15135556c38ad5c1a6013df8>@@@std@@@?$_Unique_ptr_base@V?$tuple@V<lambda_79878afa15135556c38ad5c1a6013df8>@@@std@@U?$default_delete@V?$tuple@V<lambda_79878afa15135556c38ad5c1a6013df8>@@@std@@@2@@std@@QEAA@PEAV?$tuple@V<lambda_79878afa15135556c38ad5c1a6013df8>@@@1@@Z
	??$?0PEAV?$tuple@V<lambda_79878afa15135556c38ad5c1a6013df8>@@@std@@U?$default_delete@V?$tuple@V<lambda_79878afa15135556c38ad5c1a6013df8>@@@std@@@1@@?$_Unique_ptr_base@V?$tuple@V<lambda_79878afa15135556c38ad5c1a6013df8>@@@std@@U?$default_delete@V?$tuple@V<lambda_79878afa15135556c38ad5c1a6013df8>@@@std@@@2@@std@@QEAA@PEAV?$tuple@V<lambda_79878afa15135556c38ad5c1a6013df8>@@@1@$$QEAU?$default_delete@V?$tuple@V<lambda_79878afa15135556c38ad5c1a6013df8>@@@std@@@1@@Z
	??$?0U?$default_delete@V?$tuple@V<lambda_79878afa15135556c38ad5c1a6013df8>@@@std@@@std@@AEAPEAV?$tuple@V<lambda_79878afa15135556c38ad5c1a6013df8>@@@1@@?$_Compressed_pair@U?$default_delete@V?$tuple@V<lambda_79878afa15135556c38ad5c1a6013df8>@@@std@@@std@@PEAV?$tuple@V<lambda_79878afa15135556c38ad5c1a6013df8>@@@2@$00@std@@QEAA@U_One_then_variadic_args_t@1@$$QEAU?$default_delete@V?$tuple@V<lambda_79878afa15135556c38ad5c1a6013df8>@@@std@@@1@AEAPEAV?$tuple@V<lambda_79878afa15135556c38ad5c1a6013df8>@@@1@@Z
	??$?0V<lambda_79878afa15135556c38ad5c1a6013df8>@@$$VPEAPEAX@?$tuple@V<lambda_79878afa15135556c38ad5c1a6013df8>@@@std@@QEAA@$$QEAV<lambda_79878afa15135556c38ad5c1a6013df8>@@@Z
	??$?0V<lambda_79878afa15135556c38ad5c1a6013df8>@@$$VX@thread@std@@QEAA@$$QEAV<lambda_79878afa15135556c38ad5c1a6013df8>@@@Z
	??$?0V<lambda_79878afa15135556c38ad5c1a6013df8>@@@?$_Tuple_val@V<lambda_79878afa15135556c38ad5c1a6013df8>@@@std@@QEAA@$$QEAV<lambda_79878afa15135556c38ad5c1a6013df8>@@@Z
	??$?0V?$unique_ptr@V?$tuple@V<lambda_79878afa15135556c38ad5c1a6013df8>@@@std@@U?$default_delete@V?$tuple@V<lambda_79878afa15135556c38ad5c1a6013df8>@@@std@@@2@@std@@@?$_LaunchPad@V?$unique_ptr@V?$tuple@V<lambda_79878afa15135556c38ad5c1a6013df8>@@@std@@U?$default_delete@V?$tuple@V<lambda_79878afa15135556c38ad5c1a6013df8>@@@std@@@2@@std@@@std@@QEAA@$$QEAV?$unique_ptr@V?$tuple@V<lambda_79878afa15135556c38ad5c1a6013df8>@@@std@@U?$default_delete@V?$tuple@V<lambda_79878afa15135556c38ad5c1a6013df8>@@@std@@@2@@1@@Z
	??$_Call@V<lambda_79878afa15135556c38ad5c1a6013df8>@@$$V@_Invoker_functor@std@@SAX$$QEAV<lambda_79878afa15135556c38ad5c1a6013df8>@@@Z
	??$_Execute@$0A@@?$_LaunchPad@V?$unique_ptr@V?$tuple@V<lambda_79878afa15135556c38ad5c1a6013df8>@@@std@@U?$default_delete@V?$tuple@V<lambda_79878afa15135556c38ad5c1a6013df8>@@@std@@@2@@std@@@std@@CAXAEAV?$tuple@V<lambda_79878afa15135556c38ad5c1a6013df8>@@@1@U?$integer_sequence@_K$0A@@1@@Z
	??$_Launch@V?$unique_ptr@V?$tuple@V<lambda_79878afa15135556c38ad5c1a6013df8>@@@std@@U?$default_delete@V?$tuple@V<lambda_79878afa15135556c38ad5c1a6013df8>@@@std@@@2@@std@@@std@@YAXPEAU_Thrd_imp_t@@$$QEAV?$unique_ptr@V?$tuple@V<lambda_79878afa15135556c38ad5c1a6013df8>@@@std@@U?$default_delete@V?$tuple@V<lambda_79878afa15135556c38ad5c1a6013df8>@@@std@@@2@@0@@Z
	??$_Move@AEAPEAVSoundEngine@Utils@ofxRulr@@@std@@YA$$QEAPEAVSoundEngine@Utils@ofxRulr@@AEAPEAV123@@Z
	??$_Reset@VSoundEngine@Utils@ofxRulr@@@?$_Ptr_base@VSoundEngine@Utils@ofxRulr@@@std@@QEAAXAEBV01@@Z
	??$_Resetp0@VSoundEngine@Utils@ofxRulr@@@?$shared_ptr@VSoundEngine@Utils@ofxRulr@@@std@@QEAAXPEAVSoundEngine@Utils@ofxRulr@@PEAV_Ref_count_base@1@@Z
	??$forward@AEAPEAV?$tuple@V<lambda_79878afa15135556c38ad5c1a6013df8>@@@std@@@std@@YAAEAPEAV?$tuple@V<lambda_79878afa15135556c38ad5c1a6013df8>@@@0@AEAPEAV10@@Z
	??$forward@U?$default_delete@V?$tuple@V<lambda_79878afa15135556c38ad5c1a6013df8>@@@std@@@std@@@std@@YA$$QEAU?$default_delete@V?$tuple@V<lambda_79878afa15135556c38ad5c1a6013df8>@@@std@@@0@AEAU10@@Z
	??$forward@V<lambda_79878afa15135556c38ad5c1a6013df8>@@@std@@YA$$QEAV<lambda_79878afa15135556c38ad5c1a6013df8>@@AEAV1@@Z
	??$forward@V?$unique_ptr@V?$tuple@V<lambda_79878afa15135556c38ad5c1a6013df8>@@@std@@U?$default_delete@V?$tuple@V<lambda_79878afa15135556c38ad5c1a6013df8>@@@std@@@2@@std@@@std@@YA$$QEAV?$unique_ptr@V?$tuple@V<lambda_79878afa15135556c38ad5c1a6013df8>@@@std@@U?$default_delete@V?$tuple@V<lambda_79878afa15135556c38ad5c1a6013df8>@@@std@@@2@@0@AEAV10@@Z
	??$get@$0A@V<lambda_79878afa15135556c38ad5c1a6013df8>@@@std@@YAAEAV<lambda_79878afa15135556c38ad5c1a6013df8>@@AEAV?$tuple@V<lambda_79878afa15135556c38ad5c1a6013df8>@@@0@@Z
	??$invoke@V<lambda_79878afa15135556c38ad5c1a6013df8>@@$$V@std@@YAX$$QEAV<lambda_79878afa15135556c38ad5c1a6013df8>@@@Z
	??$make_shared@VSoundEngine@Utils@ofxRulr@@$$V@std@@YA?AV?$shared_ptr@VSoundEngine@Utils@ofxRulr@@@0@XZ
	??$make_unique@V?$tuple@V<lambda_79878afa15135556c38ad5c1a6013df8>@@@std@@V<lambda_79878afa15135556c38ad5c1a6013df8>@@@std@@YA?AV?$unique_ptr@V?$tuple@V<lambda_79878afa15135556c38ad5c1a6013df8>@@@std@@U?$default_delete@V?$tuple@V<lambda_79878afa15135556c38ad5c1a6013df8>@@@std@@@2@@0@$$QEAV<lambda_79878afa15135556c38ad5c1a6013df8>@@@Z
	??$move@AEAV<lambda_79878afa15135556c38ad5c1a6013df8>@@@std@@YA$$QEAV<lambda_79878afa15135556c38ad5c1a6013df8>@@AEAV1@@Z
	??$move@AEAV?$shared_ptr@VSoundEngine@Utils@ofxRulr@@@std@@@std@@YA$$QEAV?$shared_ptr@VSoundEngine@Utils@ofxRulr@@@0@AEAV10@@Z
	??$swap@PEAVSoundEngine@Utils@ofxRulr@@@std@@YAXAEAPEAVSoundEngine@Utils@ofxRulr@@0@Z
	??0?$_Ptr_base@VSoundEngine@Utils@ofxRulr@@@std@@QEAA@$$QEAV01@@Z
	??0?$shared_ptr@VSoundEngine@Utils@ofxRulr@@@std@@QEAA@$$QEAV01@@Z
	??0?$shared_ptr@VSoundEngine@Utils@ofxRulr@@@std@@QEAA@AEBV01@@Z
	??0?$tuple@$$V@std@@QEAA@XZ
	??0?$unique_ptr@V?$tuple@V<lambda_79878afa15135556c38ad5c1a6013df8>@@@std@@U?$default_delete@V?$tuple@V<lambda_79878afa15135556c38ad5c1a6013df8>@@@std@@@2@@std@@QEAA@$$QEAV01@@Z
	??0?$unique_ptr@V?$tuple@V<lambda_79878afa15135556c38ad5c1a6013df8>@@@std@@U?$default_delete@V?$tuple@V<lambda_79878afa15135556c38ad5c1a6013df8>@@@std@@@2@@std@@QEAA@PEAV?$tuple@V<lambda_79878afa15135556c38ad5c1a6013df8>@@@1@@Z
	??0ScopedProcess@Utils@ofxRulr@@QEAA@AEBV?$basic_string@DU?$char_traits@D@std@@V?$allocator@D@2@@std@@@Z
	??0_Auto_cnd@std@@QEAA@PEAU_Cnd_internal_imp_t@@@Z
	??0_Auto_mtx@std@@QEAA@PEAU_Mtx_internal_imp_t@@@Z
	??0_Pad@std@@QEAA@XZ
	??0id@thread@std@@AEAA@I@Z
	??0thread@std@@QEAA@XZ
	??1?$_LaunchPad@V?$unique_ptr@V?$tuple@V<lambda_79878afa15135556c38ad5c1a6013df8>@@@std@@U?$default_delete@V?$tuple@V<lambda_79878afa15135556c38ad5c1a6013df8>@@@std@@@2@@std@@@std@@QEAA@XZ
	??1?$_Ref_count_obj@VSoundEngine@Utils@ofxRulr@@@std@@UEAA@XZ
	??1?$unique_ptr@V?$tuple@V<lambda_79878afa15135556c38ad5c1a6013df8>@@@std@@U?$default_delete@V?$tuple@V<lambda_79878afa15135556c38ad5c1a6013df8>@@@std@@@2@@std@@QEAA@XZ
	??1ScopedProcess@Utils@ofxRulr@@QEAA@XZ
	??1_Auto_cnd@std@@QEAA@XZ
	??1_Auto_mtx@std@@QEAA@XZ
	??1_Pad@std@@QEAA@XZ
	??1thread@std@@QEAA@XZ
	??4?$shared_ptr@VSoundEngine@Utils@ofxRulr@@@std@@QEAAAEAV01@$$QEAV01@@Z
	??4thread@std@@QEAAAEAV01@$$QEAV01@@Z
	??8std@@YA_NVid@thread@0@0@Z
	??B?$shared_ptr@VSoundEngine@Utils@ofxRulr@@@std@@QEBA_NXZ
	??D?$shared_ptr@VSoundEngine@Utils@ofxRulr@@@std@@QEBAAEAVSoundEngine@Utils@ofxRulr@@XZ
	??D?$unique_ptr@V?$tuple@V<lambda_79878afa15135556c38ad5c1a6013df8>@@@std@@U?$default_delete@V?$tuple@V<lambda_79878afa15135556c38ad5c1a6013df8>@@@std@@@2@@std@@QEBAAEAV?$tuple@V<lambda_79878afa15135556c38ad5c1a6013df8>@@@1@XZ
	??R?$default_delete@V?$tuple@V<lambda_79878afa15135556c38ad5c1a6013df8>@@@std@@@std@@QEBAXPEAV?$tuple@V<lambda_79878afa15135556c38ad5c1a6013df8>@@@1@@Z
	??_7?$_LaunchPad@V?$unique_ptr@V?$tuple@V<lambda_79878afa15135556c38ad5c1a6013df8>@@@std@@U?$default_delete@V?$tuple@V<lambda_79878afa15135556c38ad5c1a6013df8>@@@std@@@2@@std@@@std@@6B@
	??_7?$_Ref_count_obj@VSoundEngine@Utils@ofxRulr@@@std@@6B@
	??_7_Pad@std@@6B@
	??_C@_0BB@FFHGJDLB@ofxRulr?3?3failure?$AA@
	??_C@_0BB@JMDECIOL@ofxRulr?3?3success?$AA@
	??_C@_0O@MMBOIHBD@ofxRulr?3?3idle?$AA@
	??_C@_0P@OGIPDIPM@ofxRulr?3?3start?$AA@
	??_G?$_Ref_count_obj@VSoundEngine@Utils@ofxRulr@@@std@@UEAAPEAXI@Z
	??_R0?AV?$_LaunchPad@V?$unique_ptr@V?$tuple@V<lambda_79878afa15135556c38ad5c1a6013df8>@@@std@@U?$default_delete@V?$tuple@V<lambda_79878afa15135556c38ad5c1a6013df8>@@@std@@@2@@std@@@std@@@8
	??_R0?AV?$_Ref_count_obj@VSoundEngine@Utils@ofxRulr@@@std@@@8
	??_R0?AV_Pad@std@@@8
	??_R1A@?0A@EA@?$_LaunchPad@V?$unique_ptr@V?$tuple@V<lambda_79878afa15135556c38ad5c1a6013df8>@@@std@@U?$default_delete@V?$tuple@V<lambda_79878afa15135556c38ad5c1a6013df8>@@@std@@@2@@std@@@std@@8
	??_R1A@?0A@EA@?$_Ref_count_obj@VSoundEngine@Utils@ofxRulr@@@std@@8
	??_R1A@?0A@EA@_Pad@std@@8
	??_R2?$_LaunchPad@V?$unique_ptr@V?$tuple@V<lambda_79878afa15135556c38ad5c1a6013df8>@@@std@@U?$default_delete@V?$tuple@V<lambda_79878afa15135556c38ad5c1a6013df8>@@@std@@@2@@std@@@std@@8
	??_R2?$_Ref_count_obj@VSoundEngine@Utils@ofxRulr@@@std@@8
	??_R2_Pad@std@@8
	??_R3?$_LaunchPad@V?$unique_ptr@V?$tuple@V<lambda_79878afa15135556c38ad5c1a6013df8>@@@std@@U?$default_delete@V?$tuple@V<lambda_79878afa15135556c38ad5c1a6013df8>@@@std@@@2@@std@@@std@@8
	??_R3?$_Ref_count_obj@VSoundEngine@Utils@ofxRulr@@@std@@8
	??_R3_Pad@std@@8
	??_R4?$_LaunchPad@V?$unique_ptr@V?$tuple@V<lambda_79878afa15135556c38ad5c1a6013df8>@@@std@@U?$default_delete@V?$tuple@V<lambda_79878afa15135556c38ad5c1a6013df8>@@@std@@@2@@std@@@std@@6B@
	??_R4?$_Ref_count_obj@VSoundEngine@Utils@ofxRulr@@@std@@6B@
	??_R4_Pad@std@@6B@
	?X@?$Singleton@VSoundEngine@Utils@ofxRulr@@@ofxSingleton@@SAAEAVSoundEngine@Utils@ofxRulr@@XZ
	?_Call_func@_Pad@std@@CAIPEAX@Z
	?_Cnd_initX@std@@YAHPEAPEAU_Cnd_internal_imp_t@@@Z
	?_Cnd_signalX@std@@YAHPEAU_Cnd_internal_imp_t@@@Z
	?_Cnd_waitX@std@@YAHPEAU_Cnd_internal_imp_t@@PEAU_Mtx_internal_imp_t@@@Z
	?_Delete_this@?$_Ref_count_obj@VSoundEngine@Utils@ofxRulr@@@std@@EEAAXXZ
	?_Destroy@?$_Ref_count_obj@VSoundEngine@Utils@ofxRulr@@@std@@EEAAXXZ
	?_Get@?$_Ptr_base@VSoundEngine@Utils@ofxRulr@@@std@@QEBAPEAVSoundEngine@Utils@ofxRulr@@XZ
	?_Get_first@?$_Compressed_pair@U?$default_delete@V?$tuple@V<lambda_79878afa15135556c38ad5c1a6013df8>@@@std@@@std@@PEAV?$tuple@V<lambda_79878afa15135556c38ad5c1a6013df8>@@@2@$00@std@@QEAAAEAU?$default_delete@V?$tuple@V<lambda_79878afa15135556c38ad5c1a6013df8>@@@std@@@2@XZ
	?_Get_second@?$_Compressed_pair@U?$default_delete@V?$tuple@V<lambda_79878afa15135556c38ad5c1a6013df8>@@@std@@@std@@PEAV?$tuple@V<lambda_79878afa15135556c38ad5c1a6013df8>@@@2@$00@std@@QEAAAEAPEAV?$tuple@V<lambda_79878afa15135556c38ad5c1a6013df8>@@@2@XZ
	?_Get_second@?$_Compressed_pair@U?$default_delete@V?$tuple@V<lambda_79878afa15135556c38ad5c1a6013df8>@@@std@@@std@@PEAV?$tuple@V<lambda_79878afa15135556c38ad5c1a6013df8>@@@2@$00@std@@QEBAAEBQEAV?$tuple@V<lambda_79878afa15135556c38ad5c1a6013df8>@@@2@XZ
	?_Getptr@?$_Ref_count_obj@VSoundEngine@Utils@ofxRulr@@@std@@QEBAPEAVSoundEngine@Utils@ofxRulr@@XZ
	?_Go@?$_LaunchPad@V?$unique_ptr@V?$tuple@V<lambda_79878afa15135556c38ad5c1a6013df8>@@@std@@U?$default_delete@V?$tuple@V<lambda_79878afa15135556c38ad5c1a6013df8>@@@std@@@2@@std@@@std@@UEAAXXZ
	?_Launch@_Pad@std@@QEAAXPEAU_Thrd_imp_t@@@Z
	?_Move_thread@thread@std@@AEAAAEAV12@AEAV12@@Z
	?_Mtx_initX@std@@YAHPEAPEAU_Mtx_internal_imp_t@@H@Z
	?_Myptr@?$_Unique_ptr_base@V?$tuple@V<lambda_79878afa15135556c38ad5c1a6013df8>@@@std@@U?$default_delete@V?$tuple@V<lambda_79878afa15135556c38ad5c1a6013df8>@@@std@@@2@@std@@QEAAAEAPEAV?$tuple@V<lambda_79878afa15135556c38ad5c1a6013df8>@@@2@XZ
	?_Myptr@?$_Unique_ptr_base@V?$tuple@V<lambda_79878afa15135556c38ad5c1a6013df8>@@@std@@U?$default_delete@V?$tuple@V<lambda_79878afa15135556c38ad5c1a6013df8>@@@std@@@2@@std@@QEBAAEBQEAV?$tuple@V<lambda_79878afa15135556c38ad5c1a6013df8>@@@2@XZ
	?_Release@_Auto_cnd@std@@QEAAXXZ
	?_Release@_Auto_mtx@std@@QEAAXXZ
	?_Release@_Pad@std@@QEAAXXZ
	?_Reset0@?$_Ptr_base@VSoundEngine@Utils@ofxRulr@@@std@@QEAAXPEAVSoundEngine@Utils@ofxRulr@@PEAV_Ref_count_base@2@@Z
	?_Reset@?$_Ptr_base@VSoundEngine@Utils@ofxRulr@@@std@@QEAAXPEAVSoundEngine@Utils@ofxRulr@@PEAV_Ref_count_base@2@@Z
	?_Run@?$_LaunchPad@V?$unique_ptr@V?$tuple@V<lambda_79878afa15135556c38ad5c1a6013df8>@@@std@@U?$default_delete@V?$tuple@V<lambda_79878afa15135556c38ad5c1a6013df8>@@@std@@@2@@std@@@std@@CAXPEAV12@@Z
	?_Swap@?$_Ptr_base@VSoundEngine@Utils@ofxRulr@@@std@@QEAAXAEAV12@@Z
	?_Thrd_startX@std@@YAHPEAU_Thrd_imp_t@@P6AIPEAX@Z1@Z
	?__autoclassinit2@?$_LaunchPad@V?$unique_ptr@V?$tuple@V<lambda_79878afa15135556c38ad5c1a6013df8>@@@std@@U?$default_delete@V?$tuple@V<lambda_79878afa15135556c38ad5c1a6013df8>@@@std@@@2@@std@@@std@@QEAAX_K@Z
	?__autoclassinit2@?$shared_ptr@VSoundEngine@Utils@ofxRulr@@@std@@QEAAX_K@Z
	?__autoclassinit2@?$unique_ptr@V?$tuple@V<lambda_79878afa15135556c38ad5c1a6013df8>@@@std@@U?$default_delete@V?$tuple@V<lambda_79878afa15135556c38ad5c1a6013df8>@@@std@@@2@@std@@QEAAX_K@Z
	?__autoclassinit2@_Auto_cnd@std@@QEAAX_K@Z
	?__autoclassinit2@_Auto_mtx@std@@QEAAX_K@Z
	?end@ScopedProcess@Utils@ofxRulr@@QEAAX_N@Z
	?get@?$unique_ptr@V?$tuple@V<lambda_79878afa15135556c38ad5c1a6013df8>@@@std@@U?$default_delete@V?$tuple@V<lambda_79878afa15135556c38ad5c1a6013df8>@@@std@@@2@@std@@QEBAPEAV?$tuple@V<lambda_79878afa15135556c38ad5c1a6013df8>@@@2@XZ
	?getInstance@SingletonStore@?$Singleton@VSoundEngine@Utils@ofxRulr@@@ofxSingleton@@QEAA?AV?$shared_ptr@VSoundEngine@Utils@ofxRulr@@@std@@XZ
	?get_deleter@?$_Unique_ptr_base@V?$tuple@V<lambda_79878afa15135556c38ad5c1a6013df8>@@@std@@U?$default_delete@V?$tuple@V<lambda_79878afa15135556c38ad5c1a6013df8>@@@std@@@2@@std@@QEAAAEAU?$default_delete@V?$tuple@V<lambda_79878afa15135556c38ad5c1a6013df8>@@@std@@@2@XZ
	?get_id@this_thread@std@@YA?AVid@thread@2@XZ
	?get_id@thread@std@@QEBA?AVid@12@XZ
	?join@thread@std@@QEAAXXZ
	?joinable@thread@std@@QEBA_NXZ
	?release@?$unique_ptr@V?$tuple@V<lambda_79878afa15135556c38ad5c1a6013df8>@@@std@@U?$default_delete@V?$tuple@V<lambda_79878afa15135556c38ad5c1a6013df8>@@@std@@@2@@std@@QEAAPEAV?$tuple@V<lambda_79878afa15135556c38ad5c1a6013df8>@@@2@XZ
	?swap@?$shared_ptr@VSoundEngine@Utils@ofxRulr@@@std@@QEAAXAEAV12@@Z
	??$?0AEBV?$allocator@M@std@@$$V@?$_Compressed_pair@U?$_Wrap_alloc@V?$allocator@M@std@@@std@@V?$_Vector_val@U?$_Simple_types@M@std@@@2@$00@std@@QEAA@U_One_then_variadic_args_t@1@AEBV?$allocator@M@1@@Z
	??$?0M@?$allocator@U_Container_proxy@std@@@std@@QEAA@AEBV?$allocator@M@1@@Z
	??$?0U?$_Wrap_alloc@V?$allocator@M@std@@@std@@@?$_Wrap_alloc@V?$allocator@U_Container_proxy@std@@@std@@@std@@QEAA@AEAU?$_Wrap_alloc@V?$allocator@M@std@@@1@@Z
	??$?0V?$allocator@M@std@@$$V@?$_Compressed_pair@U?$_Wrap_alloc@V?$allocator@M@std@@@std@@V?$_Vector_val@U?$_Simple_types@M@std@@@2@$00@std@@QEAA@U_One_then_variadic_args_t@1@$$QEAV?$allocator@M@1@@Z
	??$?8MM@std@@YA_NAEBV?$allocator@M@0@0@Z
	??$?8V?$allocator@M@std@@V01@@std@@YA_NAEBU?$_Wrap_alloc@V?$allocator@M@std@@@0@0@Z
	??$?9V?$allocator@M@std@@V01@@std@@YA_NAEBU?$_Wrap_alloc@V?$allocator@M@std@@@0@0@Z
	??$_Addressof@$$CBM@std@@YAPEBMAEBMU?$integral_constant@_N$0A@@0@@Z
	??$_Copy_impl@PEAMPEAM@std@@YAPEAMPEAM00@Z
	??$_Copy_impl@PEAMPEAM@std@@YAPEAMPEAM00U_Scalar_ptr_iterator_tag@0@@Z
	??$_Debug_pointer@$$CBM@std@@YAXPEBMPEB_WI@Z
	??$_Debug_pointer@M@std@@YAXPEAMPEB_WI@Z
	??$_Debug_pointer@V<lambda_72b5c7a20b88090cbd6c706ba109b10a>@@@std@@YAXAEAV<lambda_72b5c7a20b88090cbd6c706ba109b10a>@@PEB_WI@Z
	??$_Debug_pointer@V?$_Vector_iterator@V?$_Vector_val@U?$_Simple_types@M@std@@@std@@@std@@@std@@YAXAEAV?$_Vector_iterator@V?$_Vector_val@U?$_Simple_types@M@std@@@std@@@0@PEB_WI@Z
	??$_Debug_range_ptr2@PEAMPEAM@std@@YAXPEAM0AEAPEAMPEB_WIUrandom_access_iterator_tag@0@@Z
	??$_Debug_range_ptr2@PEBMPEAM@std@@YAXPEBM0AEAPEAMPEB_WIUrandom_access_iterator_tag@0@@Z
	??$_Debug_range_ptr2@V?$_Vector_iterator@V?$_Vector_val@U?$_Simple_types@M@std@@@std@@@std@@V<lambda_72b5c7a20b88090cbd6c706ba109b10a>@@@std@@YAXV?$_Vector_iterator@V?$_Vector_val@U?$_Simple_types@M@std@@@std@@@0@0AEAV<lambda_72b5c7a20b88090cbd6c706ba109b10a>@@PEB_WIUrandom_access_iterator_tag@0@@Z
	??$_Debug_range_ptr@PEAMPEAM@std@@YAXPEAM0AEAPEAMPEB_WI@Z
	??$_Debug_range_ptr@PEBMPEAM@std@@YAXPEBM0AEAPEAMPEB_WI@Z
	??$_Debug_range_ptr@V?$_Vector_iterator@V?$_Vector_val@U?$_Simple_types@M@std@@@std@@@std@@V<lambda_72b5c7a20b88090cbd6c706ba109b10a>@@@std@@YAXV?$_Vector_iterator@V?$_Vector_val@U?$_Simple_types@M@std@@@std@@@0@0AEAV<lambda_72b5c7a20b88090cbd6c706ba109b10a>@@PEB_WI@Z
	??$_Destroy_range@U?$_Wrap_alloc@V?$allocator@M@std@@@std@@@std@@YAXPEAM0AEAU?$_Wrap_alloc@V?$allocator@M@std@@@0@@Z
	??$_Destroy_range@U?$_Wrap_alloc@V?$allocator@M@std@@@std@@@std@@YAXPEAM0AEAU?$_Wrap_alloc@V?$allocator@M@std@@@0@U_Scalar_ptr_iterator_tag@0@@Z
	??$_Fill_n@PEAM_KM@std@@YAPEAMPEAM_KAEBM@Z
	??$_Generate@PEAMV<lambda_72b5c7a20b88090cbd6c706ba109b10a>@@@std@@YAXPEAM0V<lambda_72b5c7a20b88090cbd6c706ba109b10a>@@@Z
	??$_Iter_cat@PEAM@std@@YA?AUrandom_access_iterator_tag@0@AEBQEAM@Z
	??$_Iter_cat@PEBM@std@@YA?AUrandom_access_iterator_tag@0@AEBQEBM@Z
	??$_Iter_cat@V?$_Vector_iterator@V?$_Vector_val@U?$_Simple_types@M@std@@@std@@@std@@@std@@YA?AUrandom_access_iterator_tag@0@AEBV?$_Vector_iterator@V?$_Vector_val@U?$_Simple_types@M@std@@@std@@@0@@Z
	??$_Pocca@U?$_Wrap_alloc@V?$allocator@M@std@@@std@@@std@@YAXAEAU?$_Wrap_alloc@V?$allocator@M@std@@@0@AEBU10@@Z
	??$_Pocca@U?$_Wrap_alloc@V?$allocator@M@std@@@std@@@std@@YAXAEAU?$_Wrap_alloc@V?$allocator@M@std@@@0@AEBU10@U?$integral_constant@_N$0A@@0@@Z
	??$_Pocma@U?$_Wrap_alloc@V?$allocator@M@std@@@std@@@std@@YAXAEAU?$_Wrap_alloc@V?$allocator@M@std@@@0@0@Z
	??$_Pocma@U?$_Wrap_alloc@V?$allocator@M@std@@@std@@@std@@YAXAEAU?$_Wrap_alloc@V?$allocator@M@std@@@0@0U?$integral_constant@_N$00@0@@Z
	??$_Ptr_cat@MM@std@@YA?AU_Scalar_ptr_iterator_tag@0@PEAM0@Z
	??$_Ptr_cat@MM@std@@YA?AU_Scalar_ptr_iterator_tag@0@PEBMPEAM@Z
	??$_Rechecked@PEAMPEAM@std@@YAAEAPEAMAEAPEAMPEAM@Z
	??$_Ucopy@PEAM@?$vector@MV?$allocator@M@std@@@std@@IEAAPEAMPEAM00@Z
	??$_Ucopy@V?$_Vector_const_iterator@V?$_Vector_val@U?$_Simple_types@M@std@@@std@@@std@@@?$vector@MV?$allocator@M@std@@@std@@IEAAPEAMV?$_Vector_const_iterator@V?$_Vector_val@U?$_Simple_types@M@std@@@std@@@1@0PEAM@Z
	??$_Unchecked@PEAM@std@@YAPEAMPEAM@Z
	??$_Unchecked@V?$_Vector_val@U?$_Simple_types@M@std@@@std@@@std@@YAPEAMV?$_Vector_iterator@V?$_Vector_val@U?$_Simple_types@M@std@@@std@@@0@@Z
	??$_Unchecked@V?$_Vector_val@U?$_Simple_types@M@std@@@std@@@std@@YAPEBMV?$_Vector_const_iterator@V?$_Vector_val@U?$_Simple_types@M@std@@@std@@@0@@Z
	??$_Uninit_copy@$$CBMM@std@@YAPEAMPEBM0PEAMAEAU?$_Wrap_alloc@V?$allocator@M@std@@@0@U_Scalar_ptr_iterator_tag@0@@Z
	??$_Uninit_copy@MM@std@@YAPEAMPEAM00AEAU?$_Wrap_alloc@V?$allocator@M@std@@@0@U_Scalar_ptr_iterator_tag@0@@Z
	??$_Uninit_copy@PEAMPEAMU?$_Wrap_alloc@V?$allocator@M@std@@@std@@@std@@YAPEAMPEAM00AEAU?$_Wrap_alloc@V?$allocator@M@std@@@0@@Z
	??$_Uninit_copy@PEBMPEAMU?$_Wrap_alloc@V?$allocator@M@std@@@std@@@std@@YAPEAMPEBM0PEAMAEAU?$_Wrap_alloc@V?$allocator@M@std@@@0@@Z
	??$_Uninit_def_fill_n@M_KM@std@@YAXPEAM_KAEAU?$_Wrap_alloc@V?$allocator@M@std@@@0@0U_Scalar_ptr_iterator_tag@0@@Z
	??$_Uninit_fill_n@M_KMM@std@@YAXPEAM_KPEBMAEAU?$_Wrap_alloc@V?$allocator@M@std@@@0@0U_Scalar_ptr_iterator_tag@0@@Z
	??$_Uninitialized_copy@PEAMPEAMU?$_Wrap_alloc@V?$allocator@M@std@@@std@@@std@@YAPEAMPEAM00AEAU?$_Wrap_alloc@V?$allocator@M@std@@@0@@Z
	??$_Uninitialized_copy@V?$_Vector_const_iterator@V?$_Vector_val@U?$_Simple_types@M@std@@@std@@@std@@PEAMU?$_Wrap_alloc@V?$allocator@M@std@@@2@@std@@YAPEAMV?$_Vector_const_iterator@V?$_Vector_val@U?$_Simple_types@M@std@@@std@@@0@0PEAMAEAU?$_Wrap_alloc@V?$allocator@M@std@@@0@@Z
	??$_Uninitialized_default_fill_n@PEAM_KU?$_Wrap_alloc@V?$allocator@M@std@@@std@@@std@@YAXPEAM_KAEAU?$_Wrap_alloc@V?$allocator@M@std@@@0@@Z
	??$_Uninitialized_fill_n@PEAM_KMU?$_Wrap_alloc@V?$allocator@M@std@@@std@@@std@@YAXPEAM_KPEBMAEAU?$_Wrap_alloc@V?$allocator@M@std@@@0@@Z
	??$_Val_type@PEAM@std@@YAPEAMPEAM@Z
	??$addressof@$$CBM@std@@YAPEBMAEBM@Z
	??$forward@AEBV?$allocator@M@std@@@std@@YAAEBV?$allocator@M@0@AEBV10@@Z
	??$forward@V?$allocator@M@std@@@std@@YA$$QEAV?$allocator@M@0@AEAV10@@Z
	??$forward@V?$vector@MV?$allocator@M@std@@@std@@@std@@YA$$QEAV?$vector@MV?$allocator@M@std@@@0@AEAV10@@Z
	??$generate@V?$_Vector_iterator@V?$_Vector_val@U?$_Simple_types@M@std@@@std@@@std@@V<lambda_72b5c7a20b88090cbd6c706ba109b10a>@@@std@@YAXV?$_Vector_iterator@V?$_Vector_val@U?$_Simple_types@M@std@@@std@@@0@0V<lambda_72b5c7a20b88090cbd6c706ba109b10a>@@@Z
	??$move@AEAU?$_Wrap_alloc@V?$allocator@M@std@@@std@@@std@@YA$$QEAU?$_Wrap_alloc@V?$allocator@M@std@@@0@AEAU10@@Z
	??$move@AEAV?$allocator@M@std@@@std@@YA$$QEAV?$allocator@M@0@AEAV10@@Z
	??$polyfit@M@mathalgo@@YA?AV?$vector@MV?$allocator@M@std@@@std@@AEBV12@0H@Z
	??$polyval@M@mathalgo@@YA?AV?$vector@MV?$allocator@M@std@@@std@@AEBV12@0@Z
	??0?$Givens@M@mathalgo@@QEAA@XZ
	??0?$_Iterator012@Urandom_access_iterator_tag@std@@M_JPEBMAEBMU_Iterator_base12@2@@std@@QEAA@AEBU01@@Z
	??0?$_Iterator012@Urandom_access_iterator_tag@std@@M_JPEBMAEBMU_Iterator_base12@2@@std@@QEAA@XZ
	??0?$_Vector_alloc@U?$_Vec_base_types@MV?$allocator@M@std@@@std@@@std@@QEAA@$$QEAV?$allocator@M@1@@Z
	??0?$_Vector_alloc@U?$_Vec_base_types@MV?$allocator@M@std@@@std@@@std@@QEAA@AEBV?$allocator@M@1@@Z
	??0?$_Vector_const_iterator@V?$_Vector_val@U?$_Simple_types@M@std@@@std@@@std@@QEAA@AEBV01@@Z
	??0?$_Vector_const_iterator@V?$_Vector_val@U?$_Simple_types@M@std@@@std@@@std@@QEAA@PEAMPEBU_Container_base12@1@@Z
	??0?$_Vector_iterator@V?$_Vector_val@U?$_Simple_types@M@std@@@std@@@std@@QEAA@AEBV01@@Z
	??0?$_Vector_iterator@V?$_Vector_val@U?$_Simple_types@M@std@@@std@@@std@@QEAA@PEAMPEBU_Container_base12@1@@Z
	??0?$_Vector_val@U?$_Simple_types@M@std@@@std@@QEAA@XZ
	??0?$_Wrap_alloc@V?$allocator@M@std@@@std@@QEAA@AEBV?$allocator@M@1@@Z
	??0?$allocator@M@std@@QEAA@AEBV01@@Z
	??0?$allocator@M@std@@QEAA@XZ
	??0?$matrix@M@mathalgo@@QEAA@$$QEAV01@@Z
	??0?$matrix@M@mathalgo@@QEAA@II@Z
	??0?$vector@MV?$allocator@M@std@@@std@@QEAA@$$QEAV01@@Z
	??0?$vector@MV?$allocator@M@std@@@std@@QEAA@AEBV01@@Z
	??0?$vector@MV?$allocator@M@std@@@std@@QEAA@_K@Z
	??0?$vector@MV?$allocator@M@std@@@std@@QEAA@_KAEBM@Z
	??0Model@PolyFit@Utils@ofxRulr@@QEAA@$$QEAU0123@@Z
	??0domain_error@std@@QEAA@AEBV01@@Z
	??0domain_error@std@@QEAA@PEBD@Z
	??0exception@std@@QEAA@QEBD@Z
	??0invalid_argument@std@@QEAA@AEBV01@@Z
	??0invalid_argument@std@@QEAA@PEBD@Z
	??0logic_error@std@@QEAA@AEBV01@@Z
	??0logic_error@std@@QEAA@PEBD@Z
	??0out_of_range@std@@QEAA@AEBV01@@Z
	??0out_of_range@std@@QEAA@PEBD@Z
	??0range_error@std@@QEAA@AEBV01@@Z
	??0range_error@std@@QEAA@PEBD@Z
	??0runtime_error@std@@QEAA@AEBV01@@Z
	??0runtime_error@std@@QEAA@PEBD@Z
	??1?$Givens@M@mathalgo@@QEAA@XZ
	??1?$_Compressed_pair@U?$_Wrap_alloc@V?$allocator@M@std@@@std@@V?$_Vector_val@U?$_Simple_types@M@std@@@2@$00@std@@QEAA@XZ
	??1?$_Iterator012@Urandom_access_iterator_tag@std@@M_JPEBMAEBMU_Iterator_base12@2@@std@@QEAA@XZ
	??1?$_Vector_alloc@U?$_Vec_base_types@MV?$allocator@M@std@@@std@@@std@@QEAA@XZ
	??1?$_Vector_const_iterator@V?$_Vector_val@U?$_Simple_types@M@std@@@std@@@std@@QEAA@XZ
	??1?$_Vector_iterator@V?$_Vector_val@U?$_Simple_types@M@std@@@std@@@std@@QEAA@XZ
	??1?$_Vector_val@U?$_Simple_types@M@std@@@std@@QEAA@XZ
	??1?$matrix@M@mathalgo@@QEAA@XZ
	??1?$vector@MV?$allocator@M@std@@@std@@QEAA@XZ
	??1Model@PolyFit@Utils@ofxRulr@@QEAA@XZ
	??1domain_error@std@@UEAA@XZ
	??1invalid_argument@std@@UEAA@XZ
	??1logic_error@std@@UEAA@XZ
	??1out_of_range@std@@UEAA@XZ
	??1range_error@std@@UEAA@XZ
	??1runtime_error@std@@UEAA@XZ
	??4?$_Wrap_alloc@V?$allocator@M@std@@@std@@QEAAAEAU01@AEBU01@@Z
	??4?$matrix@M@mathalgo@@QEAAAEAV01@$$QEAV01@@Z
	??4?$matrix@M@mathalgo@@QEAAAEAV01@AEBV01@@Z
	??4?$vector@MV?$allocator@M@std@@@std@@QEAAAEAV01@$$QEAV01@@Z
	??4?$vector@MV?$allocator@M@std@@@std@@QEAAAEAV01@AEBV01@@Z
	??8?$_Vector_const_iterator@V?$_Vector_val@U?$_Simple_types@M@std@@@std@@@std@@QEBA_NAEBV01@@Z
	??9?$_Vector_const_iterator@V?$_Vector_val@U?$_Simple_types@M@std@@@std@@@std@@QEBA_NAEBV01@@Z
	??A?$vector@MV?$allocator@M@std@@@std@@QEAAAEAM_K@Z
	??A?$vector@MV?$allocator@M@std@@@std@@QEBAAEBM_K@Z
	??A?$vector@VofVec2f@@V?$allocator@VofVec2f@@@std@@@std@@QEBAAEBVofVec2f@@_K@Z
	??D?$matrix@M@mathalgo@@QEAA?AV01@AEAV01@@Z
	??M?$_Vector_const_iterator@V?$_Vector_val@U?$_Simple_types@M@std@@@std@@@std@@QEBA_NAEBV01@@Z
	??R?$matrix@M@mathalgo@@QEAAAEAMII@Z
	??_7domain_error@std@@6B@
	??_7invalid_argument@std@@6B@
	??_7logic_error@std@@6B@
	??_7out_of_range@std@@6B@
	??_7range_error@std@@6B@
	??_7runtime_error@std@@6B@
	??_C@_0BE@MPHLJMAC@invalid?5matrix?5size?$AA@
	??_C@_0BG@OBAFCJJL@position?5out?5of?5range?$AA@
	??_C@_0CC@IBCABGOM@X?5and?5Y?5vector?5sizes?5do?5not?5matc@
	??_C@_0CI@GAHLELAC@matrix?5dimensions?5are?5not?5multip@
	??_C@_1DM@LHGCHCBA@?$AAv?$AAe?$AAc?$AAt?$AAo?$AAr?$AA?5?$AAs?$AAu?$AAb?$AAs?$AAc?$AAr?$AAi?$AAp?$AAt?$AA?5?$AAo?$AAu?$AAt?$AA?5?$AAo?$AAf?$AA?5?$AAr?$AAa?$AAn?$AAg?$AAe?$AA?$AA@
	??_C@_1HK@EJDBECKJ@?$AAs?$AAt?$AAd?$AA?3?$AA?3?$AAv?$AAe?$AAc?$AAt?$AAo?$AAr?$AA?$DM?$AAf?$AAl?$AAo?$AAa?$AAt?$AA?0?$AAc?$AAl?$AAa?$AAs?$AAs?$AA?5?$AAs?$AAt?$AAd?$AA?3?$AA?3?$AAa?$AAl?$AAl@
	??_C@_1JK@OLPPMCGM@?$AAs?$AAt?$AAd?$AA?3?$AA?3?$AAv?$AAe?$AAc?$AAt?$AAo?$AAr?$AA?$DM?$AAc?$AAl?$AAa?$AAs?$AAs?$AA?5?$AAo?$AAf?$AAV?$AAe?$AAc?$AA2?$AAf?$AA?0?$AAc?$AAl?$AAa?$AAs?$AAs?$AA?5@
	??_C@_1MC@ENPOMNPG@?$AAs?$AAt?$AAd?$AA?3?$AA?3?$AA_?$AAV?$AAe?$AAc?$AAt?$AAo?$AAr?$AA_?$AAc?$AAo?$AAn?$AAs?$AAt?$AA_?$AAi?$AAt?$AAe?$AAr?$AAa?$AAt?$AAo?$AAr?$AA?$DM?$AAc?$AAl?$AAa?$AAs@
	??_Gdomain_error@std@@UEAAPEAXI@Z
	??_Ginvalid_argument@std@@UEAAPEAXI@Z
	??_Glogic_error@std@@UEAAPEAXI@Z
	??_Gout_of_range@std@@UEAAPEAXI@Z
	??_Grange_error@std@@UEAAPEAXI@Z
	??_Gruntime_error@std@@UEAAPEAXI@Z
	??_R0?AVdomain_error@std@@@8
	??_R0?AVinvalid_argument@std@@@8
	??_R0?AVlogic_error@std@@@8
	??_R0?AVout_of_range@std@@@8
	??_R0?AVrange_error@std@@@8
	??_R0?AVruntime_error@std@@@8
	??_R1A@?0A@EA@domain_error@std@@8
	??_R1A@?0A@EA@invalid_argument@std@@8
	??_R1A@?0A@EA@logic_error@std@@8
	??_R1A@?0A@EA@out_of_range@std@@8
	??_R1A@?0A@EA@range_error@std@@8
	??_R1A@?0A@EA@runtime_error@std@@8
	??_R2domain_error@std@@8
	??_R2invalid_argument@std@@8
	??_R2logic_error@std@@8
	??_R2out_of_range@std@@8
	??_R2range_error@std@@8
	??_R2runtime_error@std@@8
	??_R3domain_error@std@@8
	??_R3invalid_argument@std@@8
	??_R3logic_error@std@@8
	??_R3out_of_range@std@@8
	??_R3range_error@std@@8
	??_R3runtime_error@std@@8
	??_R4domain_error@std@@6B@
	??_R4invalid_argument@std@@6B@
	??_R4logic_error@std@@6B@
	??_R4out_of_range@std@@6B@
	??_R4range_error@std@@6B@
	??_R4runtime_error@std@@6B@
	?Decompose@?$Givens@M@mathalgo@@QEAAXAEAV?$matrix@M@2@@Z
	?GivensRotation@?$Givens@M@mathalgo@@AEAAXMM@Z
	?PreMultiplyGivens@?$Givens@M@mathalgo@@AEAAXAEAV?$matrix@M@2@HH@Z
	?Solve@?$Givens@M@mathalgo@@QEAA?AV?$matrix@M@2@AEAV32@@Z
	?_Alloc_proxy@?$_Vector_alloc@U?$_Vec_base_types@MV?$allocator@M@std@@@std@@@std@@QEAAXXZ
	?_Assign_rv@?$vector@MV?$allocator@M@std@@@std@@QEAAX$$QEAV12@@Z
	?_Assign_rv@?$vector@MV?$allocator@M@std@@@std@@QEAAX$$QEAV12@U?$integral_constant@_N$00@2@@Z
	?_Buy@?$vector@MV?$allocator@M@std@@@std@@IEAA_N_K@Z
	?_Compat@?$_Vector_const_iterator@V?$_Vector_val@U?$_Simple_types@M@std@@@std@@@std@@QEBAXAEBV12@@Z
	?_Construct_n@?$vector@MV?$allocator@M@std@@@std@@QEAAX_KPEBM@Z
	?_Copy_alloc@?$_Vector_alloc@U?$_Vec_base_types@MV?$allocator@M@std@@@std@@@std@@QEAAXAEBU?$_Wrap_alloc@V?$allocator@M@std@@@2@@Z
	?_Destroy@?$vector@MV?$allocator@M@std@@@std@@IEAAXPEAM0@Z
	?_Free_proxy@?$_Vector_alloc@U?$_Vec_base_types@MV?$allocator@M@std@@@std@@@std@@QEAAXXZ
	?_Get_data@?$_Vector_alloc@U?$_Vec_base_types@MV?$allocator@M@std@@@std@@@std@@QEAAAEAV?$_Vector_val@U?$_Simple_types@M@std@@@2@XZ
	?_Get_data@?$_Vector_alloc@U?$_Vec_base_types@VofVec2f@@V?$allocator@VofVec2f@@@std@@@std@@@std@@QEBAAEBV?$_Vector_val@U?$_Simple_types@VofVec2f@@@std@@@2@XZ
	?_Get_first@?$_Compressed_pair@U?$_Wrap_alloc@V?$allocator@M@std@@@std@@V?$_Vector_val@U?$_Simple_types@M@std@@@2@$00@std@@QEAAAEAU?$_Wrap_alloc@V?$allocator@M@std@@@2@XZ
	?_Get_first@?$_Compressed_pair@U?$_Wrap_alloc@V?$allocator@M@std@@@std@@V?$_Vector_val@U?$_Simple_types@M@std@@@2@$00@std@@QEBAAEBU?$_Wrap_alloc@V?$allocator@M@std@@@2@XZ
	?_Get_second@?$_Compressed_pair@U?$_Wrap_alloc@V?$allocator@M@std@@@std@@V?$_Vector_val@U?$_Simple_types@M@std@@@2@$00@std@@QEAAAEAV?$_Vector_val@U?$_Simple_types@M@std@@@2@XZ
	?_Get_second@?$_Compressed_pair@U?$_Wrap_alloc@V?$allocator@VofVec2f@@@std@@@std@@V?$_Vector_val@U?$_Simple_types@VofVec2f@@@std@@@2@$00@std@@QEBAAEBV?$_Vector_val@U?$_Simple_types@VofVec2f@@@std@@@2@XZ
	?_Getal@?$_Vector_alloc@U?$_Vec_base_types@MV?$allocator@M@std@@@std@@@std@@QEAAAEAU?$_Wrap_alloc@V?$allocator@M@std@@@2@XZ
	?_Getal@?$_Vector_alloc@U?$_Vec_base_types@MV?$allocator@M@std@@@std@@@std@@QEBAAEBU?$_Wrap_alloc@V?$allocator@M@std@@@2@XZ
	?_Move_alloc@?$_Vector_alloc@U?$_Vec_base_types@MV?$allocator@M@std@@@std@@@std@@QEAAXAEAU?$_Wrap_alloc@V?$allocator@M@std@@@2@@Z
	?_Myend@?$_Vector_alloc@U?$_Vec_base_types@MV?$allocator@M@std@@@std@@@std@@QEAAAEAPEAMXZ
	?_Myend@?$_Vector_alloc@U?$_Vec_base_types@MV?$allocator@M@std@@@std@@@std@@QEBAAEBQEAMXZ
	?_Myfirst@?$_Vector_alloc@U?$_Vec_base_types@MV?$allocator@M@std@@@std@@@std@@QEAAAEAPEAMXZ
	?_Myfirst@?$_Vector_alloc@U?$_Vec_base_types@VofVec2f@@V?$allocator@VofVec2f@@@std@@@std@@@std@@QEBAAEBQEAVofVec2f@@XZ
	?_Mylast@?$_Vector_alloc@U?$_Vec_base_types@MV?$allocator@M@std@@@std@@@std@@QEAAAEAPEAMXZ
	?_Mylast@?$_Vector_alloc@U?$_Vec_base_types@VofVec2f@@V?$allocator@VofVec2f@@@std@@@std@@@std@@QEBAAEBQEAVofVec2f@@XZ
	?_Myproxy@?$_Vector_alloc@U?$_Vec_base_types@MV?$allocator@M@std@@@std@@@std@@QEAAAEAPEAU_Container_proxy@2@XZ
	?_Orphan_all@?$_Vector_alloc@U?$_Vec_base_types@MV?$allocator@M@std@@@std@@@std@@QEAAXXZ
	?_Swap_all@?$_Vector_alloc@U?$_Vec_base_types@MV?$allocator@M@std@@@std@@@std@@QEAAXAEAV12@@Z
	?_Swap_all@_Container_base12@std@@QEAAXAEAU12@@Z
	?_Tidy@?$vector@MV?$allocator@M@std@@@std@@IEAAXXZ
	?_Ufill@?$vector@MV?$allocator@M@std@@@std@@IEAAPEAMPEAM_KPEBM@Z
	?_Unchecked@?$_Vector_const_iterator@V?$_Vector_val@U?$_Simple_types@M@std@@@std@@@std@@QEBAPEBMXZ
	?_Unchecked@?$_Vector_iterator@V?$_Vector_val@U?$_Simple_types@M@std@@@std@@@std@@QEBAPEAMXZ
	?_Xlen@?$vector@MV?$allocator@M@std@@@std@@IEBAXXZ
	?__autoclassinit2@?$Givens@M@mathalgo@@QEAAX_K@Z
	?__autoclassinit2@?$matrix@M@mathalgo@@QEAAX_K@Z
	?__autoclassinit2@?$vector@MV?$allocator@M@std@@@std@@QEAAX_K@Z
	?abs@@YAMM@Z
	?allocate@?$_Wrap_alloc@V?$allocator@M@std@@@std@@QEAAPEAM_K@Z
	?allocate@?$allocator@M@std@@QEAAPEAM_K@Z
	?begin@?$vector@MV?$allocator@M@std@@@std@@QEAA?AV?$_Vector_iterator@V?$_Vector_val@U?$_Simple_types@M@std@@@std@@@2@XZ
	?begin@?$vector@MV?$allocator@M@std@@@std@@QEBA?AV?$_Vector_const_iterator@V?$_Vector_val@U?$_Simple_types@M@std@@@std@@@2@XZ
	?capacity@?$vector@MV?$allocator@M@std@@@std@@QEBA_KXZ
	?clear@?$vector@MV?$allocator@M@std@@@std@@QEAAXXZ
	?cols@?$matrix@M@mathalgo@@QEAAIXZ
	?data@?$matrix@M@mathalgo@@QEAA?AV?$vector@MV?$allocator@M@std@@@std@@XZ
	?deallocate@?$_Wrap_alloc@V?$allocator@M@std@@@std@@QEAAXPEAM_K@Z
	?deallocate@?$allocator@M@std@@QEAAXPEAM_K@Z
	?empty@?$vector@MV?$allocator@M@std@@@std@@QEBA_NXZ
	?end@?$vector@MV?$allocator@M@std@@@std@@QEAA?AV?$_Vector_iterator@V?$_Vector_val@U?$_Simple_types@M@std@@@std@@@2@XZ
	?end@?$vector@MV?$allocator@M@std@@@std@@QEBA?AV?$_Vector_const_iterator@V?$_Vector_val@U?$_Simple_types@M@std@@@std@@@2@XZ
	?evaluate@PolyFit@Utils@ofxRulr@@YAMAEBUModel@123@M@Z
	?fit@PolyFit@Utils@ofxRulr@@YA?AUModel@123@AEBV?$vector@VofVec2f@@V?$allocator@VofVec2f@@@std@@@std@@H@Z
	?identity@?$matrix@M@mathalgo@@SA?AV12@I@Z
	?max_size@?$_Wrap_alloc@V?$allocator@M@std@@@std@@QEBA_KU_Nil@2@@Z
	?max_size@?$allocator@M@std@@QEBA_KXZ
	?max_size@?$allocator_traits@V?$allocator@M@std@@@std@@SA_KAEBV?$allocator@M@2@@Z
	?max_size@?$vector@MV?$allocator@M@std@@@std@@QEBA_KXZ
	?rows@?$matrix@M@mathalgo@@QEAAIXZ
	?select_on_container_copy_construction@?$_Wrap_alloc@V?$allocator@M@std@@@std@@QEBA?AU12@U_Nil@2@@Z
	?select_on_container_copy_construction@?$allocator_traits@V?$allocator@M@std@@@std@@SA?AV?$allocator@M@2@AEBV32@@Z
	?size@?$vector@VofVec2f@@V?$allocator@VofVec2f@@@std@@@std@@QEBA_KXZ
	?sqrt@@YAMM@Z
	?transpose@?$matrix@M@mathalgo@@QEAA?AV12@XZ
	_CT??_R0?AVdomain_error@std@@@8??0domain_error@std@@QEAA@AEBV01@@Z24
	_CT??_R0?AVinvalid_argument@std@@@8??0invalid_argument@std@@QEAA@AEBV01@@Z24
	_CT??_R0?AVlogic_error@std@@@8??0logic_error@std@@QEAA@AEBV01@@Z24
	_CT??_R0?AVout_of_range@std@@@8??0out_of_range@std@@QEAA@AEBV01@@Z24
	_CT??_R0?AVrange_error@std@@@8??0range_error@std@@QEAA@AEBV01@@Z24
	_CT??_R0?AVruntime_error@std@@@8??0runtime_error@std@@QEAA@AEBV01@@Z24
	_CTA3?AVdomain_error@std@@
	_CTA3?AVinvalid_argument@std@@
	_CTA3?AVout_of_range@std@@
	_CTA3?AVrange_error@std@@
	_TI3?AVdomain_error@std@@
	_TI3?AVinvalid_argument@std@@
	_TI3?AVout_of_range@std@@
	_TI3?AVrange_error@std@@
	__real@00000000
	__real@3f800000
	__real@bf800000
	__xmm@80000000800000008000000080000000
	fabsf
	??0Initialiser@Utils@ofxRulr@@QEAA@XZ
	??_C@_07NOPHIBMH@ofxRulr?$AA@
	?checkInitialised@Initialiser@Utils@ofxRulr@@QEAAXXZ
	?initialise@Initialiser@Utils@ofxRulr@@IEAAXXZ
	?initialiser@Utils@ofxRulr@@3VInitialiser@12@A
	??$?0AEAV?$ofParameter@M@@@?$_Ref_count_obj@VSlider@Widgets@ofxCvGui@@@std@@QEAA@AEAV?$ofParameter@M@@@Z
	??$?0VSlider@Widgets@ofxCvGui@@X@?$shared_ptr@VElement@ofxCvGui@@@std@@QEAA@AEBV?$shared_ptr@VSlider@Widgets@ofxCvGui@@@1@@Z
	??$_Reset@VSlider@Widgets@ofxCvGui@@@?$_Ptr_base@VElement@ofxCvGui@@@std@@QEAAXAEBV?$_Ptr_base@VSlider@Widgets@ofxCvGui@@@1@@Z
	??$_Resetp0@VSlider@Widgets@ofxCvGui@@@?$shared_ptr@VSlider@Widgets@ofxCvGui@@@std@@QEAAXPEAVSlider@Widgets@ofxCvGui@@PEAV_Ref_count_base@1@@Z
	??$forward@AEAV?$ofParameter@M@@@std@@YAAEAV?$ofParameter@M@@AEAV1@@Z
	??$make_shared@VSlider@Widgets@ofxCvGui@@AEAV?$ofParameter@M@@@std@@YA?AV?$shared_ptr@VSlider@Widgets@ofxCvGui@@@0@AEAV?$ofParameter@M@@@Z
	??$move@AEAV?$shared_ptr@VSlider@Widgets@ofxCvGui@@@std@@@std@@YA$$QEAV?$shared_ptr@VSlider@Widgets@ofxCvGui@@@0@AEAV10@@Z
	??0?$_Ptr_base@VElement@ofxCvGui@@@std@@QEAA@XZ
	??0?$_Ptr_base@VSlider@Widgets@ofxCvGui@@@std@@QEAA@$$QEAV01@@Z
	??0?$_Ptr_base@VSlider@Widgets@ofxCvGui@@@std@@QEAA@XZ
	??0?$shared_ptr@VSlider@Widgets@ofxCvGui@@@std@@QEAA@$$QEAV01@@Z
	??0?$shared_ptr@VSlider@Widgets@ofxCvGui@@@std@@QEAA@XZ
	??1?$_Ref_count_obj@VSlider@Widgets@ofxCvGui@@@std@@UEAA@XZ
	??1?$shared_ptr@VElementGroup@ofxCvGui@@@std@@QEAA@XZ
	??1?$shared_ptr@VSlider@Widgets@ofxCvGui@@@std@@QEAA@XZ
	??C?$shared_ptr@VElementGroup@ofxCvGui@@@std@@QEBAPEAVElementGroup@ofxCvGui@@XZ
	??C?$shared_ptr@VSlider@Widgets@ofxCvGui@@@std@@QEBAPEAVSlider@Widgets@ofxCvGui@@XZ
	??_7?$_Ref_count_obj@VSlider@Widgets@ofxCvGui@@@std@@6B@
	??_G?$_Ref_count_obj@VSlider@Widgets@ofxCvGui@@@std@@UEAAPEAXI@Z
	??_R0?AV?$_Ref_count_obj@VSlider@Widgets@ofxCvGui@@@std@@@8
	??_R1A@?0A@EA@?$_Ref_count_obj@VSlider@Widgets@ofxCvGui@@@std@@8
	??_R2?$_Ref_count_obj@VSlider@Widgets@ofxCvGui@@@std@@8
	??_R3?$_Ref_count_obj@VSlider@Widgets@ofxCvGui@@@std@@8
	??_R4?$_Ref_count_obj@VSlider@Widgets@ofxCvGui@@@std@@6B@
	?_Decref@?$_Ptr_base@VElementGroup@ofxCvGui@@@std@@QEAAXXZ
	?_Decref@?$_Ptr_base@VSlider@Widgets@ofxCvGui@@@std@@QEAAXXZ
	?_Delete_this@?$_Ref_count_obj@VSlider@Widgets@ofxCvGui@@@std@@EEAAXXZ
	?_Destroy@?$_Ref_count_obj@VSlider@Widgets@ofxCvGui@@@std@@EEAAXXZ
	?_Get@?$_Ptr_base@VElementGroup@ofxCvGui@@@std@@QEBAPEAVElementGroup@ofxCvGui@@XZ
	?_Get@?$_Ptr_base@VSlider@Widgets@ofxCvGui@@@std@@QEBAPEAVSlider@Widgets@ofxCvGui@@XZ
	?_Getptr@?$_Ref_count_obj@VSlider@Widgets@ofxCvGui@@@std@@QEBAPEAVSlider@Widgets@ofxCvGui@@XZ
	?_Reset0@?$_Ptr_base@VElement@ofxCvGui@@@std@@QEAAXPEAVElement@ofxCvGui@@PEAV_Ref_count_base@2@@Z
	?_Reset0@?$_Ptr_base@VSlider@Widgets@ofxCvGui@@@std@@QEAAXPEAVSlider@Widgets@ofxCvGui@@PEAV_Ref_count_base@2@@Z
	?_Reset@?$_Ptr_base@VElement@ofxCvGui@@@std@@QEAAXPEAVElement@ofxCvGui@@PEAV_Ref_count_base@2@@Z
	?__autoclassinit2@?$shared_ptr@VSlider@Widgets@ofxCvGui@@@std@@QEAAX_K@Z
	?addIntSlider@Gui@Utils@ofxRulr@@YA?AV?$shared_ptr@VSlider@Widgets@ofxCvGui@@@std@@AEAV?$ofParameter@M@@V?$shared_ptr@VElementGroup@ofxCvGui@@@5@@Z
	??A?$basic_string@DU?$char_traits@D@std@@V?$allocator@D@2@@std@@QEBAAEBD_K@Z
	??Y?$basic_string@DU?$char_traits@D@std@@V?$allocator@D@2@@std@@QEAAAEAV01@D@Z
	??_C@_0EB@NFPJKBDG@ABCDEFGHIJKLMNOPQRSTUVWXYZabcdef@
	??_C@_1DM@GMPLOCPK@?$AAs?$AAt?$AAr?$AAi?$AAn?$AAg?$AA?5?$AAs?$AAu?$AAb?$AAs?$AAc?$AAr?$AAi?$AAp?$AAt?$AA?5?$AAo?$AAu?$AAt?$AA?5?$AAo?$AAf?$AA?5?$AAr?$AAa?$AAn?$AAg?$AAe?$AA?$AA@
	?_Chassign@?$basic_string@DU?$char_traits@D@std@@V?$allocator@D@2@@std@@QEAAX_K0D@Z
	?append@?$basic_string@DU?$char_traits@D@std@@V?$allocator@D@2@@std@@QEAAAEAV12@_KD@Z
	?assign@?$char_traits@D@std@@SAPEADPEAD_KD@Z
	?decode@Base64@Utils@ofxRulr@@YA?AV?$basic_string@DU?$char_traits@D@std@@V?$allocator@D@2@@std@@AEBV45@@Z
	?encode@Base64@Utils@ofxRulr@@YA?AV?$basic_string@DU?$char_traits@D@std@@V?$allocator@D@2@@std@@PEBEI@Z
	?find@?$basic_string@DU?$char_traits@D@std@@V?$allocator@D@2@@std@@QEBA_KD_K@Z
	?find@?$basic_string@DU?$char_traits@D@std@@V?$allocator@D@2@@std@@QEBA_KPEBD_K1@Z
	?find@?$char_traits@D@std@@SAPEBDPEBD_KAEBD@Z
	??$?0$$V@?$_Ref_count_obj@V?$ofImage_@E@@@std@@QEAA@XZ
	??$?0AEAV?$_Tree_iterator@V?$_Tree_val@U?$_Tree_simple_types@U?$pair@$$CBV?$basic_string@DU?$char_traits@D@std@@V?$allocator@D@2@@std@@V?$ofColor_@E@@@std@@@std@@@std@@@std@@_NX@?$pair@V?$_Tree_iterator@V?$_Tree_val@U?$_Tree_simple_types@U?$pair@$$CBV?$basic_string@DU?$char_traits@D@std@@V?$allocator@D@2@@std@@V?$ofColor_@E@@@std@@@std@@@std@@@std@@_N@std@@QEAA@AEAV?$_Tree_iterator@V?$_Tree_val@U?$_Tree_simple_types@U?$pair@$$CBV?$basic_string@DU?$char_traits@D@std@@V?$allocator@D@2@@std@@V?$ofColor_@E@@@std@@@std@@@std@@@1@$$QEA_N@Z
	??$?0AEAV?$_Tree_iterator@V?$_Tree_val@U?$_Tree_simple_types@U?$pair@$$CBV?$basic_string@DU?$char_traits@D@std@@V?$allocator@D@2@@std@@V?$shared_ptr@V?$ofImage_@E@@@2@@std@@@std@@@std@@@std@@_NX@?$pair@V?$_Tree_iterator@V?$_Tree_val@U?$_Tree_simple_types@U?$pair@$$CBV?$basic_string@DU?$char_traits@D@std@@V?$allocator@D@2@@std@@V?$shared_ptr@V?$ofImage_@E@@@2@@std@@@std@@@std@@@std@@_N@std@@QEAA@AEAV?$_Tree_iterator@V?$_Tree_val@U?$_Tree_simple_types@U?$pair@$$CBV?$basic_string@DU?$char_traits@D@std@@V?$allocator@D@2@@std@@V?$shared_ptr@V?$ofImage_@E@@@2@@std@@@std@@@std@@@1@$$QEA_N@Z
	??$?0AEBU?$less@V?$basic_string@DU?$char_traits@D@std@@V?$allocator@D@2@@std@@@std@@U_One_then_variadic_args_t@1@AEBV?$allocator@U?$pair@$$CBV?$basic_string@DU?$char_traits@D@std@@V?$allocator@D@2@@std@@V?$ofColor_@E@@@std@@@1@@?$_Compressed_pair@U?$less@V?$basic_string@DU?$char_traits@D@std@@V?$allocator@D@2@@std@@@std@@V?$_Compressed_pair@U?$_Wrap_alloc@V?$allocator@U?$_Tree_node@U?$pair@$$CBV?$basic_string@DU?$char_traits@D@std@@V?$allocator@D@2@@std@@V?$ofColor_@E@@@std@@PEAX@std@@@std@@@std@@V?$_Tree_val@U?$_Tree_simple_types@U?$pair@$$CBV?$basic_string@DU?$char_traits@D@std@@V?$allocator@D@2@@std@@V?$ofColor_@E@@@std@@@std@@@2@$00@2@$00@std@@QEAA@U_One_then_variadic_args_t@1@AEBU?$less@V?$basic_string@DU?$char_traits@D@std@@V?$allocator@D@2@@std@@@1@$$QEAU21@AEBV?$allocator@U?$pair@$$CBV?$basic_string@DU?$char_traits@D@std@@V?$allocator@D@2@@std@@V?$ofColor_@E@@@std@@@1@@Z
	??$?0AEBU?$less@V?$basic_string@DU?$char_traits@D@std@@V?$allocator@D@2@@std@@@std@@U_One_then_variadic_args_t@1@AEBV?$allocator@U?$pair@$$CBV?$basic_string@DU?$char_traits@D@std@@V?$allocator@D@2@@std@@V?$shared_ptr@V?$ofImage_@E@@@2@@std@@@1@@?$_Compressed_pair@U?$less@V?$basic_string@DU?$char_traits@D@std@@V?$allocator@D@2@@std@@@std@@V?$_Compressed_pair@U?$_Wrap_alloc@V?$allocator@U?$_Tree_node@U?$pair@$$CBV?$basic_string@DU?$char_traits@D@std@@V?$allocator@D@2@@std@@V?$shared_ptr@V?$ofImage_@E@@@2@@std@@PEAX@std@@@std@@@std@@V?$_Tree_val@U?$_Tree_simple_types@U?$pair@$$CBV?$basic_string@DU?$char_traits@D@std@@V?$allocator@D@2@@std@@V?$shared_ptr@V?$ofImage_@E@@@2@@std@@@std@@@2@$00@2@$00@std@@QEAA@U_One_then_variadic_args_t@1@AEBU?$less@V?$basic_string@DU?$char_traits@D@std@@V?$allocator@D@2@@std@@@1@$$QEAU21@AEBV?$allocator@U?$pair@$$CBV?$basic_string@DU?$char_traits@D@std@@V?$allocator@D@2@@std@@V?$shared_ptr@V?$ofImage_@E@@@2@@std@@@1@@Z
	??$?0AEBV?$allocator@U?$pair@$$CBV?$basic_string@DU?$char_traits@D@std@@V?$allocator@D@2@@std@@V?$ofColor_@E@@@std@@@std@@$$V@?$_Compressed_pair@U?$_Wrap_alloc@V?$allocator@U?$_Tree_node@U?$pair@$$CBV?$basic_string@DU?$char_traits@D@std@@V?$allocator@D@2@@std@@V?$ofColor_@E@@@std@@PEAX@std@@@std@@@std@@V?$_Tree_val@U?$_Tree_simple_types@U?$pair@$$CBV?$basic_string@DU?$char_traits@D@std@@V?$allocator@D@2@@std@@V?$ofColor_@E@@@std@@@std@@@2@$00@std@@QEAA@U_One_then_variadic_args_t@1@AEBV?$allocator@U?$pair@$$CBV?$basic_string@DU?$char_traits@D@std@@V?$allocator@D@2@@std@@V?$ofColor_@E@@@std@@@1@@Z
	??$?0AEBV?$allocator@U?$pair@$$CBV?$basic_string@DU?$char_traits@D@std@@V?$allocator@D@2@@std@@V?$shared_ptr@V?$ofImage_@E@@@2@@std@@@std@@$$V@?$_Compressed_pair@U?$_Wrap_alloc@V?$allocator@U?$_Tree_node@U?$pair@$$CBV?$basic_string@DU?$char_traits@D@std@@V?$allocator@D@2@@std@@V?$shared_ptr@V?$ofImage_@E@@@2@@std@@PEAX@std@@@std@@@std@@V?$_Tree_val@U?$_Tree_simple_types@U?$pair@$$CBV?$basic_string@DU?$char_traits@D@std@@V?$allocator@D@2@@std@@V?$shared_ptr@V?$ofImage_@E@@@2@@std@@@std@@@2@$00@std@@QEAA@U_One_then_variadic_args_t@1@AEBV?$allocator@U?$pair@$$CBV?$basic_string@DU?$char_traits@D@std@@V?$allocator@D@2@@std@@V?$shared_ptr@V?$ofImage_@E@@@2@@std@@@1@@Z
	??$?0AEBV?$basic_string@DU?$char_traits@D@std@@V?$allocator@D@2@@std@@$$Z$$V@?$pair@$$CBV?$basic_string@DU?$char_traits@D@std@@V?$allocator@D@2@@std@@V?$ofColor_@E@@@std@@QEAA@Upiecewise_construct_t@1@V?$tuple@AEBV?$basic_string@DU?$char_traits@D@std@@V?$allocator@D@2@@std@@@1@V?$tuple@$$V@1@@Z
	??$?0AEBV?$basic_string@DU?$char_traits@D@std@@V?$allocator@D@2@@std@@$$Z$$V@?$pair@$$CBV?$basic_string@DU?$char_traits@D@std@@V?$allocator@D@2@@std@@V?$shared_ptr@V?$ofImage_@E@@@2@@std@@QEAA@Upiecewise_construct_t@1@V?$tuple@AEBV?$basic_string@DU?$char_traits@D@std@@V?$allocator@D@2@@std@@@1@V?$tuple@$$V@1@@Z
	??$?0AEBV?$basic_string@DU?$char_traits@D@std@@V?$allocator@D@2@@std@@@?$_Tuple_val@AEBV?$basic_string@DU?$char_traits@D@std@@V?$allocator@D@2@@std@@@std@@QEAA@AEBV?$basic_string@DU?$char_traits@D@std@@V?$allocator@D@2@@1@@Z
	??$?0AEBV?$basic_string@DU?$char_traits@D@std@@V?$allocator@D@2@@std@@AEAV?$ofColor_@E@@X@?$pair@$$CBV?$basic_string@DU?$char_traits@D@std@@V?$allocator@D@2@@std@@V?$ofColor_@E@@@std@@QEAA@AEBV?$basic_string@DU?$char_traits@D@std@@V?$allocator@D@2@@1@AEAV?$ofColor_@E@@@Z
	??$?0U?$_Tree_node@U?$pair@$$CBV?$basic_string@DU?$char_traits@D@std@@V?$allocator@D@2@@std@@V?$ofColor_@E@@@std@@PEAX@std@@@?$allocator@U_Container_proxy@std@@@std@@QEAA@AEBV?$allocator@U?$_Tree_node@U?$pair@$$CBV?$basic_string@DU?$char_traits@D@std@@V?$allocator@D@2@@std@@V?$ofColor_@E@@@std@@PEAX@std@@@1@@Z
	??$?0U?$_Tree_node@U?$pair@$$CBV?$basic_string@DU?$char_traits@D@std@@V?$allocator@D@2@@std@@V?$shared_ptr@V?$ofImage_@E@@@2@@std@@PEAX@std@@@?$allocator@U_Container_proxy@std@@@std@@QEAA@AEBV?$allocator@U?$_Tree_node@U?$pair@$$CBV?$basic_string@DU?$char_traits@D@std@@V?$allocator@D@2@@std@@V?$shared_ptr@V?$ofImage_@E@@@2@@std@@PEAX@std@@@1@@Z
	??$?0U?$_Wrap_alloc@V?$allocator@U?$_Tree_node@U?$pair@$$CBV?$basic_string@DU?$char_traits@D@std@@V?$allocator@D@2@@std@@V?$ofColor_@E@@@std@@PEAX@std@@@std@@@std@@@?$_Wrap_alloc@V?$allocator@U_Container_proxy@std@@@std@@@std@@QEAA@AEAU?$_Wrap_alloc@V?$allocator@U?$_Tree_node@U?$pair@$$CBV?$basic_string@DU?$char_traits@D@std@@V?$allocator@D@2@@std@@V?$ofColor_@E@@@std@@PEAX@std@@@std@@@1@@Z
	??$?0U?$_Wrap_alloc@V?$allocator@U?$_Tree_node@U?$pair@$$CBV?$basic_string@DU?$char_traits@D@std@@V?$allocator@D@2@@std@@V?$shared_ptr@V?$ofImage_@E@@@2@@std@@PEAX@std@@@std@@@std@@@?$_Wrap_alloc@V?$allocator@U_Container_proxy@std@@@std@@@std@@QEAA@AEAU?$_Wrap_alloc@V?$allocator@U?$_Tree_node@U?$pair@$$CBV?$basic_string@DU?$char_traits@D@std@@V?$allocator@D@2@@std@@V?$shared_ptr@V?$ofImage_@E@@@2@@std@@PEAX@std@@@std@@@1@@Z
	??$?0U?$pair@$$CBV?$basic_string@DU?$char_traits@D@std@@V?$allocator@D@2@@std@@V?$ofColor_@E@@@std@@@?$allocator@U?$_Tree_node@U?$pair@$$CBV?$basic_string@DU?$char_traits@D@std@@V?$allocator@D@2@@std@@V?$ofColor_@E@@@std@@PEAX@std@@@std@@QEAA@AEBV?$allocator@U?$pair@$$CBV?$basic_string@DU?$char_traits@D@std@@V?$allocator@D@2@@std@@V?$ofColor_@E@@@std@@@1@@Z
	??$?0U?$pair@$$CBV?$basic_string@DU?$char_traits@D@std@@V?$allocator@D@2@@std@@V?$shared_ptr@V?$ofImage_@E@@@2@@std@@@?$allocator@U?$_Tree_node@U?$pair@$$CBV?$basic_string@DU?$char_traits@D@std@@V?$allocator@D@2@@std@@V?$shared_ptr@V?$ofImage_@E@@@2@@std@@PEAX@std@@@std@@QEAA@AEBV?$allocator@U?$pair@$$CBV?$basic_string@DU?$char_traits@D@std@@V?$allocator@D@2@@std@@V?$shared_ptr@V?$ofImage_@E@@@2@@std@@@1@@Z
	??$?0V?$_Tree_iterator@V?$_Tree_val@U?$_Tree_simple_types@U?$pair@$$CBV?$basic_string@DU?$char_traits@D@std@@V?$allocator@D@2@@std@@V?$ofColor_@E@@@std@@@std@@@std@@@std@@_NX@?$pair@V?$_Tree_iterator@V?$_Tree_val@U?$_Tree_simple_types@U?$pair@$$CBV?$basic_string@DU?$char_traits@D@std@@V?$allocator@D@2@@std@@V?$ofColor_@E@@@std@@@std@@@std@@@std@@_N@std@@QEAA@$$QEAV?$_Tree_iterator@V?$_Tree_val@U?$_Tree_simple_types@U?$pair@$$CBV?$basic_string@DU?$char_traits@D@std@@V?$allocator@D@2@@std@@V?$ofColor_@E@@@std@@@std@@@std@@@1@$$QEA_N@Z
	??$?0V?$_Tree_iterator@V?$_Tree_val@U?$_Tree_simple_types@U?$pair@$$CBV?$basic_string@DU?$char_traits@D@std@@V?$allocator@D@2@@std@@V?$shared_ptr@V?$ofImage_@E@@@2@@std@@@std@@@std@@@std@@_NX@?$pair@V?$_Tree_iterator@V?$_Tree_val@U?$_Tree_simple_types@U?$pair@$$CBV?$basic_string@DU?$char_traits@D@std@@V?$allocator@D@2@@std@@V?$shared_ptr@V?$ofImage_@E@@@2@@std@@@std@@@std@@@std@@_N@std@@QEAA@$$QEAV?$_Tree_iterator@V?$_Tree_val@U?$_Tree_simple_types@U?$pair@$$CBV?$basic_string@DU?$char_traits@D@std@@V?$allocator@D@2@@std@@V?$shared_ptr@V?$ofImage_@E@@@2@@std@@@std@@@std@@@1@$$QEA_N@Z
	??$?0V?$allocator@U?$pair@$$CBV?$basic_string@DU?$char_traits@D@std@@V?$allocator@D@2@@std@@V?$ofColor_@E@@@std@@@std@@@?$_Wrap_alloc@V?$allocator@U?$_Tree_node@U?$pair@$$CBV?$basic_string@DU?$char_traits@D@std@@V?$allocator@D@2@@std@@V?$ofColor_@E@@@std@@PEAX@std@@@std@@@std@@QEAA@AEBV?$allocator@U?$pair@$$CBV?$basic_string@DU?$char_traits@D@std@@V?$allocator@D@2@@std@@V?$ofColor_@E@@@std@@@1@@Z
	??$?0V?$allocator@U?$pair@$$CBV?$basic_string@DU?$char_traits@D@std@@V?$allocator@D@2@@std@@V?$shared_ptr@V?$ofImage_@E@@@2@@std@@@std@@@?$_Wrap_alloc@V?$allocator@U?$_Tree_node@U?$pair@$$CBV?$basic_string@DU?$char_traits@D@std@@V?$allocator@D@2@@std@@V?$shared_ptr@V?$ofImage_@E@@@2@@std@@PEAX@std@@@std@@@std@@QEAA@AEBV?$allocator@U?$pair@$$CBV?$basic_string@DU?$char_traits@D@std@@V?$allocator@D@2@@std@@V?$shared_ptr@V?$ofImage_@E@@@2@@std@@@1@@Z
	??$?0V?$basic_string@DU?$char_traits@D@std@@V?$allocator@D@2@@std@@V?$shared_ptr@V?$ofImage_@E@@@1@X@?$pair@$$CBV?$basic_string@DU?$char_traits@D@std@@V?$allocator@D@2@@std@@V?$shared_ptr@V?$ofImage_@E@@@2@@std@@QEAA@AEBU?$pair@V?$basic_string@DU?$char_traits@D@std@@V?$allocator@D@2@@std@@V?$shared_ptr@V?$ofImage_@E@@@2@@1@@Z
	??$?0V?$tuple@AEBV?$basic_string@DU?$char_traits@D@std@@V?$allocator@D@2@@std@@@std@@V?$tuple@$$V@1@$0A@$$Z$S@?$pair@$$CBV?$basic_string@DU?$char_traits@D@std@@V?$allocator@D@2@@std@@V?$ofColor_@E@@@std@@QEAA@AEAV?$tuple@AEBV?$basic_string@DU?$char_traits@D@std@@V?$allocator@D@2@@std@@@1@AEAV?$tuple@$$V@1@U?$integer_sequence@_K$0A@@1@U?$integer_sequence@_K$S@1@@Z
	??$?0V?$tuple@AEBV?$basic_string@DU?$char_traits@D@std@@V?$allocator@D@2@@std@@@std@@V?$tuple@$$V@1@$0A@$$Z$S@?$pair@$$CBV?$basic_string@DU?$char_traits@D@std@@V?$allocator@D@2@@std@@V?$shared_ptr@V?$ofImage_@E@@@2@@std@@QEAA@AEAV?$tuple@AEBV?$basic_string@DU?$char_traits@D@std@@V?$allocator@D@2@@std@@@1@AEAV?$tuple@$$V@1@U?$integer_sequence@_K$0A@@1@U?$integer_sequence@_K$S@1@@Z
	??$?HDU?$char_traits@D@std@@V?$allocator@D@1@@std@@YA?AV?$basic_string@DU?$char_traits@D@std@@V?$allocator@D@2@@0@PEBDAEBV10@@Z
	??$?MDU?$char_traits@D@std@@V?$allocator@D@1@@std@@YA_NAEBV?$basic_string@DU?$char_traits@D@std@@V?$allocator@D@2@@0@0@Z
	??$_Addressof@PEAU?$_Tree_node@U?$pair@$$CBV?$basic_string@DU?$char_traits@D@std@@V?$allocator@D@2@@std@@V?$ofColor_@E@@@std@@PEAX@std@@@std@@YAPEAPEAU?$_Tree_node@U?$pair@$$CBV?$basic_string@DU?$char_traits@D@std@@V?$allocator@D@2@@std@@V?$ofColor_@E@@@std@@PEAX@0@AEAPEAU10@U?$integral_constant@_N$0A@@0@@Z
	??$_Addressof@PEAU?$_Tree_node@U?$pair@$$CBV?$basic_string@DU?$char_traits@D@std@@V?$allocator@D@2@@std@@V?$shared_ptr@V?$ofImage_@E@@@2@@std@@PEAX@std@@@std@@YAPEAPEAU?$_Tree_node@U?$pair@$$CBV?$basic_string@DU?$char_traits@D@std@@V?$allocator@D@2@@std@@V?$shared_ptr@V?$ofImage_@E@@@2@@std@@PEAX@0@AEAPEAU10@U?$integral_constant@_N$0A@@0@@Z
	??$_Addressof@U?$pair@$$CBV?$basic_string@DU?$char_traits@D@std@@V?$allocator@D@2@@std@@V?$ofColor_@E@@@std@@@std@@YAPEAU?$pair@$$CBV?$basic_string@DU?$char_traits@D@std@@V?$allocator@D@2@@std@@V?$ofColor_@E@@@0@AEAU10@U?$integral_constant@_N$0A@@0@@Z
	??$_Addressof@U?$pair@$$CBV?$basic_string@DU?$char_traits@D@std@@V?$allocator@D@2@@std@@V?$shared_ptr@V?$ofImage_@E@@@2@@std@@@std@@YAPEAU?$pair@$$CBV?$basic_string@DU?$char_traits@D@std@@V?$allocator@D@2@@std@@V?$shared_ptr@V?$ofImage_@E@@@2@@0@AEAU10@U?$integral_constant@_N$0A@@0@@Z
	??$_Buynode@AEAU?$pair@V?$basic_string@DU?$char_traits@D@std@@V?$allocator@D@2@@std@@V?$shared_ptr@V?$ofImage_@E@@@2@@std@@@?$_Tree_comp_alloc@V?$_Tmap_traits@V?$basic_string@DU?$char_traits@D@std@@V?$allocator@D@2@@std@@V?$shared_ptr@V?$ofImage_@E@@@2@U?$less@V?$basic_string@DU?$char_traits@D@std@@V?$allocator@D@2@@std@@@2@V?$allocator@U?$pair@$$CBV?$basic_string@DU?$char_traits@D@std@@V?$allocator@D@2@@std@@V?$shared_ptr@V?$ofImage_@E@@@2@@std@@@2@$0A@@std@@@std@@QEAAPEAU?$_Tree_node@U?$pair@$$CBV?$basic_string@DU?$char_traits@D@std@@V?$allocator@D@2@@std@@V?$shared_ptr@V?$ofImage_@E@@@2@@std@@PEAX@1@AEAU?$pair@V?$basic_string@DU?$char_traits@D@std@@V?$allocator@D@2@@std@@V?$shared_ptr@V?$ofImage_@E@@@2@@1@@Z
	??$_Buynode@AEBUpiecewise_construct_t@std@@V?$tuple@AEBV?$basic_string@DU?$char_traits@D@std@@V?$allocator@D@2@@std@@@2@V?$tuple@$$V@2@@?$_Tree_comp_alloc@V?$_Tmap_traits@V?$basic_string@DU?$char_traits@D@std@@V?$allocator@D@2@@std@@V?$ofColor_@E@@U?$less@V?$basic_string@DU?$char_traits@D@std@@V?$allocator@D@2@@std@@@2@V?$allocator@U?$pair@$$CBV?$basic_string@DU?$char_traits@D@std@@V?$allocator@D@2@@std@@V?$ofColor_@E@@@std@@@2@$0A@@std@@@std@@QEAAPEAU?$_Tree_node@U?$pair@$$CBV?$basic_string@DU?$char_traits@D@std@@V?$allocator@D@2@@std@@V?$ofColor_@E@@@std@@PEAX@1@AEBUpiecewise_construct_t@1@$$QEAV?$tuple@AEBV?$basic_string@DU?$char_traits@D@std@@V?$allocator@D@2@@std@@@1@$$QEAV?$tuple@$$V@1@@Z
	??$_Buynode@AEBUpiecewise_construct_t@std@@V?$tuple@AEBV?$basic_string@DU?$char_traits@D@std@@V?$allocator@D@2@@std@@@2@V?$tuple@$$V@2@@?$_Tree_comp_alloc@V?$_Tmap_traits@V?$basic_string@DU?$char_traits@D@std@@V?$allocator@D@2@@std@@V?$shared_ptr@V?$ofImage_@E@@@2@U?$less@V?$basic_string@DU?$char_traits@D@std@@V?$allocator@D@2@@std@@@2@V?$allocator@U?$pair@$$CBV?$basic_string@DU?$char_traits@D@std@@V?$allocator@D@2@@std@@V?$shared_ptr@V?$ofImage_@E@@@2@@std@@@2@$0A@@std@@@std@@QEAAPEAU?$_Tree_node@U?$pair@$$CBV?$basic_string@DU?$char_traits@D@std@@V?$allocator@D@2@@std@@V?$shared_ptr@V?$ofImage_@E@@@2@@std@@PEAX@1@AEBUpiecewise_construct_t@1@$$QEAV?$tuple@AEBV?$basic_string@DU?$char_traits@D@std@@V?$allocator@D@2@@std@@@1@$$QEAV?$tuple@$$V@1@@Z
	??$_Buynode@AEBV?$basic_string@DU?$char_traits@D@std@@V?$allocator@D@2@@std@@AEAV?$ofColor_@E@@@?$_Tree_comp_alloc@V?$_Tmap_traits@V?$basic_string@DU?$char_traits@D@std@@V?$allocator@D@2@@std@@V?$ofColor_@E@@U?$less@V?$basic_string@DU?$char_traits@D@std@@V?$allocator@D@2@@std@@@2@V?$allocator@U?$pair@$$CBV?$basic_string@DU?$char_traits@D@std@@V?$allocator@D@2@@std@@V?$ofColor_@E@@@std@@@2@$0A@@std@@@std@@QEAAPEAU?$_Tree_node@U?$pair@$$CBV?$basic_string@DU?$char_traits@D@std@@V?$allocator@D@2@@std@@V?$ofColor_@E@@@std@@PEAX@1@AEBV?$basic_string@DU?$char_traits@D@std@@V?$allocator@D@2@@1@AEAV?$ofColor_@E@@@Z
	??$_Buynode_if_nil@AEAU?$pair@$$CBV?$basic_string@DU?$char_traits@D@std@@V?$allocator@D@2@@std@@V?$ofColor_@E@@@std@@@?$_Tree@V?$_Tmap_traits@V?$basic_string@DU?$char_traits@D@std@@V?$allocator@D@2@@std@@V?$ofColor_@E@@U?$less@V?$basic_string@DU?$char_traits@D@std@@V?$allocator@D@2@@std@@@2@V?$allocator@U?$pair@$$CBV?$basic_string@DU?$char_traits@D@std@@V?$allocator@D@2@@std@@V?$ofColor_@E@@@std@@@2@$0A@@std@@@std@@IEAAPEAU?$_Tree_node@U?$pair@$$CBV?$basic_string@DU?$char_traits@D@std@@V?$allocator@D@2@@std@@V?$ofColor_@E@@@std@@PEAX@1@PEAU21@AEAU?$pair@$$CBV?$basic_string@DU?$char_traits@D@std@@V?$allocator@D@2@@std@@V?$ofColor_@E@@@1@@Z
	??$_Buynode_if_nil@AEAU?$pair@$$CBV?$basic_string@DU?$char_traits@D@std@@V?$allocator@D@2@@std@@V?$shared_ptr@V?$ofImage_@E@@@2@@std@@@?$_Tree@V?$_Tmap_traits@V?$basic_string@DU?$char_traits@D@std@@V?$allocator@D@2@@std@@V?$shared_ptr@V?$ofImage_@E@@@2@U?$less@V?$basic_string@DU?$char_traits@D@std@@V?$allocator@D@2@@std@@@2@V?$allocator@U?$pair@$$CBV?$basic_string@DU?$char_traits@D@std@@V?$allocator@D@2@@std@@V?$shared_ptr@V?$ofImage_@E@@@2@@std@@@2@$0A@@std@@@std@@IEAAPEAU?$_Tree_node@U?$pair@$$CBV?$basic_string@DU?$char_traits@D@std@@V?$allocator@D@2@@std@@V?$shared_ptr@V?$ofImage_@E@@@2@@std@@PEAX@1@PEAU21@AEAU?$pair@$$CBV?$basic_string@DU?$char_traits@D@std@@V?$allocator@D@2@@std@@V?$shared_ptr@V?$ofImage_@E@@@2@@1@@Z
	??$_Debug_lt_pred@U?$less@V?$basic_string@DU?$char_traits@D@std@@V?$allocator@D@2@@std@@@std@@AEBV?$basic_string@DU?$char_traits@D@std@@V?$allocator@D@2@@2@AEBV32@@std@@YA_NU?$less@V?$basic_string@DU?$char_traits@D@std@@V?$allocator@D@2@@std@@@0@AEBV?$basic_string@DU?$char_traits@D@std@@V?$allocator@D@2@@0@1PEB_WI@Z
	??$_Insert_at@AEAU?$pair@$$CBV?$basic_string@DU?$char_traits@D@std@@V?$allocator@D@2@@std@@V?$ofColor_@E@@@std@@PEAU?$_Tree_node@U?$pair@$$CBV?$basic_string@DU?$char_traits@D@std@@V?$allocator@D@2@@std@@V?$ofColor_@E@@@std@@PEAX@2@@?$_Tree@V?$_Tmap_traits@V?$basic_string@DU?$char_traits@D@std@@V?$allocator@D@2@@std@@V?$ofColor_@E@@U?$less@V?$basic_string@DU?$char_traits@D@std@@V?$allocator@D@2@@std@@@2@V?$allocator@U?$pair@$$CBV?$basic_string@DU?$char_traits@D@std@@V?$allocator@D@2@@std@@V?$ofColor_@E@@@std@@@2@$0A@@std@@@std@@IEAA?AV?$_Tree_iterator@V?$_Tree_val@U?$_Tree_simple_types@U?$pair@$$CBV?$basic_string@DU?$char_traits@D@std@@V?$allocator@D@2@@std@@V?$ofColor_@E@@@std@@@std@@@std@@@1@_NPEAU?$_Tree_node@U?$pair@$$CBV?$basic_string@DU?$char_traits@D@std@@V?$allocator@D@2@@std@@V?$ofColor_@E@@@std@@PEAX@1@AEAU?$pair@$$CBV?$basic_string@DU?$char_traits@D@std@@V?$allocator@D@2@@std@@V?$ofColor_@E@@@1@1@Z
	??$_Insert_at@AEAU?$pair@$$CBV?$basic_string@DU?$char_traits@D@std@@V?$allocator@D@2@@std@@V?$shared_ptr@V?$ofImage_@E@@@2@@std@@PEAU?$_Tree_node@U?$pair@$$CBV?$basic_string@DU?$char_traits@D@std@@V?$allocator@D@2@@std@@V?$shared_ptr@V?$ofImage_@E@@@2@@std@@PEAX@2@@?$_Tree@V?$_Tmap_traits@V?$basic_string@DU?$char_traits@D@std@@V?$allocator@D@2@@std@@V?$shared_ptr@V?$ofImage_@E@@@2@U?$less@V?$basic_string@DU?$char_traits@D@std@@V?$allocator@D@2@@std@@@2@V?$allocator@U?$pair@$$CBV?$basic_string@DU?$char_traits@D@std@@V?$allocator@D@2@@std@@V?$shared_ptr@V?$ofImage_@E@@@2@@std@@@2@$0A@@std@@@std@@IEAA?AV?$_Tree_iterator@V?$_Tree_val@U?$_Tree_simple_types@U?$pair@$$CBV?$basic_string@DU?$char_traits@D@std@@V?$allocator@D@2@@std@@V?$shared_ptr@V?$ofImage_@E@@@2@@std@@@std@@@std@@@1@_NPEAU?$_Tree_node@U?$pair@$$CBV?$basic_string@DU?$char_traits@D@std@@V?$allocator@D@2@@std@@V?$shared_ptr@V?$ofImage_@E@@@2@@std@@PEAX@1@AEAU?$pair@$$CBV?$basic_string@DU?$char_traits@D@std@@V?$allocator@D@2@@std@@V?$shared_ptr@V?$ofImage_@E@@@2@@1@1@Z
	??$_Insert_hint@AEAU?$pair@$$CBV?$basic_string@DU?$char_traits@D@std@@V?$allocator@D@2@@std@@V?$ofColor_@E@@@std@@PEAU?$_Tree_node@U?$pair@$$CBV?$basic_string@DU?$char_traits@D@std@@V?$allocator@D@2@@std@@V?$ofColor_@E@@@std@@PEAX@2@@?$_Tree@V?$_Tmap_traits@V?$basic_string@DU?$char_traits@D@std@@V?$allocator@D@2@@std@@V?$ofColor_@E@@U?$less@V?$basic_string@DU?$char_traits@D@std@@V?$allocator@D@2@@std@@@2@V?$allocator@U?$pair@$$CBV?$basic_string@DU?$char_traits@D@std@@V?$allocator@D@2@@std@@V?$ofColor_@E@@@std@@@2@$0A@@std@@@std@@IEAA?AV?$_Tree_iterator@V?$_Tree_val@U?$_Tree_simple_types@U?$pair@$$CBV?$basic_string@DU?$char_traits@D@std@@V?$allocator@D@2@@std@@V?$ofColor_@E@@@std@@@std@@@std@@@1@V?$_Tree_const_iterator@V?$_Tree_val@U?$_Tree_simple_types@U?$pair@$$CBV?$basic_string@DU?$char_traits@D@std@@V?$allocator@D@2@@std@@V?$ofColor_@E@@@std@@@std@@@std@@@1@AEAU?$pair@$$CBV?$basic_string@DU?$char_traits@D@std@@V?$allocator@D@2@@std@@V?$ofColor_@E@@@1@PEAU?$_Tree_node@U?$pair@$$CBV?$basic_string@DU?$char_traits@D@std@@V?$allocator@D@2@@std@@V?$ofColor_@E@@@std@@PEAX@1@@Z
	??$_Insert_hint@AEAU?$pair@$$CBV?$basic_string@DU?$char_traits@D@std@@V?$allocator@D@2@@std@@V?$shared_ptr@V?$ofImage_@E@@@2@@std@@PEAU?$_Tree_node@U?$pair@$$CBV?$basic_string@DU?$char_traits@D@std@@V?$allocator@D@2@@std@@V?$shared_ptr@V?$ofImage_@E@@@2@@std@@PEAX@2@@?$_Tree@V?$_Tmap_traits@V?$basic_string@DU?$char_traits@D@std@@V?$allocator@D@2@@std@@V?$shared_ptr@V?$ofImage_@E@@@2@U?$less@V?$basic_string@DU?$char_traits@D@std@@V?$allocator@D@2@@std@@@2@V?$allocator@U?$pair@$$CBV?$basic_string@DU?$char_traits@D@std@@V?$allocator@D@2@@std@@V?$shared_ptr@V?$ofImage_@E@@@2@@std@@@2@$0A@@std@@@std@@IEAA?AV?$_Tree_iterator@V?$_Tree_val@U?$_Tree_simple_types@U?$pair@$$CBV?$basic_string@DU?$char_traits@D@std@@V?$allocator@D@2@@std@@V?$shared_ptr@V?$ofImage_@E@@@2@@std@@@std@@@std@@@1@V?$_Tree_const_iterator@V?$_Tree_val@U?$_Tree_simple_types@U?$pair@$$CBV?$basic_string@DU?$char_traits@D@std@@V?$allocator@D@2@@std@@V?$shared_ptr@V?$ofImage_@E@@@2@@std@@@std@@@std@@@1@AEAU?$pair@$$CBV?$basic_string@DU?$char_traits@D@std@@V?$allocator@D@2@@std@@V?$shared_ptr@V?$ofImage_@E@@@2@@1@PEAU?$_Tree_node@U?$pair@$$CBV?$basic_string@DU?$char_traits@D@std@@V?$allocator@D@2@@std@@V?$shared_ptr@V?$ofImage_@E@@@2@@std@@PEAX@1@@Z
	??$_Insert_nohint@AEAU?$pair@$$CBV?$basic_string@DU?$char_traits@D@std@@V?$allocator@D@2@@std@@V?$ofColor_@E@@@std@@PEAU?$_Tree_node@U?$pair@$$CBV?$basic_string@DU?$char_traits@D@std@@V?$allocator@D@2@@std@@V?$ofColor_@E@@@std@@PEAX@2@@?$_Tree@V?$_Tmap_traits@V?$basic_string@DU?$char_traits@D@std@@V?$allocator@D@2@@std@@V?$ofColor_@E@@U?$less@V?$basic_string@DU?$char_traits@D@std@@V?$allocator@D@2@@std@@@2@V?$allocator@U?$pair@$$CBV?$basic_string@DU?$char_traits@D@std@@V?$allocator@D@2@@std@@V?$ofColor_@E@@@std@@@2@$0A@@std@@@std@@IEAA?AU?$pair@V?$_Tree_iterator@V?$_Tree_val@U?$_Tree_simple_types@U?$pair@$$CBV?$basic_string@DU?$char_traits@D@std@@V?$allocator@D@2@@std@@V?$ofColor_@E@@@std@@@std@@@std@@@std@@_N@1@_NAEAU?$pair@$$CBV?$basic_string@DU?$char_traits@D@std@@V?$allocator@D@2@@std@@V?$ofColor_@E@@@1@PEAU?$_Tree_node@U?$pair@$$CBV?$basic_string@DU?$char_traits@D@std@@V?$allocator@D@2@@std@@V?$ofColor_@E@@@std@@PEAX@1@@Z
	??$_Insert_nohint@AEAU?$pair@$$CBV?$basic_string@DU?$char_traits@D@std@@V?$allocator@D@2@@std@@V?$shared_ptr@V?$ofImage_@E@@@2@@std@@PEAU?$_Tree_node@U?$pair@$$CBV?$basic_string@DU?$char_traits@D@std@@V?$allocator@D@2@@std@@V?$shared_ptr@V?$ofImage_@E@@@2@@std@@PEAX@2@@?$_Tree@V?$_Tmap_traits@V?$basic_string@DU?$char_traits@D@std@@V?$allocator@D@2@@std@@V?$shared_ptr@V?$ofImage_@E@@@2@U?$less@V?$basic_string@DU?$char_traits@D@std@@V?$allocator@D@2@@std@@@2@V?$allocator@U?$pair@$$CBV?$basic_string@DU?$char_traits@D@std@@V?$allocator@D@2@@std@@V?$shared_ptr@V?$ofImage_@E@@@2@@std@@@2@$0A@@std@@@std@@IEAA?AU?$pair@V?$_Tree_iterator@V?$_Tree_val@U?$_Tree_simple_types@U?$pair@$$CBV?$basic_string@DU?$char_traits@D@std@@V?$allocator@D@2@@std@@V?$shared_ptr@V?$ofImage_@E@@@2@@std@@@std@@@std@@@std@@_N@1@_NAEAU?$pair@$$CBV?$basic_string@DU?$char_traits@D@std@@V?$allocator@D@2@@std@@V?$shared_ptr@V?$ofImage_@E@@@2@@1@PEAU?$_Tree_node@U?$pair@$$CBV?$basic_string@DU?$char_traits@D@std@@V?$allocator@D@2@@std@@V?$shared_ptr@V?$ofImage_@E@@@2@@std@@PEAX@1@@Z
	??$_Kfn@$$CBV?$basic_string@DU?$char_traits@D@std@@V?$allocator@D@2@@std@@V?$ofColor_@E@@@?$_Tmap_traits@V?$basic_string@DU?$char_traits@D@std@@V?$allocator@D@2@@std@@V?$ofColor_@E@@U?$less@V?$basic_string@DU?$char_traits@D@std@@V?$allocator@D@2@@std@@@2@V?$allocator@U?$pair@$$CBV?$basic_string@DU?$char_traits@D@std@@V?$allocator@D@2@@std@@V?$ofColor_@E@@@std@@@2@$0A@@std@@SAAEBV?$basic_string@DU?$char_traits@D@std@@V?$allocator@D@2@@1@AEBU?$pair@$$CBV?$basic_string@DU?$char_traits@D@std@@V?$allocator@D@2@@std@@V?$ofColor_@E@@@1@@Z
	??$_Kfn@$$CBV?$basic_string@DU?$char_traits@D@std@@V?$allocator@D@2@@std@@V?$shared_ptr@V?$ofImage_@E@@@2@@?$_Tmap_traits@V?$basic_string@DU?$char_traits@D@std@@V?$allocator@D@2@@std@@V?$shared_ptr@V?$ofImage_@E@@@2@U?$less@V?$basic_string@DU?$char_traits@D@std@@V?$allocator@D@2@@std@@@2@V?$allocator@U?$pair@$$CBV?$basic_string@DU?$char_traits@D@std@@V?$allocator@D@2@@std@@V?$shared_ptr@V?$ofImage_@E@@@2@@std@@@2@$0A@@std@@SAAEBV?$basic_string@DU?$char_traits@D@std@@V?$allocator@D@2@@1@AEBU?$pair@$$CBV?$basic_string@DU?$char_traits@D@std@@V?$allocator@D@2@@std@@V?$shared_ptr@V?$ofImage_@E@@@2@@1@@Z
	??$_Lbound@V?$basic_string@DU?$char_traits@D@std@@V?$allocator@D@2@@std@@@?$_Tree@V?$_Tmap_traits@V?$basic_string@DU?$char_traits@D@std@@V?$allocator@D@2@@std@@V?$ofColor_@E@@U?$less@V?$basic_string@DU?$char_traits@D@std@@V?$allocator@D@2@@std@@@2@V?$allocator@U?$pair@$$CBV?$basic_string@DU?$char_traits@D@std@@V?$allocator@D@2@@std@@V?$ofColor_@E@@@std@@@2@$0A@@std@@@std@@IEBAPEAU?$_Tree_node@U?$pair@$$CBV?$basic_string@DU?$char_traits@D@std@@V?$allocator@D@2@@std@@V?$ofColor_@E@@@std@@PEAX@1@AEBV?$basic_string@DU?$char_traits@D@std@@V?$allocator@D@2@@1@@Z
	??$_Lbound@V?$basic_string@DU?$char_traits@D@std@@V?$allocator@D@2@@std@@@?$_Tree@V?$_Tmap_traits@V?$basic_string@DU?$char_traits@D@std@@V?$allocator@D@2@@std@@V?$shared_ptr@V?$ofImage_@E@@@2@U?$less@V?$basic_string@DU?$char_traits@D@std@@V?$allocator@D@2@@std@@@2@V?$allocator@U?$pair@$$CBV?$basic_string@DU?$char_traits@D@std@@V?$allocator@D@2@@std@@V?$shared_ptr@V?$ofImage_@E@@@2@@std@@@2@$0A@@std@@@std@@IEBAPEAU?$_Tree_node@U?$pair@$$CBV?$basic_string@DU?$char_traits@D@std@@V?$allocator@D@2@@std@@V?$shared_ptr@V?$ofImage_@E@@@2@@std@@PEAX@1@AEBV?$basic_string@DU?$char_traits@D@std@@V?$allocator@D@2@@1@@Z
	??$_Move@AEAD@std@@YA$$QEADAEAD@Z
	??$_Move@AEAPEAV?$ofImage_@E@@@std@@YA$$QEAPEAV?$ofImage_@E@@AEAPEAV1@@Z
	??$_Reset@V?$ofImage_@E@@@?$_Ptr_base@V?$ofImage_@E@@@std@@QEAAXAEBV01@@Z
	??$_Resetp0@V?$ofImage_@E@@@?$shared_ptr@V?$ofImage_@E@@@std@@QEAAXPEAV?$ofImage_@E@@PEAV_Ref_count_base@1@@Z
	??$addressof@PEAU?$_Tree_node@U?$pair@$$CBV?$basic_string@DU?$char_traits@D@std@@V?$allocator@D@2@@std@@V?$ofColor_@E@@@std@@PEAX@std@@@std@@YAPEAPEAU?$_Tree_node@U?$pair@$$CBV?$basic_string@DU?$char_traits@D@std@@V?$allocator@D@2@@std@@V?$ofColor_@E@@@std@@PEAX@0@AEAPEAU10@@Z
	??$addressof@PEAU?$_Tree_node@U?$pair@$$CBV?$basic_string@DU?$char_traits@D@std@@V?$allocator@D@2@@std@@V?$shared_ptr@V?$ofImage_@E@@@2@@std@@PEAX@std@@@std@@YAPEAPEAU?$_Tree_node@U?$pair@$$CBV?$basic_string@DU?$char_traits@D@std@@V?$allocator@D@2@@std@@V?$shared_ptr@V?$ofImage_@E@@@2@@std@@PEAX@0@AEAPEAU10@@Z
	??$addressof@U?$pair@$$CBV?$basic_string@DU?$char_traits@D@std@@V?$allocator@D@2@@std@@V?$ofColor_@E@@@std@@@std@@YAPEAU?$pair@$$CBV?$basic_string@DU?$char_traits@D@std@@V?$allocator@D@2@@std@@V?$ofColor_@E@@@0@AEAU10@@Z
	??$addressof@U?$pair@$$CBV?$basic_string@DU?$char_traits@D@std@@V?$allocator@D@2@@std@@V?$shared_ptr@V?$ofImage_@E@@@2@@std@@@std@@YAPEAU?$pair@$$CBV?$basic_string@DU?$char_traits@D@std@@V?$allocator@D@2@@std@@V?$shared_ptr@V?$ofImage_@E@@@2@@0@AEAU10@@Z
	??$clone@E@?$ofImage_@E@@QEAAXAEBV0@@Z
	??$construct@PEAU?$_Tree_node@U?$pair@$$CBV?$basic_string@DU?$char_traits@D@std@@V?$allocator@D@2@@std@@V?$ofColor_@E@@@std@@PEAX@std@@AEAPEAU12@@?$_Wrap_alloc@V?$allocator@U?$_Tree_node@U?$pair@$$CBV?$basic_string@DU?$char_traits@D@std@@V?$allocator@D@2@@std@@V?$ofColor_@E@@@std@@PEAX@std@@@std@@@std@@QEAAXPEAPEAU?$_Tree_node@U?$pair@$$CBV?$basic_string@DU?$char_traits@D@std@@V?$allocator@D@2@@std@@V?$ofColor_@E@@@std@@PEAX@1@AEAPEAU21@@Z
	??$construct@PEAU?$_Tree_node@U?$pair@$$CBV?$basic_string@DU?$char_traits@D@std@@V?$allocator@D@2@@std@@V?$ofColor_@E@@@std@@PEAX@std@@AEAPEAU12@@?$allocator@U?$_Tree_node@U?$pair@$$CBV?$basic_string@DU?$char_traits@D@std@@V?$allocator@D@2@@std@@V?$ofColor_@E@@@std@@PEAX@std@@@std@@QEAAXPEAPEAU?$_Tree_node@U?$pair@$$CBV?$basic_string@DU?$char_traits@D@std@@V?$allocator@D@2@@std@@V?$ofColor_@E@@@std@@PEAX@1@AEAPEAU21@@Z
	??$construct@PEAU?$_Tree_node@U?$pair@$$CBV?$basic_string@DU?$char_traits@D@std@@V?$allocator@D@2@@std@@V?$ofColor_@E@@@std@@PEAX@std@@AEAPEAU12@@?$allocator_traits@V?$allocator@U?$_Tree_node@U?$pair@$$CBV?$basic_string@DU?$char_traits@D@std@@V?$allocator@D@2@@std@@V?$ofColor_@E@@@std@@PEAX@std@@@std@@@std@@SAXAEAV?$allocator@U?$_Tree_node@U?$pair@$$CBV?$basic_string@DU?$char_traits@D@std@@V?$allocator@D@2@@std@@V?$ofColor_@E@@@std@@PEAX@std@@@1@PEAPEAU?$_Tree_node@U?$pair@$$CBV?$basic_string@DU?$char_traits@D@std@@V?$allocator@D@2@@std@@V?$ofColor_@E@@@std@@PEAX@1@AEAPEAU31@@Z
	??$construct@PEAU?$_Tree_node@U?$pair@$$CBV?$basic_string@DU?$char_traits@D@std@@V?$allocator@D@2@@std@@V?$shared_ptr@V?$ofImage_@E@@@2@@std@@PEAX@std@@AEAPEAU12@@?$_Wrap_alloc@V?$allocator@U?$_Tree_node@U?$pair@$$CBV?$basic_string@DU?$char_traits@D@std@@V?$allocator@D@2@@std@@V?$shared_ptr@V?$ofImage_@E@@@2@@std@@PEAX@std@@@std@@@std@@QEAAXPEAPEAU?$_Tree_node@U?$pair@$$CBV?$basic_string@DU?$char_traits@D@std@@V?$allocator@D@2@@std@@V?$shared_ptr@V?$ofImage_@E@@@2@@std@@PEAX@1@AEAPEAU21@@Z
	??$construct@PEAU?$_Tree_node@U?$pair@$$CBV?$basic_string@DU?$char_traits@D@std@@V?$allocator@D@2@@std@@V?$shared_ptr@V?$ofImage_@E@@@2@@std@@PEAX@std@@AEAPEAU12@@?$allocator@U?$_Tree_node@U?$pair@$$CBV?$basic_string@DU?$char_traits@D@std@@V?$allocator@D@2@@std@@V?$shared_ptr@V?$ofImage_@E@@@2@@std@@PEAX@std@@@std@@QEAAXPEAPEAU?$_Tree_node@U?$pair@$$CBV?$basic_string@DU?$char_traits@D@std@@V?$allocator@D@2@@std@@V?$shared_ptr@V?$ofImage_@E@@@2@@std@@PEAX@1@AEAPEAU21@@Z
	??$construct@PEAU?$_Tree_node@U?$pair@$$CBV?$basic_string@DU?$char_traits@D@std@@V?$allocator@D@2@@std@@V?$shared_ptr@V?$ofImage_@E@@@2@@std@@PEAX@std@@AEAPEAU12@@?$allocator_traits@V?$allocator@U?$_Tree_node@U?$pair@$$CBV?$basic_string@DU?$char_traits@D@std@@V?$allocator@D@2@@std@@V?$shared_ptr@V?$ofImage_@E@@@2@@std@@PEAX@std@@@std@@@std@@SAXAEAV?$allocator@U?$_Tree_node@U?$pair@$$CBV?$basic_string@DU?$char_traits@D@std@@V?$allocator@D@2@@std@@V?$shared_ptr@V?$ofImage_@E@@@2@@std@@PEAX@std@@@1@PEAPEAU?$_Tree_node@U?$pair@$$CBV?$basic_string@DU?$char_traits@D@std@@V?$allocator@D@2@@std@@V?$shared_ptr@V?$ofImage_@E@@@2@@std@@PEAX@1@AEAPEAU31@@Z
	??$construct@U?$pair@$$CBV?$basic_string@DU?$char_traits@D@std@@V?$allocator@D@2@@std@@V?$ofColor_@E@@@std@@AEBUpiecewise_construct_t@2@V?$tuple@AEBV?$basic_string@DU?$char_traits@D@std@@V?$allocator@D@2@@std@@@2@V?$tuple@$$V@2@@?$_Wrap_alloc@V?$allocator@U?$_Tree_node@U?$pair@$$CBV?$basic_string@DU?$char_traits@D@std@@V?$allocator@D@2@@std@@V?$ofColor_@E@@@std@@PEAX@std@@@std@@@std@@QEAAXPEAU?$pair@$$CBV?$basic_string@DU?$char_traits@D@std@@V?$allocator@D@2@@std@@V?$ofColor_@E@@@1@AEBUpiecewise_construct_t@1@$$QEAV?$tuple@AEBV?$basic_string@DU?$char_traits@D@std@@V?$allocator@D@2@@std@@@1@$$QEAV?$tuple@$$V@1@@Z
	??$construct@U?$pair@$$CBV?$basic_string@DU?$char_traits@D@std@@V?$allocator@D@2@@std@@V?$ofColor_@E@@@std@@AEBUpiecewise_construct_t@2@V?$tuple@AEBV?$basic_string@DU?$char_traits@D@std@@V?$allocator@D@2@@std@@@2@V?$tuple@$$V@2@@?$allocator@U?$_Tree_node@U?$pair@$$CBV?$basic_string@DU?$char_traits@D@std@@V?$allocator@D@2@@std@@V?$ofColor_@E@@@std@@PEAX@std@@@std@@QEAAXPEAU?$pair@$$CBV?$basic_string@DU?$char_traits@D@std@@V?$allocator@D@2@@std@@V?$ofColor_@E@@@1@AEBUpiecewise_construct_t@1@$$QEAV?$tuple@AEBV?$basic_string@DU?$char_traits@D@std@@V?$allocator@D@2@@std@@@1@$$QEAV?$tuple@$$V@1@@Z
	??$construct@U?$pair@$$CBV?$basic_string@DU?$char_traits@D@std@@V?$allocator@D@2@@std@@V?$ofColor_@E@@@std@@AEBUpiecewise_construct_t@2@V?$tuple@AEBV?$basic_string@DU?$char_traits@D@std@@V?$allocator@D@2@@std@@@2@V?$tuple@$$V@2@@?$allocator_traits@V?$allocator@U?$_Tree_node@U?$pair@$$CBV?$basic_string@DU?$char_traits@D@std@@V?$allocator@D@2@@std@@V?$ofColor_@E@@@std@@PEAX@std@@@std@@@std@@SAXAEAV?$allocator@U?$_Tree_node@U?$pair@$$CBV?$basic_string@DU?$char_traits@D@std@@V?$allocator@D@2@@std@@V?$ofColor_@E@@@std@@PEAX@std@@@1@PEAU?$pair@$$CBV?$basic_string@DU?$char_traits@D@std@@V?$allocator@D@2@@std@@V?$ofColor_@E@@@1@AEBUpiecewise_construct_t@1@$$QEAV?$tuple@AEBV?$basic_string@DU?$char_traits@D@std@@V?$allocator@D@2@@std@@@1@$$QEAV?$tuple@$$V@1@@Z
	??$construct@U?$pair@$$CBV?$basic_string@DU?$char_traits@D@std@@V?$allocator@D@2@@std@@V?$ofColor_@E@@@std@@AEBV?$basic_string@DU?$char_traits@D@std@@V?$allocator@D@2@@2@AEAV?$ofColor_@E@@@?$_Wrap_alloc@V?$allocator@U?$_Tree_node@U?$pair@$$CBV?$basic_string@DU?$char_traits@D@std@@V?$allocator@D@2@@std@@V?$ofColor_@E@@@std@@PEAX@std@@@std@@@std@@QEAAXPEAU?$pair@$$CBV?$basic_string@DU?$char_traits@D@std@@V?$allocator@D@2@@std@@V?$ofColor_@E@@@1@AEBV?$basic_string@DU?$char_traits@D@std@@V?$allocator@D@2@@1@AEAV?$ofColor_@E@@@Z
	??$construct@U?$pair@$$CBV?$basic_string@DU?$char_traits@D@std@@V?$allocator@D@2@@std@@V?$ofColor_@E@@@std@@AEBV?$basic_string@DU?$char_traits@D@std@@V?$allocator@D@2@@2@AEAV?$ofColor_@E@@@?$allocator@U?$_Tree_node@U?$pair@$$CBV?$basic_string@DU?$char_traits@D@std@@V?$allocator@D@2@@std@@V?$ofColor_@E@@@std@@PEAX@std@@@std@@QEAAXPEAU?$pair@$$CBV?$basic_string@DU?$char_traits@D@std@@V?$allocator@D@2@@std@@V?$ofColor_@E@@@1@AEBV?$basic_string@DU?$char_traits@D@std@@V?$allocator@D@2@@1@AEAV?$ofColor_@E@@@Z
	??$construct@U?$pair@$$CBV?$basic_string@DU?$char_traits@D@std@@V?$allocator@D@2@@std@@V?$ofColor_@E@@@std@@AEBV?$basic_string@DU?$char_traits@D@std@@V?$allocator@D@2@@2@AEAV?$ofColor_@E@@@?$allocator_traits@V?$allocator@U?$_Tree_node@U?$pair@$$CBV?$basic_string@DU?$char_traits@D@std@@V?$allocator@D@2@@std@@V?$ofColor_@E@@@std@@PEAX@std@@@std@@@std@@SAXAEAV?$allocator@U?$_Tree_node@U?$pair@$$CBV?$basic_string@DU?$char_traits@D@std@@V?$allocator@D@2@@std@@V?$ofColor_@E@@@std@@PEAX@std@@@1@PEAU?$pair@$$CBV?$basic_string@DU?$char_traits@D@std@@V?$allocator@D@2@@std@@V?$ofColor_@E@@@1@AEBV?$basic_string@DU?$char_traits@D@std@@V?$allocator@D@2@@1@AEAV?$ofColor_@E@@@Z
	??$construct@U?$pair@$$CBV?$basic_string@DU?$char_traits@D@std@@V?$allocator@D@2@@std@@V?$shared_ptr@V?$ofImage_@E@@@2@@std@@AEAU?$pair@V?$basic_string@DU?$char_traits@D@std@@V?$allocator@D@2@@std@@V?$shared_ptr@V?$ofImage_@E@@@2@@2@@?$_Wrap_alloc@V?$allocator@U?$_Tree_node@U?$pair@$$CBV?$basic_string@DU?$char_traits@D@std@@V?$allocator@D@2@@std@@V?$shared_ptr@V?$ofImage_@E@@@2@@std@@PEAX@std@@@std@@@std@@QEAAXPEAU?$pair@$$CBV?$basic_string@DU?$char_traits@D@std@@V?$allocator@D@2@@std@@V?$shared_ptr@V?$ofImage_@E@@@2@@1@AEAU?$pair@V?$basic_string@DU?$char_traits@D@std@@V?$allocator@D@2@@std@@V?$shared_ptr@V?$ofImage_@E@@@2@@1@@Z
	??$construct@U?$pair@$$CBV?$basic_string@DU?$char_traits@D@std@@V?$allocator@D@2@@std@@V?$shared_ptr@V?$ofImage_@E@@@2@@std@@AEAU?$pair@V?$basic_string@DU?$char_traits@D@std@@V?$allocator@D@2@@std@@V?$shared_ptr@V?$ofImage_@E@@@2@@2@@?$allocator@U?$_Tree_node@U?$pair@$$CBV?$basic_string@DU?$char_traits@D@std@@V?$allocator@D@2@@std@@V?$shared_ptr@V?$ofImage_@E@@@2@@std@@PEAX@std@@@std@@QEAAXPEAU?$pair@$$CBV?$basic_string@DU?$char_traits@D@std@@V?$allocator@D@2@@std@@V?$shared_ptr@V?$ofImage_@E@@@2@@1@AEAU?$pair@V?$basic_string@DU?$char_traits@D@std@@V?$allocator@D@2@@std@@V?$shared_ptr@V?$ofImage_@E@@@2@@1@@Z
	??$construct@U?$pair@$$CBV?$basic_string@DU?$char_traits@D@std@@V?$allocator@D@2@@std@@V?$shared_ptr@V?$ofImage_@E@@@2@@std@@AEAU?$pair@V?$basic_string@DU?$char_traits@D@std@@V?$allocator@D@2@@std@@V?$shared_ptr@V?$ofImage_@E@@@2@@2@@?$allocator_traits@V?$allocator@U?$_Tree_node@U?$pair@$$CBV?$basic_string@DU?$char_traits@D@std@@V?$allocator@D@2@@std@@V?$shared_ptr@V?$ofImage_@E@@@2@@std@@PEAX@std@@@std@@@std@@SAXAEAV?$allocator@U?$_Tree_node@U?$pair@$$CBV?$basic_string@DU?$char_traits@D@std@@V?$allocator@D@2@@std@@V?$shared_ptr@V?$ofImage_@E@@@2@@std@@PEAX@std@@@1@PEAU?$pair@$$CBV?$basic_string@DU?$char_traits@D@std@@V?$allocator@D@2@@std@@V?$shared_ptr@V?$ofImage_@E@@@2@@1@AEAU?$pair@V?$basic_string@DU?$char_traits@D@std@@V?$allocator@D@2@@std@@V?$shared_ptr@V?$ofImage_@E@@@2@@1@@Z
	??$construct@U?$pair@$$CBV?$basic_string@DU?$char_traits@D@std@@V?$allocator@D@2@@std@@V?$shared_ptr@V?$ofImage_@E@@@2@@std@@AEBUpiecewise_construct_t@2@V?$tuple@AEBV?$basic_string@DU?$char_traits@D@std@@V?$allocator@D@2@@std@@@2@V?$tuple@$$V@2@@?$_Wrap_alloc@V?$allocator@U?$_Tree_node@U?$pair@$$CBV?$basic_string@DU?$char_traits@D@std@@V?$allocator@D@2@@std@@V?$shared_ptr@V?$ofImage_@E@@@2@@std@@PEAX@std@@@std@@@std@@QEAAXPEAU?$pair@$$CBV?$basic_string@DU?$char_traits@D@std@@V?$allocator@D@2@@std@@V?$shared_ptr@V?$ofImage_@E@@@2@@1@AEBUpiecewise_construct_t@1@$$QEAV?$tuple@AEBV?$basic_string@DU?$char_traits@D@std@@V?$allocator@D@2@@std@@@1@$$QEAV?$tuple@$$V@1@@Z
	??$construct@U?$pair@$$CBV?$basic_string@DU?$char_traits@D@std@@V?$allocator@D@2@@std@@V?$shared_ptr@V?$ofImage_@E@@@2@@std@@AEBUpiecewise_construct_t@2@V?$tuple@AEBV?$basic_string@DU?$char_traits@D@std@@V?$allocator@D@2@@std@@@2@V?$tuple@$$V@2@@?$allocator@U?$_Tree_node@U?$pair@$$CBV?$basic_string@DU?$char_traits@D@std@@V?$allocator@D@2@@std@@V?$shared_ptr@V?$ofImage_@E@@@2@@std@@PEAX@std@@@std@@QEAAXPEAU?$pair@$$CBV?$basic_string@DU?$char_traits@D@std@@V?$allocator@D@2@@std@@V?$shared_ptr@V?$ofImage_@E@@@2@@1@AEBUpiecewise_construct_t@1@$$QEAV?$tuple@AEBV?$basic_string@DU?$char_traits@D@std@@V?$allocator@D@2@@std@@@1@$$QEAV?$tuple@$$V@1@@Z
	??$construct@U?$pair@$$CBV?$basic_string@DU?$char_traits@D@std@@V?$allocator@D@2@@std@@V?$shared_ptr@V?$ofImage_@E@@@2@@std@@AEBUpiecewise_construct_t@2@V?$tuple@AEBV?$basic_string@DU?$char_traits@D@std@@V?$allocator@D@2@@std@@@2@V?$tuple@$$V@2@@?$allocator_traits@V?$allocator@U?$_Tree_node@U?$pair@$$CBV?$basic_string@DU?$char_traits@D@std@@V?$allocator@D@2@@std@@V?$shared_ptr@V?$ofImage_@E@@@2@@std@@PEAX@std@@@std@@@std@@SAXAEAV?$allocator@U?$_Tree_node@U?$pair@$$CBV?$basic_string@DU?$char_traits@D@std@@V?$allocator@D@2@@std@@V?$shared_ptr@V?$ofImage_@E@@@2@@std@@PEAX@std@@@1@PEAU?$pair@$$CBV?$basic_string@DU?$char_traits@D@std@@V?$allocator@D@2@@std@@V?$shared_ptr@V?$ofImage_@E@@@2@@1@AEBUpiecewise_construct_t@1@$$QEAV?$tuple@AEBV?$basic_string@DU?$char_traits@D@std@@V?$allocator@D@2@@std@@@1@$$QEAV?$tuple@$$V@1@@Z
	??$destroy@PEAU?$_Tree_node@U?$pair@$$CBV?$basic_string@DU?$char_traits@D@std@@V?$allocator@D@2@@std@@V?$ofColor_@E@@@std@@PEAX@std@@@?$_Wrap_alloc@V?$allocator@U?$_Tree_node@U?$pair@$$CBV?$basic_string@DU?$char_traits@D@std@@V?$allocator@D@2@@std@@V?$ofColor_@E@@@std@@PEAX@std@@@std@@@std@@QEAAXPEAPEAU?$_Tree_node@U?$pair@$$CBV?$basic_string@DU?$char_traits@D@std@@V?$allocator@D@2@@std@@V?$ofColor_@E@@@std@@PEAX@1@@Z
	??$destroy@PEAU?$_Tree_node@U?$pair@$$CBV?$basic_string@DU?$char_traits@D@std@@V?$allocator@D@2@@std@@V?$ofColor_@E@@@std@@PEAX@std@@@?$allocator@U?$_Tree_node@U?$pair@$$CBV?$basic_string@DU?$char_traits@D@std@@V?$allocator@D@2@@std@@V?$ofColor_@E@@@std@@PEAX@std@@@std@@QEAAXPEAPEAU?$_Tree_node@U?$pair@$$CBV?$basic_string@DU?$char_traits@D@std@@V?$allocator@D@2@@std@@V?$ofColor_@E@@@std@@PEAX@1@@Z
	??$destroy@PEAU?$_Tree_node@U?$pair@$$CBV?$basic_string@DU?$char_traits@D@std@@V?$allocator@D@2@@std@@V?$ofColor_@E@@@std@@PEAX@std@@@?$allocator_traits@V?$allocator@U?$_Tree_node@U?$pair@$$CBV?$basic_string@DU?$char_traits@D@std@@V?$allocator@D@2@@std@@V?$ofColor_@E@@@std@@PEAX@std@@@std@@@std@@SAXAEAV?$allocator@U?$_Tree_node@U?$pair@$$CBV?$basic_string@DU?$char_traits@D@std@@V?$allocator@D@2@@std@@V?$ofColor_@E@@@std@@PEAX@std@@@1@PEAPEAU?$_Tree_node@U?$pair@$$CBV?$basic_string@DU?$char_traits@D@std@@V?$allocator@D@2@@std@@V?$ofColor_@E@@@std@@PEAX@1@@Z
	??$destroy@PEAU?$_Tree_node@U?$pair@$$CBV?$basic_string@DU?$char_traits@D@std@@V?$allocator@D@2@@std@@V?$shared_ptr@V?$ofImage_@E@@@2@@std@@PEAX@std@@@?$_Wrap_alloc@V?$allocator@U?$_Tree_node@U?$pair@$$CBV?$basic_string@DU?$char_traits@D@std@@V?$allocator@D@2@@std@@V?$shared_ptr@V?$ofImage_@E@@@2@@std@@PEAX@std@@@std@@@std@@QEAAXPEAPEAU?$_Tree_node@U?$pair@$$CBV?$basic_string@DU?$char_traits@D@std@@V?$allocator@D@2@@std@@V?$shared_ptr@V?$ofImage_@E@@@2@@std@@PEAX@1@@Z
	??$destroy@PEAU?$_Tree_node@U?$pair@$$CBV?$basic_string@DU?$char_traits@D@std@@V?$allocator@D@2@@std@@V?$shared_ptr@V?$ofImage_@E@@@2@@std@@PEAX@std@@@?$allocator@U?$_Tree_node@U?$pair@$$CBV?$basic_string@DU?$char_traits@D@std@@V?$allocator@D@2@@std@@V?$shared_ptr@V?$ofImage_@E@@@2@@std@@PEAX@std@@@std@@QEAAXPEAPEAU?$_Tree_node@U?$pair@$$CBV?$basic_string@DU?$char_traits@D@std@@V?$allocator@D@2@@std@@V?$shared_ptr@V?$ofImage_@E@@@2@@std@@PEAX@1@@Z
	??$destroy@PEAU?$_Tree_node@U?$pair@$$CBV?$basic_string@DU?$char_traits@D@std@@V?$allocator@D@2@@std@@V?$shared_ptr@V?$ofImage_@E@@@2@@std@@PEAX@std@@@?$allocator_traits@V?$allocator@U?$_Tree_node@U?$pair@$$CBV?$basic_string@DU?$char_traits@D@std@@V?$allocator@D@2@@std@@V?$shared_ptr@V?$ofImage_@E@@@2@@std@@PEAX@std@@@std@@@std@@SAXAEAV?$allocator@U?$_Tree_node@U?$pair@$$CBV?$basic_string@DU?$char_traits@D@std@@V?$allocator@D@2@@std@@V?$shared_ptr@V?$ofImage_@E@@@2@@std@@PEAX@std@@@1@PEAPEAU?$_Tree_node@U?$pair@$$CBV?$basic_string@DU?$char_traits@D@std@@V?$allocator@D@2@@std@@V?$shared_ptr@V?$ofImage_@E@@@2@@std@@PEAX@1@@Z
	??$destroy@U?$pair@$$CBV?$basic_string@DU?$char_traits@D@std@@V?$allocator@D@2@@std@@V?$ofColor_@E@@@std@@@?$_Wrap_alloc@V?$allocator@U?$_Tree_node@U?$pair@$$CBV?$basic_string@DU?$char_traits@D@std@@V?$allocator@D@2@@std@@V?$ofColor_@E@@@std@@PEAX@std@@@std@@@std@@QEAAXPEAU?$pair@$$CBV?$basic_string@DU?$char_traits@D@std@@V?$allocator@D@2@@std@@V?$ofColor_@E@@@1@@Z
	??$destroy@U?$pair@$$CBV?$basic_string@DU?$char_traits@D@std@@V?$allocator@D@2@@std@@V?$ofColor_@E@@@std@@@?$allocator@U?$_Tree_node@U?$pair@$$CBV?$basic_string@DU?$char_traits@D@std@@V?$allocator@D@2@@std@@V?$ofColor_@E@@@std@@PEAX@std@@@std@@QEAAXPEAU?$pair@$$CBV?$basic_string@DU?$char_traits@D@std@@V?$allocator@D@2@@std@@V?$ofColor_@E@@@1@@Z
	??$destroy@U?$pair@$$CBV?$basic_string@DU?$char_traits@D@std@@V?$allocator@D@2@@std@@V?$ofColor_@E@@@std@@@?$allocator_traits@V?$allocator@U?$_Tree_node@U?$pair@$$CBV?$basic_string@DU?$char_traits@D@std@@V?$allocator@D@2@@std@@V?$ofColor_@E@@@std@@PEAX@std@@@std@@@std@@SAXAEAV?$allocator@U?$_Tree_node@U?$pair@$$CBV?$basic_string@DU?$char_traits@D@std@@V?$allocator@D@2@@std@@V?$ofColor_@E@@@std@@PEAX@std@@@1@PEAU?$pair@$$CBV?$basic_string@DU?$char_traits@D@std@@V?$allocator@D@2@@std@@V?$ofColor_@E@@@1@@Z
	??$destroy@U?$pair@$$CBV?$basic_string@DU?$char_traits@D@std@@V?$allocator@D@2@@std@@V?$shared_ptr@V?$ofImage_@E@@@2@@std@@@?$_Wrap_alloc@V?$allocator@U?$_Tree_node@U?$pair@$$CBV?$basic_string@DU?$char_traits@D@std@@V?$allocator@D@2@@std@@V?$shared_ptr@V?$ofImage_@E@@@2@@std@@PEAX@std@@@std@@@std@@QEAAXPEAU?$pair@$$CBV?$basic_string@DU?$char_traits@D@std@@V?$allocator@D@2@@std@@V?$shared_ptr@V?$ofImage_@E@@@2@@1@@Z
	??$destroy@U?$pair@$$CBV?$basic_string@DU?$char_traits@D@std@@V?$allocator@D@2@@std@@V?$shared_ptr@V?$ofImage_@E@@@2@@std@@@?$allocator@U?$_Tree_node@U?$pair@$$CBV?$basic_string@DU?$char_traits@D@std@@V?$allocator@D@2@@std@@V?$shared_ptr@V?$ofImage_@E@@@2@@std@@PEAX@std@@@std@@QEAAXPEAU?$pair@$$CBV?$basic_string@DU?$char_traits@D@std@@V?$allocator@D@2@@std@@V?$shared_ptr@V?$ofImage_@E@@@2@@1@@Z
	??$destroy@U?$pair@$$CBV?$basic_string@DU?$char_traits@D@std@@V?$allocator@D@2@@std@@V?$shared_ptr@V?$ofImage_@E@@@2@@std@@@?$allocator_traits@V?$allocator@U?$_Tree_node@U?$pair@$$CBV?$basic_string@DU?$char_traits@D@std@@V?$allocator@D@2@@std@@V?$shared_ptr@V?$ofImage_@E@@@2@@std@@PEAX@std@@@std@@@std@@SAXAEAV?$allocator@U?$_Tree_node@U?$pair@$$CBV?$basic_string@DU?$char_traits@D@std@@V?$allocator@D@2@@std@@V?$shared_ptr@V?$ofImage_@E@@@2@@std@@PEAX@std@@@1@PEAU?$pair@$$CBV?$basic_string@DU?$char_traits@D@std@@V?$allocator@D@2@@std@@V?$shared_ptr@V?$ofImage_@E@@@2@@1@@Z
	??$emplace@AEBV?$basic_string@DU?$char_traits@D@std@@V?$allocator@D@2@@std@@AEAV?$ofColor_@E@@@?$_Tree@V?$_Tmap_traits@V?$basic_string@DU?$char_traits@D@std@@V?$allocator@D@2@@std@@V?$ofColor_@E@@U?$less@V?$basic_string@DU?$char_traits@D@std@@V?$allocator@D@2@@std@@@2@V?$allocator@U?$pair@$$CBV?$basic_string@DU?$char_traits@D@std@@V?$allocator@D@2@@std@@V?$ofColor_@E@@@std@@@2@$0A@@std@@@std@@QEAA?AU?$pair@V?$_Tree_iterator@V?$_Tree_val@U?$_Tree_simple_types@U?$pair@$$CBV?$basic_string@DU?$char_traits@D@std@@V?$allocator@D@2@@std@@V?$ofColor_@E@@@std@@@std@@@std@@@std@@_N@1@AEBV?$basic_string@DU?$char_traits@D@std@@V?$allocator@D@2@@1@AEAV?$ofColor_@E@@@Z
	??$emplace_hint@AEBUpiecewise_construct_t@std@@V?$tuple@AEBV?$basic_string@DU?$char_traits@D@std@@V?$allocator@D@2@@std@@@2@V?$tuple@$$V@2@@?$_Tree@V?$_Tmap_traits@V?$basic_string@DU?$char_traits@D@std@@V?$allocator@D@2@@std@@V?$ofColor_@E@@U?$less@V?$basic_string@DU?$char_traits@D@std@@V?$allocator@D@2@@std@@@2@V?$allocator@U?$pair@$$CBV?$basic_string@DU?$char_traits@D@std@@V?$allocator@D@2@@std@@V?$ofColor_@E@@@std@@@2@$0A@@std@@@std@@QEAA?AV?$_Tree_iterator@V?$_Tree_val@U?$_Tree_simple_types@U?$pair@$$CBV?$basic_string@DU?$char_traits@D@std@@V?$allocator@D@2@@std@@V?$ofColor_@E@@@std@@@std@@@std@@@1@V?$_Tree_const_iterator@V?$_Tree_val@U?$_Tree_simple_types@U?$pair@$$CBV?$basic_string@DU?$char_traits@D@std@@V?$allocator@D@2@@std@@V?$ofColor_@E@@@std@@@std@@@std@@@1@AEBUpiecewise_construct_t@1@$$QEAV?$tuple@AEBV?$basic_string@DU?$char_traits@D@std@@V?$allocator@D@2@@std@@@1@$$QEAV?$tuple@$$V@1@@Z
	??$emplace_hint@AEBUpiecewise_construct_t@std@@V?$tuple@AEBV?$basic_string@DU?$char_traits@D@std@@V?$allocator@D@2@@std@@@2@V?$tuple@$$V@2@@?$_Tree@V?$_Tmap_traits@V?$basic_string@DU?$char_traits@D@std@@V?$allocator@D@2@@std@@V?$shared_ptr@V?$ofImage_@E@@@2@U?$less@V?$basic_string@DU?$char_traits@D@std@@V?$allocator@D@2@@std@@@2@V?$allocator@U?$pair@$$CBV?$basic_string@DU?$char_traits@D@std@@V?$allocator@D@2@@std@@V?$shared_ptr@V?$ofImage_@E@@@2@@std@@@2@$0A@@std@@@std@@QEAA?AV?$_Tree_iterator@V?$_Tree_val@U?$_Tree_simple_types@U?$pair@$$CBV?$basic_string@DU?$char_traits@D@std@@V?$allocator@D@2@@std@@V?$shared_ptr@V?$ofImage_@E@@@2@@std@@@std@@@std@@@1@V?$_Tree_const_iterator@V?$_Tree_val@U?$_Tree_simple_types@U?$pair@$$CBV?$basic_string@DU?$char_traits@D@std@@V?$allocator@D@2@@std@@V?$shared_ptr@V?$ofImage_@E@@@2@@std@@@std@@@std@@@1@AEBUpiecewise_construct_t@1@$$QEAV?$tuple@AEBV?$basic_string@DU?$char_traits@D@std@@V?$allocator@D@2@@std@@@1@$$QEAV?$tuple@$$V@1@@Z
	??$forward@AEAPEAU?$_Tree_node@U?$pair@$$CBV?$basic_string@DU?$char_traits@D@std@@V?$allocator@D@2@@std@@V?$ofColor_@E@@@std@@PEAX@std@@@std@@YAAEAPEAU?$_Tree_node@U?$pair@$$CBV?$basic_string@DU?$char_traits@D@std@@V?$allocator@D@2@@std@@V?$ofColor_@E@@@std@@PEAX@0@AEAPEAU10@@Z
	??$forward@AEAPEAU?$_Tree_node@U?$pair@$$CBV?$basic_string@DU?$char_traits@D@std@@V?$allocator@D@2@@std@@V?$shared_ptr@V?$ofImage_@E@@@2@@std@@PEAX@std@@@std@@YAAEAPEAU?$_Tree_node@U?$pair@$$CBV?$basic_string@DU?$char_traits@D@std@@V?$allocator@D@2@@std@@V?$shared_ptr@V?$ofImage_@E@@@2@@std@@PEAX@0@AEAPEAU10@@Z
	??$forward@AEAU?$pair@$$CBV?$basic_string@DU?$char_traits@D@std@@V?$allocator@D@2@@std@@V?$ofColor_@E@@@std@@@std@@YAAEAU?$pair@$$CBV?$basic_string@DU?$char_traits@D@std@@V?$allocator@D@2@@std@@V?$ofColor_@E@@@0@AEAU10@@Z
	??$forward@AEAU?$pair@$$CBV?$basic_string@DU?$char_traits@D@std@@V?$allocator@D@2@@std@@V?$shared_ptr@V?$ofImage_@E@@@2@@std@@@std@@YAAEAU?$pair@$$CBV?$basic_string@DU?$char_traits@D@std@@V?$allocator@D@2@@std@@V?$shared_ptr@V?$ofImage_@E@@@2@@0@AEAU10@@Z
	??$forward@AEAU?$pair@V?$basic_string@DU?$char_traits@D@std@@V?$allocator@D@2@@std@@V?$shared_ptr@V?$ofImage_@E@@@2@@std@@@std@@YAAEAU?$pair@V?$basic_string@DU?$char_traits@D@std@@V?$allocator@D@2@@std@@V?$shared_ptr@V?$ofImage_@E@@@2@@0@AEAU10@@Z
	??$forward@AEAV?$_Tree_iterator@V?$_Tree_val@U?$_Tree_simple_types@U?$pair@$$CBV?$basic_string@DU?$char_traits@D@std@@V?$allocator@D@2@@std@@V?$ofColor_@E@@@std@@@std@@@std@@@std@@@std@@YAAEAV?$_Tree_iterator@V?$_Tree_val@U?$_Tree_simple_types@U?$pair@$$CBV?$basic_string@DU?$char_traits@D@std@@V?$allocator@D@2@@std@@V?$ofColor_@E@@@std@@@std@@@std@@@0@AEAV10@@Z
	??$forward@AEAV?$_Tree_iterator@V?$_Tree_val@U?$_Tree_simple_types@U?$pair@$$CBV?$basic_string@DU?$char_traits@D@std@@V?$allocator@D@2@@std@@V?$shared_ptr@V?$ofImage_@E@@@2@@std@@@std@@@std@@@std@@@std@@YAAEAV?$_Tree_iterator@V?$_Tree_val@U?$_Tree_simple_types@U?$pair@$$CBV?$basic_string@DU?$char_traits@D@std@@V?$allocator@D@2@@std@@V?$shared_ptr@V?$ofImage_@E@@@2@@std@@@std@@@std@@@0@AEAV10@@Z
	??$forward@AEAV?$ofColor_@E@@@std@@YAAEAV?$ofColor_@E@@AEAV1@@Z
	??$forward@AEBU?$less@V?$basic_string@DU?$char_traits@D@std@@V?$allocator@D@2@@std@@@std@@@std@@YAAEBU?$less@V?$basic_string@DU?$char_traits@D@std@@V?$allocator@D@2@@std@@@0@AEBU10@@Z
	??$forward@AEBUpiecewise_construct_t@std@@@std@@YAAEBUpiecewise_construct_t@0@AEBU10@@Z
	??$forward@AEBV?$allocator@U?$pair@$$CBV?$basic_string@DU?$char_traits@D@std@@V?$allocator@D@2@@std@@V?$ofColor_@E@@@std@@@std@@@std@@YAAEBV?$allocator@U?$pair@$$CBV?$basic_string@DU?$char_traits@D@std@@V?$allocator@D@2@@std@@V?$ofColor_@E@@@std@@@0@AEBV10@@Z
	??$forward@AEBV?$allocator@U?$pair@$$CBV?$basic_string@DU?$char_traits@D@std@@V?$allocator@D@2@@std@@V?$shared_ptr@V?$ofImage_@E@@@2@@std@@@std@@@std@@YAAEBV?$allocator@U?$pair@$$CBV?$basic_string@DU?$char_traits@D@std@@V?$allocator@D@2@@std@@V?$shared_ptr@V?$ofImage_@E@@@2@@std@@@0@AEBV10@@Z
	??$forward@U_One_then_variadic_args_t@std@@@std@@YA$$QEAU_One_then_variadic_args_t@0@AEAU10@@Z
	??$forward@V?$_Tree_iterator@V?$_Tree_val@U?$_Tree_simple_types@U?$pair@$$CBV?$basic_string@DU?$char_traits@D@std@@V?$allocator@D@2@@std@@V?$ofColor_@E@@@std@@@std@@@std@@@std@@@std@@YA$$QEAV?$_Tree_iterator@V?$_Tree_val@U?$_Tree_simple_types@U?$pair@$$CBV?$basic_string@DU?$char_traits@D@std@@V?$allocator@D@2@@std@@V?$ofColor_@E@@@std@@@std@@@std@@@0@AEAV10@@Z
	??$forward@V?$_Tree_iterator@V?$_Tree_val@U?$_Tree_simple_types@U?$pair@$$CBV?$basic_string@DU?$char_traits@D@std@@V?$allocator@D@2@@std@@V?$shared_ptr@V?$ofImage_@E@@@2@@std@@@std@@@std@@@std@@@std@@YA$$QEAV?$_Tree_iterator@V?$_Tree_val@U?$_Tree_simple_types@U?$pair@$$CBV?$basic_string@DU?$char_traits@D@std@@V?$allocator@D@2@@std@@V?$shared_ptr@V?$ofImage_@E@@@2@@std@@@std@@@std@@@0@AEAV10@@Z
	??$forward@V?$tuple@$$V@std@@@std@@YA$$QEAV?$tuple@$$V@0@AEAV10@@Z
	??$forward@V?$tuple@AEBV?$basic_string@DU?$char_traits@D@std@@V?$allocator@D@2@@std@@@std@@@std@@YA$$QEAV?$tuple@AEBV?$basic_string@DU?$char_traits@D@std@@V?$allocator@D@2@@std@@@0@AEAV10@@Z
	??$forward@_N@std@@YA$$QEA_NAEA_N@Z
	??$forward_as_tuple@AEBV?$basic_string@DU?$char_traits@D@std@@V?$allocator@D@2@@std@@@std@@YA?AV?$tuple@AEBV?$basic_string@DU?$char_traits@D@std@@V?$allocator@D@2@@std@@@0@AEBV?$basic_string@DU?$char_traits@D@std@@V?$allocator@D@2@@0@@Z
	??$get@$0A@AEBV?$basic_string@DU?$char_traits@D@std@@V?$allocator@D@2@@std@@@std@@YAAEBV?$basic_string@DU?$char_traits@D@std@@V?$allocator@D@2@@0@$$QEAV?$tuple@AEBV?$basic_string@DU?$char_traits@D@std@@V?$allocator@D@2@@std@@@0@@Z
	??$insert@AEAU?$pair@V?$basic_string@DU?$char_traits@D@std@@V?$allocator@D@2@@std@@V?$shared_ptr@V?$ofImage_@E@@@2@@std@@@?$_Tree@V?$_Tmap_traits@V?$basic_string@DU?$char_traits@D@std@@V?$allocator@D@2@@std@@V?$shared_ptr@V?$ofImage_@E@@@2@U?$less@V?$basic_string@DU?$char_traits@D@std@@V?$allocator@D@2@@std@@@2@V?$allocator@U?$pair@$$CBV?$basic_string@DU?$char_traits@D@std@@V?$allocator@D@2@@std@@V?$shared_ptr@V?$ofImage_@E@@@2@@std@@@2@$0A@@std@@@std@@QEAA?AU?$pair@V?$_Tree_iterator@V?$_Tree_val@U?$_Tree_simple_types@U?$pair@$$CBV?$basic_string@DU?$char_traits@D@std@@V?$allocator@D@2@@std@@V?$shared_ptr@V?$ofImage_@E@@@2@@std@@@std@@@std@@@std@@_N@1@AEAU?$pair@V?$basic_string@DU?$char_traits@D@std@@V?$allocator@D@2@@std@@V?$shared_ptr@V?$ofImage_@E@@@2@@1@@Z
	??$make_shared@V?$ofImage_@E@@$$V@std@@YA?AV?$shared_ptr@V?$ofImage_@E@@@0@XZ
	??$move@AEAV?$shared_ptr@V?$ofImage_@E@@@std@@@std@@YA$$QEAV?$shared_ptr@V?$ofImage_@E@@@0@AEAV10@@Z
	??$move@AEAV?$tuple@AEBV?$basic_string@DU?$char_traits@D@std@@V?$allocator@D@2@@std@@@std@@@std@@YA$$QEAV?$tuple@AEBV?$basic_string@DU?$char_traits@D@std@@V?$allocator@D@2@@std@@@0@AEAV10@@Z
	??$swap@D@std@@YAXAEAD0@Z
	??$swap@PEAV?$ofImage_@E@@@std@@YAXAEAPEAV?$ofImage_@E@@0@Z
	??0?$_Iterator012@Ubidirectional_iterator_tag@std@@U?$pair@$$CBV?$basic_string@DU?$char_traits@D@std@@V?$allocator@D@2@@std@@V?$ofColor_@E@@@2@_JPEBU32@AEBU32@U_Iterator_base12@2@@std@@QEAA@$$QEAU01@@Z
	??0?$_Iterator012@Ubidirectional_iterator_tag@std@@U?$pair@$$CBV?$basic_string@DU?$char_traits@D@std@@V?$allocator@D@2@@std@@V?$ofColor_@E@@@2@_JPEBU32@AEBU32@U_Iterator_base12@2@@std@@QEAA@AEBU01@@Z
	??0?$_Iterator012@Ubidirectional_iterator_tag@std@@U?$pair@$$CBV?$basic_string@DU?$char_traits@D@std@@V?$allocator@D@2@@std@@V?$ofColor_@E@@@2@_JPEBU32@AEBU32@U_Iterator_base12@2@@std@@QEAA@XZ
	??0?$_Iterator012@Ubidirectional_iterator_tag@std@@U?$pair@$$CBV?$basic_string@DU?$char_traits@D@std@@V?$allocator@D@2@@std@@V?$shared_ptr@V?$ofImage_@E@@@2@@2@_JPEBU32@AEBU32@U_Iterator_base12@2@@std@@QEAA@$$QEAU01@@Z
	??0?$_Iterator012@Ubidirectional_iterator_tag@std@@U?$pair@$$CBV?$basic_string@DU?$char_traits@D@std@@V?$allocator@D@2@@std@@V?$shared_ptr@V?$ofImage_@E@@@2@@2@_JPEBU32@AEBU32@U_Iterator_base12@2@@std@@QEAA@AEBU01@@Z
	??0?$_Iterator012@Ubidirectional_iterator_tag@std@@U?$pair@$$CBV?$basic_string@DU?$char_traits@D@std@@V?$allocator@D@2@@std@@V?$shared_ptr@V?$ofImage_@E@@@2@@2@_JPEBU32@AEBU32@U_Iterator_base12@2@@std@@QEAA@XZ
	??0?$_Ptr_base@V?$ofImage_@E@@@std@@QEAA@$$QEAV01@@Z
	??0?$_Ptr_base@V?$ofImage_@E@@@std@@QEAA@XZ
	??0?$_Ptr_base@VGraphics@Nodes@ofxRulr@@@std@@QEAA@XZ
	??0?$_Tree@V?$_Tmap_traits@V?$basic_string@DU?$char_traits@D@std@@V?$allocator@D@2@@std@@V?$ofColor_@E@@U?$less@V?$basic_string@DU?$char_traits@D@std@@V?$allocator@D@2@@std@@@2@V?$allocator@U?$pair@$$CBV?$basic_string@DU?$char_traits@D@std@@V?$allocator@D@2@@std@@V?$ofColor_@E@@@std@@@2@$0A@@std@@@std@@QEAA@AEBU?$less@V?$basic_string@DU?$char_traits@D@std@@V?$allocator@D@2@@std@@@1@AEBV?$allocator@U?$pair@$$CBV?$basic_string@DU?$char_traits@D@std@@V?$allocator@D@2@@std@@V?$ofColor_@E@@@std@@@1@@Z
	??0?$_Tree@V?$_Tmap_traits@V?$basic_string@DU?$char_traits@D@std@@V?$allocator@D@2@@std@@V?$shared_ptr@V?$ofImage_@E@@@2@U?$less@V?$basic_string@DU?$char_traits@D@std@@V?$allocator@D@2@@std@@@2@V?$allocator@U?$pair@$$CBV?$basic_string@DU?$char_traits@D@std@@V?$allocator@D@2@@std@@V?$shared_ptr@V?$ofImage_@E@@@2@@std@@@2@$0A@@std@@@std@@QEAA@AEBU?$less@V?$basic_string@DU?$char_traits@D@std@@V?$allocator@D@2@@std@@@1@AEBV?$allocator@U?$pair@$$CBV?$basic_string@DU?$char_traits@D@std@@V?$allocator@D@2@@std@@V?$shared_ptr@V?$ofImage_@E@@@2@@std@@@1@@Z
	??0?$_Tree_comp_alloc@V?$_Tmap_traits@V?$basic_string@DU?$char_traits@D@std@@V?$allocator@D@2@@std@@V?$ofColor_@E@@U?$less@V?$basic_string@DU?$char_traits@D@std@@V?$allocator@D@2@@std@@@2@V?$allocator@U?$pair@$$CBV?$basic_string@DU?$char_traits@D@std@@V?$allocator@D@2@@std@@V?$ofColor_@E@@@std@@@2@$0A@@std@@@std@@QEAA@AEBU?$less@V?$basic_string@DU?$char_traits@D@std@@V?$allocator@D@2@@std@@@1@AEBV?$allocator@U?$pair@$$CBV?$basic_string@DU?$char_traits@D@std@@V?$allocator@D@2@@std@@V?$ofColor_@E@@@std@@@1@@Z
	??0?$_Tree_comp_alloc@V?$_Tmap_traits@V?$basic_string@DU?$char_traits@D@std@@V?$allocator@D@2@@std@@V?$shared_ptr@V?$ofImage_@E@@@2@U?$less@V?$basic_string@DU?$char_traits@D@std@@V?$allocator@D@2@@std@@@2@V?$allocator@U?$pair@$$CBV?$basic_string@DU?$char_traits@D@std@@V?$allocator@D@2@@std@@V?$shared_ptr@V?$ofImage_@E@@@2@@std@@@2@$0A@@std@@@std@@QEAA@AEBU?$less@V?$basic_string@DU?$char_traits@D@std@@V?$allocator@D@2@@std@@@1@AEBV?$allocator@U?$pair@$$CBV?$basic_string@DU?$char_traits@D@std@@V?$allocator@D@2@@std@@V?$shared_ptr@V?$ofImage_@E@@@2@@std@@@1@@Z
	??0?$_Tree_const_iterator@V?$_Tree_val@U?$_Tree_simple_types@U?$pair@$$CBV?$basic_string@DU?$char_traits@D@std@@V?$allocator@D@2@@std@@V?$ofColor_@E@@@std@@@std@@@std@@@std@@QEAA@$$QEAV01@@Z
	??0?$_Tree_const_iterator@V?$_Tree_val@U?$_Tree_simple_types@U?$pair@$$CBV?$basic_string@DU?$char_traits@D@std@@V?$allocator@D@2@@std@@V?$ofColor_@E@@@std@@@std@@@std@@@std@@QEAA@AEBV01@@Z
	??0?$_Tree_const_iterator@V?$_Tree_val@U?$_Tree_simple_types@U?$pair@$$CBV?$basic_string@DU?$char_traits@D@std@@V?$allocator@D@2@@std@@V?$ofColor_@E@@@std@@@std@@@std@@@std@@QEAA@PEAU?$_Tree_node@U?$pair@$$CBV?$basic_string@DU?$char_traits@D@std@@V?$allocator@D@2@@std@@V?$ofColor_@E@@@std@@PEAX@1@PEBV?$_Tree_val@U?$_Tree_simple_types@U?$pair@$$CBV?$basic_string@DU?$char_traits@D@std@@V?$allocator@D@2@@std@@V?$ofColor_@E@@@std@@@std@@@1@@Z
	??0?$_Tree_const_iterator@V?$_Tree_val@U?$_Tree_simple_types@U?$pair@$$CBV?$basic_string@DU?$char_traits@D@std@@V?$allocator@D@2@@std@@V?$ofColor_@E@@@std@@@std@@@std@@@std@@QEAA@XZ
	??0?$_Tree_const_iterator@V?$_Tree_val@U?$_Tree_simple_types@U?$pair@$$CBV?$basic_string@DU?$char_traits@D@std@@V?$allocator@D@2@@std@@V?$shared_ptr@V?$ofImage_@E@@@2@@std@@@std@@@std@@@std@@QEAA@$$QEAV01@@Z
	??0?$_Tree_const_iterator@V?$_Tree_val@U?$_Tree_simple_types@U?$pair@$$CBV?$basic_string@DU?$char_traits@D@std@@V?$allocator@D@2@@std@@V?$shared_ptr@V?$ofImage_@E@@@2@@std@@@std@@@std@@@std@@QEAA@AEBV01@@Z
	??0?$_Tree_const_iterator@V?$_Tree_val@U?$_Tree_simple_types@U?$pair@$$CBV?$basic_string@DU?$char_traits@D@std@@V?$allocator@D@2@@std@@V?$shared_ptr@V?$ofImage_@E@@@2@@std@@@std@@@std@@@std@@QEAA@PEAU?$_Tree_node@U?$pair@$$CBV?$basic_string@DU?$char_traits@D@std@@V?$allocator@D@2@@std@@V?$shared_ptr@V?$ofImage_@E@@@2@@std@@PEAX@1@PEBV?$_Tree_val@U?$_Tree_simple_types@U?$pair@$$CBV?$basic_string@DU?$char_traits@D@std@@V?$allocator@D@2@@std@@V?$shared_ptr@V?$ofImage_@E@@@2@@std@@@std@@@1@@Z
	??0?$_Tree_const_iterator@V?$_Tree_val@U?$_Tree_simple_types@U?$pair@$$CBV?$basic_string@DU?$char_traits@D@std@@V?$allocator@D@2@@std@@V?$shared_ptr@V?$ofImage_@E@@@2@@std@@@std@@@std@@@std@@QEAA@XZ
	??0?$_Tree_iterator@V?$_Tree_val@U?$_Tree_simple_types@U?$pair@$$CBV?$basic_string@DU?$char_traits@D@std@@V?$allocator@D@2@@std@@V?$ofColor_@E@@@std@@@std@@@std@@@std@@QEAA@$$QEAV01@@Z
	??0?$_Tree_iterator@V?$_Tree_val@U?$_Tree_simple_types@U?$pair@$$CBV?$basic_string@DU?$char_traits@D@std@@V?$allocator@D@2@@std@@V?$ofColor_@E@@@std@@@std@@@std@@@std@@QEAA@AEBV01@@Z
	??0?$_Tree_iterator@V?$_Tree_val@U?$_Tree_simple_types@U?$pair@$$CBV?$basic_string@DU?$char_traits@D@std@@V?$allocator@D@2@@std@@V?$ofColor_@E@@@std@@@std@@@std@@@std@@QEAA@PEAU?$_Tree_node@U?$pair@$$CBV?$basic_string@DU?$char_traits@D@std@@V?$allocator@D@2@@std@@V?$ofColor_@E@@@std@@PEAX@1@PEBV?$_Tree_val@U?$_Tree_simple_types@U?$pair@$$CBV?$basic_string@DU?$char_traits@D@std@@V?$allocator@D@2@@std@@V?$ofColor_@E@@@std@@@std@@@1@@Z
	??0?$_Tree_iterator@V?$_Tree_val@U?$_Tree_simple_types@U?$pair@$$CBV?$basic_string@DU?$char_traits@D@std@@V?$allocator@D@2@@std@@V?$shared_ptr@V?$ofImage_@E@@@2@@std@@@std@@@std@@@std@@QEAA@$$QEAV01@@Z
	??0?$_Tree_iterator@V?$_Tree_val@U?$_Tree_simple_types@U?$pair@$$CBV?$basic_string@DU?$char_traits@D@std@@V?$allocator@D@2@@std@@V?$shared_ptr@V?$ofImage_@E@@@2@@std@@@std@@@std@@@std@@QEAA@AEBV01@@Z
	??0?$_Tree_iterator@V?$_Tree_val@U?$_Tree_simple_types@U?$pair@$$CBV?$basic_string@DU?$char_traits@D@std@@V?$allocator@D@2@@std@@V?$shared_ptr@V?$ofImage_@E@@@2@@std@@@std@@@std@@@std@@QEAA@PEAU?$_Tree_node@U?$pair@$$CBV?$basic_string@DU?$char_traits@D@std@@V?$allocator@D@2@@std@@V?$shared_ptr@V?$ofImage_@E@@@2@@std@@PEAX@1@PEBV?$_Tree_val@U?$_Tree_simple_types@U?$pair@$$CBV?$basic_string@DU?$char_traits@D@std@@V?$allocator@D@2@@std@@V?$shared_ptr@V?$ofImage_@E@@@2@@std@@@std@@@1@@Z
	??0?$_Tree_unchecked_const_iterator@V?$_Tree_val@U?$_Tree_simple_types@U?$pair@$$CBV?$basic_string@DU?$char_traits@D@std@@V?$allocator@D@2@@std@@V?$ofColor_@E@@@std@@@std@@@std@@U_Iterator_base12@2@@std@@QEAA@$$QEAV01@@Z
	??0?$_Tree_unchecked_const_iterator@V?$_Tree_val@U?$_Tree_simple_types@U?$pair@$$CBV?$basic_string@DU?$char_traits@D@std@@V?$allocator@D@2@@std@@V?$ofColor_@E@@@std@@@std@@@std@@U_Iterator_base12@2@@std@@QEAA@AEBV01@@Z
	??0?$_Tree_unchecked_const_iterator@V?$_Tree_val@U?$_Tree_simple_types@U?$pair@$$CBV?$basic_string@DU?$char_traits@D@std@@V?$allocator@D@2@@std@@V?$ofColor_@E@@@std@@@std@@@std@@U_Iterator_base12@2@@std@@QEAA@PEAU?$_Tree_node@U?$pair@$$CBV?$basic_string@DU?$char_traits@D@std@@V?$allocator@D@2@@std@@V?$ofColor_@E@@@std@@PEAX@1@PEBV?$_Tree_val@U?$_Tree_simple_types@U?$pair@$$CBV?$basic_string@DU?$char_traits@D@std@@V?$allocator@D@2@@std@@V?$ofColor_@E@@@std@@@std@@@1@@Z
	??0?$_Tree_unchecked_const_iterator@V?$_Tree_val@U?$_Tree_simple_types@U?$pair@$$CBV?$basic_string@DU?$char_traits@D@std@@V?$allocator@D@2@@std@@V?$ofColor_@E@@@std@@@std@@@std@@U_Iterator_base12@2@@std@@QEAA@XZ
	??0?$_Tree_unchecked_const_iterator@V?$_Tree_val@U?$_Tree_simple_types@U?$pair@$$CBV?$basic_string@DU?$char_traits@D@std@@V?$allocator@D@2@@std@@V?$shared_ptr@V?$ofImage_@E@@@2@@std@@@std@@@std@@U_Iterator_base12@2@@std@@QEAA@$$QEAV01@@Z
	??0?$_Tree_unchecked_const_iterator@V?$_Tree_val@U?$_Tree_simple_types@U?$pair@$$CBV?$basic_string@DU?$char_traits@D@std@@V?$allocator@D@2@@std@@V?$shared_ptr@V?$ofImage_@E@@@2@@std@@@std@@@std@@U_Iterator_base12@2@@std@@QEAA@AEBV01@@Z
	??0?$_Tree_unchecked_const_iterator@V?$_Tree_val@U?$_Tree_simple_types@U?$pair@$$CBV?$basic_string@DU?$char_traits@D@std@@V?$allocator@D@2@@std@@V?$shared_ptr@V?$ofImage_@E@@@2@@std@@@std@@@std@@U_Iterator_base12@2@@std@@QEAA@PEAU?$_Tree_node@U?$pair@$$CBV?$basic_string@DU?$char_traits@D@std@@V?$allocator@D@2@@std@@V?$shared_ptr@V?$ofImage_@E@@@2@@std@@PEAX@1@PEBV?$_Tree_val@U?$_Tree_simple_types@U?$pair@$$CBV?$basic_string@DU?$char_traits@D@std@@V?$allocator@D@2@@std@@V?$shared_ptr@V?$ofImage_@E@@@2@@std@@@std@@@1@@Z
	??0?$_Tree_unchecked_const_iterator@V?$_Tree_val@U?$_Tree_simple_types@U?$pair@$$CBV?$basic_string@DU?$char_traits@D@std@@V?$allocator@D@2@@std@@V?$shared_ptr@V?$ofImage_@E@@@2@@std@@@std@@@std@@U_Iterator_base12@2@@std@@QEAA@XZ
	??0?$_Tree_val@U?$_Tree_simple_types@U?$pair@$$CBV?$basic_string@DU?$char_traits@D@std@@V?$allocator@D@2@@std@@V?$ofColor_@E@@@std@@@std@@@std@@QEAA@XZ
	??0?$_Tree_val@U?$_Tree_simple_types@U?$pair@$$CBV?$basic_string@DU?$char_traits@D@std@@V?$allocator@D@2@@std@@V?$shared_ptr@V?$ofImage_@E@@@2@@std@@@std@@@std@@QEAA@XZ
	??0?$allocator@U?$pair@$$CBV?$basic_string@DU?$char_traits@D@std@@V?$allocator@D@2@@std@@V?$ofColor_@E@@@std@@@std@@QEAA@XZ
	??0?$allocator@U?$pair@$$CBV?$basic_string@DU?$char_traits@D@std@@V?$allocator@D@2@@std@@V?$shared_ptr@V?$ofImage_@E@@@2@@std@@@std@@QEAA@XZ
	??0?$map@V?$basic_string@DU?$char_traits@D@std@@V?$allocator@D@2@@std@@V?$ofColor_@E@@U?$less@V?$basic_string@DU?$char_traits@D@std@@V?$allocator@D@2@@std@@@2@V?$allocator@U?$pair@$$CBV?$basic_string@DU?$char_traits@D@std@@V?$allocator@D@2@@std@@V?$ofColor_@E@@@std@@@2@@std@@QEAA@XZ
	??0?$map@V?$basic_string@DU?$char_traits@D@std@@V?$allocator@D@2@@std@@V?$shared_ptr@V?$ofImage_@E@@@2@U?$less@V?$basic_string@DU?$char_traits@D@std@@V?$allocator@D@2@@std@@@2@V?$allocator@U?$pair@$$CBV?$basic_string@DU?$char_traits@D@std@@V?$allocator@D@2@@std@@V?$shared_ptr@V?$ofImage_@E@@@2@@std@@@2@@std@@QEAA@XZ
	??0?$ofColor_@E@@QEAA@XZ
	??0?$pair@V?$basic_string@DU?$char_traits@D@std@@V?$allocator@D@2@@std@@V?$shared_ptr@V?$ofImage_@E@@@2@@std@@QEAA@XZ
	??0?$shared_ptr@V?$ofImage_@E@@@std@@QEAA@$$QEAV01@@Z
	??0?$shared_ptr@V?$ofImage_@E@@@std@@QEAA@AEBV01@@Z
	??0?$shared_ptr@V?$ofImage_@E@@@std@@QEAA@XZ
	??0?$shared_ptr@VGraphics@Nodes@ofxRulr@@@std@@QEAA@XZ
	??0?$tuple@$$V@std@@QEAA@AEBV01@@Z
	??0?$tuple@AEBV?$basic_string@DU?$char_traits@D@std@@V?$allocator@D@2@@std@@@std@@QEAA@$$QEAV01@@Z
	??0?$tuple@AEBV?$basic_string@DU?$char_traits@D@std@@V?$allocator@D@2@@std@@@std@@QEAA@AEBV?$basic_string@DU?$char_traits@D@std@@V?$allocator@D@2@@1@@Z
	??0Graphics@Nodes@ofxRulr@@QEAA@XZ
	??0SingletonStore@?$Singleton@VGraphics@Nodes@ofxRulr@@@ofxSingleton@@QEAA@XZ
	??1?$_Compressed_pair@U?$_Wrap_alloc@V?$allocator@U?$_Tree_node@U?$pair@$$CBV?$basic_string@DU?$char_traits@D@std@@V?$allocator@D@2@@std@@V?$ofColor_@E@@@std@@PEAX@std@@@std@@@std@@V?$_Tree_val@U?$_Tree_simple_types@U?$pair@$$CBV?$basic_string@DU?$char_traits@D@std@@V?$allocator@D@2@@std@@V?$ofColor_@E@@@std@@@std@@@2@$00@std@@QEAA@XZ
	??1?$_Compressed_pair@U?$_Wrap_alloc@V?$allocator@U?$_Tree_node@U?$pair@$$CBV?$basic_string@DU?$char_traits@D@std@@V?$allocator@D@2@@std@@V?$shared_ptr@V?$ofImage_@E@@@2@@std@@PEAX@std@@@std@@@std@@V?$_Tree_val@U?$_Tree_simple_types@U?$pair@$$CBV?$basic_string@DU?$char_traits@D@std@@V?$allocator@D@2@@std@@V?$shared_ptr@V?$ofImage_@E@@@2@@std@@@std@@@2@$00@std@@QEAA@XZ
	??1?$_Compressed_pair@U?$less@V?$basic_string@DU?$char_traits@D@std@@V?$allocator@D@2@@std@@@std@@V?$_Compressed_pair@U?$_Wrap_alloc@V?$allocator@U?$_Tree_node@U?$pair@$$CBV?$basic_string@DU?$char_traits@D@std@@V?$allocator@D@2@@std@@V?$ofColor_@E@@@std@@PEAX@std@@@std@@@std@@V?$_Tree_val@U?$_Tree_simple_types@U?$pair@$$CBV?$basic_string@DU?$char_traits@D@std@@V?$allocator@D@2@@std@@V?$ofColor_@E@@@std@@@std@@@2@$00@2@$00@std@@QEAA@XZ
	??1?$_Compressed_pair@U?$less@V?$basic_string@DU?$char_traits@D@std@@V?$allocator@D@2@@std@@@std@@V?$_Compressed_pair@U?$_Wrap_alloc@V?$allocator@U?$_Tree_node@U?$pair@$$CBV?$basic_string@DU?$char_traits@D@std@@V?$allocator@D@2@@std@@V?$shared_ptr@V?$ofImage_@E@@@2@@std@@PEAX@std@@@std@@@std@@V?$_Tree_val@U?$_Tree_simple_types@U?$pair@$$CBV?$basic_string@DU?$char_traits@D@std@@V?$allocator@D@2@@std@@V?$shared_ptr@V?$ofImage_@E@@@2@@std@@@std@@@2@$00@2@$00@std@@QEAA@XZ
	??1?$_Iterator012@Ubidirectional_iterator_tag@std@@U?$pair@$$CBV?$basic_string@DU?$char_traits@D@std@@V?$allocator@D@2@@std@@V?$ofColor_@E@@@2@_JPEBU32@AEBU32@U_Iterator_base12@2@@std@@QEAA@XZ
	??1?$_Iterator012@Ubidirectional_iterator_tag@std@@U?$pair@$$CBV?$basic_string@DU?$char_traits@D@std@@V?$allocator@D@2@@std@@V?$shared_ptr@V?$ofImage_@E@@@2@@2@_JPEBU32@AEBU32@U_Iterator_base12@2@@std@@QEAA@XZ
	??1?$_Ref_count_obj@V?$ofImage_@E@@@std@@UEAA@XZ
	??1?$_Tree@V?$_Tmap_traits@V?$basic_string@DU?$char_traits@D@std@@V?$allocator@D@2@@std@@V?$shared_ptr@V?$ofImage_@E@@@2@U?$less@V?$basic_string@DU?$char_traits@D@std@@V?$allocator@D@2@@std@@@2@V?$allocator@U?$pair@$$CBV?$basic_string@DU?$char_traits@D@std@@V?$allocator@D@2@@std@@V?$shared_ptr@V?$ofImage_@E@@@2@@std@@@2@$0A@@std@@@std@@QEAA@XZ
	??1?$_Tree_comp_alloc@V?$_Tmap_traits@V?$basic_string@DU?$char_traits@D@std@@V?$allocator@D@2@@std@@V?$shared_ptr@V?$ofImage_@E@@@2@U?$less@V?$basic_string@DU?$char_traits@D@std@@V?$allocator@D@2@@std@@@2@V?$allocator@U?$pair@$$CBV?$basic_string@DU?$char_traits@D@std@@V?$allocator@D@2@@std@@V?$shared_ptr@V?$ofImage_@E@@@2@@std@@@2@$0A@@std@@@std@@QEAA@XZ
	??1?$_Tree_const_iterator@V?$_Tree_val@U?$_Tree_simple_types@U?$pair@$$CBV?$basic_string@DU?$char_traits@D@std@@V?$allocator@D@2@@std@@V?$ofColor_@E@@@std@@@std@@@std@@@std@@QEAA@XZ
	??1?$_Tree_const_iterator@V?$_Tree_val@U?$_Tree_simple_types@U?$pair@$$CBV?$basic_string@DU?$char_traits@D@std@@V?$allocator@D@2@@std@@V?$shared_ptr@V?$ofImage_@E@@@2@@std@@@std@@@std@@@std@@QEAA@XZ
	??1?$_Tree_iterator@V?$_Tree_val@U?$_Tree_simple_types@U?$pair@$$CBV?$basic_string@DU?$char_traits@D@std@@V?$allocator@D@2@@std@@V?$ofColor_@E@@@std@@@std@@@std@@@std@@QEAA@XZ
	??1?$_Tree_iterator@V?$_Tree_val@U?$_Tree_simple_types@U?$pair@$$CBV?$basic_string@DU?$char_traits@D@std@@V?$allocator@D@2@@std@@V?$shared_ptr@V?$ofImage_@E@@@2@@std@@@std@@@std@@@std@@QEAA@XZ
	??1?$_Tree_unchecked_const_iterator@V?$_Tree_val@U?$_Tree_simple_types@U?$pair@$$CBV?$basic_string@DU?$char_traits@D@std@@V?$allocator@D@2@@std@@V?$ofColor_@E@@@std@@@std@@@std@@U_Iterator_base12@2@@std@@QEAA@XZ
	??1?$_Tree_unchecked_const_iterator@V?$_Tree_val@U?$_Tree_simple_types@U?$pair@$$CBV?$basic_string@DU?$char_traits@D@std@@V?$allocator@D@2@@std@@V?$shared_ptr@V?$ofImage_@E@@@2@@std@@@std@@@std@@U_Iterator_base12@2@@std@@QEAA@XZ
	??1?$_Tree_val@U?$_Tree_simple_types@U?$pair@$$CBV?$basic_string@DU?$char_traits@D@std@@V?$allocator@D@2@@std@@V?$ofColor_@E@@@std@@@std@@@std@@QEAA@XZ
	??1?$_Tree_val@U?$_Tree_simple_types@U?$pair@$$CBV?$basic_string@DU?$char_traits@D@std@@V?$allocator@D@2@@std@@V?$shared_ptr@V?$ofImage_@E@@@2@@std@@@std@@@std@@QEAA@XZ
	??1?$map@V?$basic_string@DU?$char_traits@D@std@@V?$allocator@D@2@@std@@V?$shared_ptr@V?$ofImage_@E@@@2@U?$less@V?$basic_string@DU?$char_traits@D@std@@V?$allocator@D@2@@std@@@2@V?$allocator@U?$pair@$$CBV?$basic_string@DU?$char_traits@D@std@@V?$allocator@D@2@@std@@V?$shared_ptr@V?$ofImage_@E@@@2@@std@@@2@@std@@QEAA@XZ
	??1?$pair@$$CBV?$basic_string@DU?$char_traits@D@std@@V?$allocator@D@2@@std@@V?$ofColor_@E@@@std@@QEAA@XZ
	??1?$pair@$$CBV?$basic_string@DU?$char_traits@D@std@@V?$allocator@D@2@@std@@V?$shared_ptr@V?$ofImage_@E@@@2@@std@@QEAA@XZ
	??1?$pair@V?$_Tree_iterator@V?$_Tree_val@U?$_Tree_simple_types@U?$pair@$$CBV?$basic_string@DU?$char_traits@D@std@@V?$allocator@D@2@@std@@V?$ofColor_@E@@@std@@@std@@@std@@@std@@_N@std@@QEAA@XZ
	??1?$pair@V?$_Tree_iterator@V?$_Tree_val@U?$_Tree_simple_types@U?$pair@$$CBV?$basic_string@DU?$char_traits@D@std@@V?$allocator@D@2@@std@@V?$shared_ptr@V?$ofImage_@E@@@2@@std@@@std@@@std@@@std@@_N@std@@QEAA@XZ
	??1?$pair@V?$basic_string@DU?$char_traits@D@std@@V?$allocator@D@2@@std@@V?$shared_ptr@V?$ofImage_@E@@@2@@std@@QEAA@XZ
	??1?$shared_ptr@V?$ofImage_@E@@@std@@QEAA@XZ
	??1?$shared_ptr@VGraphics@Nodes@ofxRulr@@@std@@QEAA@XZ
	??1SingletonStore@?$Singleton@VGraphics@Nodes@ofxRulr@@@ofxSingleton@@QEAA@XZ
	??4?$_Iterator012@Ubidirectional_iterator_tag@std@@U?$pair@$$CBV?$basic_string@DU?$char_traits@D@std@@V?$allocator@D@2@@std@@V?$ofColor_@E@@@2@_JPEBU32@AEBU32@U_Iterator_base12@2@@std@@QEAAAEAU01@$$QEAU01@@Z
	??4?$_Iterator012@Ubidirectional_iterator_tag@std@@U?$pair@$$CBV?$basic_string@DU?$char_traits@D@std@@V?$allocator@D@2@@std@@V?$ofColor_@E@@@2@_JPEBU32@AEBU32@U_Iterator_base12@2@@std@@QEAAAEAU01@AEBU01@@Z
	??4?$_Iterator012@Ubidirectional_iterator_tag@std@@U?$pair@$$CBV?$basic_string@DU?$char_traits@D@std@@V?$allocator@D@2@@std@@V?$shared_ptr@V?$ofImage_@E@@@2@@2@_JPEBU32@AEBU32@U_Iterator_base12@2@@std@@QEAAAEAU01@$$QEAU01@@Z
	??4?$_Iterator012@Ubidirectional_iterator_tag@std@@U?$pair@$$CBV?$basic_string@DU?$char_traits@D@std@@V?$allocator@D@2@@std@@V?$shared_ptr@V?$ofImage_@E@@@2@@2@_JPEBU32@AEBU32@U_Iterator_base12@2@@std@@QEAAAEAU01@AEBU01@@Z
	??4?$_Tree_const_iterator@V?$_Tree_val@U?$_Tree_simple_types@U?$pair@$$CBV?$basic_string@DU?$char_traits@D@std@@V?$allocator@D@2@@std@@V?$ofColor_@E@@@std@@@std@@@std@@@std@@QEAAAEAV01@$$QEAV01@@Z
	??4?$_Tree_const_iterator@V?$_Tree_val@U?$_Tree_simple_types@U?$pair@$$CBV?$basic_string@DU?$char_traits@D@std@@V?$allocator@D@2@@std@@V?$ofColor_@E@@@std@@@std@@@std@@@std@@QEAAAEAV01@AEBV01@@Z
	??4?$_Tree_const_iterator@V?$_Tree_val@U?$_Tree_simple_types@U?$pair@$$CBV?$basic_string@DU?$char_traits@D@std@@V?$allocator@D@2@@std@@V?$shared_ptr@V?$ofImage_@E@@@2@@std@@@std@@@std@@@std@@QEAAAEAV01@$$QEAV01@@Z
	??4?$_Tree_const_iterator@V?$_Tree_val@U?$_Tree_simple_types@U?$pair@$$CBV?$basic_string@DU?$char_traits@D@std@@V?$allocator@D@2@@std@@V?$shared_ptr@V?$ofImage_@E@@@2@@std@@@std@@@std@@@std@@QEAAAEAV01@AEBV01@@Z
	??4?$_Tree_iterator@V?$_Tree_val@U?$_Tree_simple_types@U?$pair@$$CBV?$basic_string@DU?$char_traits@D@std@@V?$allocator@D@2@@std@@V?$ofColor_@E@@@std@@@std@@@std@@@std@@QEAAAEAV01@$$QEAV01@@Z
	??4?$_Tree_iterator@V?$_Tree_val@U?$_Tree_simple_types@U?$pair@$$CBV?$basic_string@DU?$char_traits@D@std@@V?$allocator@D@2@@std@@V?$shared_ptr@V?$ofImage_@E@@@2@@std@@@std@@@std@@@std@@QEAAAEAV01@$$QEAV01@@Z
	??4?$_Tree_unchecked_const_iterator@V?$_Tree_val@U?$_Tree_simple_types@U?$pair@$$CBV?$basic_string@DU?$char_traits@D@std@@V?$allocator@D@2@@std@@V?$ofColor_@E@@@std@@@std@@@std@@U_Iterator_base12@2@@std@@QEAAAEAV01@$$QEAV01@@Z
	??4?$_Tree_unchecked_const_iterator@V?$_Tree_val@U?$_Tree_simple_types@U?$pair@$$CBV?$basic_string@DU?$char_traits@D@std@@V?$allocator@D@2@@std@@V?$ofColor_@E@@@std@@@std@@@std@@U_Iterator_base12@2@@std@@QEAAAEAV01@AEBV01@@Z
	??4?$_Tree_unchecked_const_iterator@V?$_Tree_val@U?$_Tree_simple_types@U?$pair@$$CBV?$basic_string@DU?$char_traits@D@std@@V?$allocator@D@2@@std@@V?$shared_ptr@V?$ofImage_@E@@@2@@std@@@std@@@std@@U_Iterator_base12@2@@std@@QEAAAEAV01@$$QEAV01@@Z
	??4?$_Tree_unchecked_const_iterator@V?$_Tree_val@U?$_Tree_simple_types@U?$pair@$$CBV?$basic_string@DU?$char_traits@D@std@@V?$allocator@D@2@@std@@V?$shared_ptr@V?$ofImage_@E@@@2@@std@@@std@@@std@@U_Iterator_base12@2@@std@@QEAAAEAV01@AEBV01@@Z
	??4?$basic_string@DU?$char_traits@D@std@@V?$allocator@D@2@@std@@QEAAAEAV01@PEBD@Z
	??4?$shared_ptr@V?$ofImage_@E@@@std@@QEAAAEAV01@AEBV01@@Z
	??8?$_Tree_const_iterator@V?$_Tree_val@U?$_Tree_simple_types@U?$pair@$$CBV?$basic_string@DU?$char_traits@D@std@@V?$allocator@D@2@@std@@V?$ofColor_@E@@@std@@@std@@@std@@@std@@QEBA_NAEBV01@@Z
	??8?$_Tree_const_iterator@V?$_Tree_val@U?$_Tree_simple_types@U?$pair@$$CBV?$basic_string@DU?$char_traits@D@std@@V?$allocator@D@2@@std@@V?$shared_ptr@V?$ofImage_@E@@@2@@std@@@std@@@std@@@std@@QEBA_NAEBV01@@Z
	??9?$_Tree_const_iterator@V?$_Tree_val@U?$_Tree_simple_types@U?$pair@$$CBV?$basic_string@DU?$char_traits@D@std@@V?$allocator@D@2@@std@@V?$shared_ptr@V?$ofImage_@E@@@2@@std@@@std@@@std@@@std@@QEBA_NAEBV01@@Z
	??A?$map@V?$basic_string@DU?$char_traits@D@std@@V?$allocator@D@2@@std@@V?$ofColor_@E@@U?$less@V?$basic_string@DU?$char_traits@D@std@@V?$allocator@D@2@@std@@@2@V?$allocator@U?$pair@$$CBV?$basic_string@DU?$char_traits@D@std@@V?$allocator@D@2@@std@@V?$ofColor_@E@@@std@@@2@@std@@QEAAAEAV?$ofColor_@E@@AEBV?$basic_string@DU?$char_traits@D@std@@V?$allocator@D@2@@1@@Z
	??A?$map@V?$basic_string@DU?$char_traits@D@std@@V?$allocator@D@2@@std@@V?$shared_ptr@V?$ofImage_@E@@@2@U?$less@V?$basic_string@DU?$char_traits@D@std@@V?$allocator@D@2@@std@@@2@V?$allocator@U?$pair@$$CBV?$basic_string@DU?$char_traits@D@std@@V?$allocator@D@2@@std@@V?$shared_ptr@V?$ofImage_@E@@@2@@std@@@2@@std@@QEAAAEAV?$shared_ptr@V?$ofImage_@E@@@1@AEBV?$basic_string@DU?$char_traits@D@std@@V?$allocator@D@2@@1@@Z
	??C?$_Tree_iterator@V?$_Tree_val@U?$_Tree_simple_types@U?$pair@$$CBV?$basic_string@DU?$char_traits@D@std@@V?$allocator@D@2@@std@@V?$ofColor_@E@@@std@@@std@@@std@@@std@@QEBAPEAU?$pair@$$CBV?$basic_string@DU?$char_traits@D@std@@V?$allocator@D@2@@std@@V?$ofColor_@E@@@1@XZ
	??C?$_Tree_iterator@V?$_Tree_val@U?$_Tree_simple_types@U?$pair@$$CBV?$basic_string@DU?$char_traits@D@std@@V?$allocator@D@2@@std@@V?$shared_ptr@V?$ofImage_@E@@@2@@std@@@std@@@std@@@std@@QEBAPEAU?$pair@$$CBV?$basic_string@DU?$char_traits@D@std@@V?$allocator@D@2@@std@@V?$shared_ptr@V?$ofImage_@E@@@2@@1@XZ
	??C?$shared_ptr@V?$ofImage_@E@@@std@@QEBAPEAV?$ofImage_@E@@XZ
	??D?$_Tree_const_iterator@V?$_Tree_val@U?$_Tree_simple_types@U?$pair@$$CBV?$basic_string@DU?$char_traits@D@std@@V?$allocator@D@2@@std@@V?$ofColor_@E@@@std@@@std@@@std@@@std@@QEBAAEBU?$pair@$$CBV?$basic_string@DU?$char_traits@D@std@@V?$allocator@D@2@@std@@V?$ofColor_@E@@@1@XZ
	??D?$_Tree_const_iterator@V?$_Tree_val@U?$_Tree_simple_types@U?$pair@$$CBV?$basic_string@DU?$char_traits@D@std@@V?$allocator@D@2@@std@@V?$shared_ptr@V?$ofImage_@E@@@2@@std@@@std@@@std@@@std@@QEBAAEBU?$pair@$$CBV?$basic_string@DU?$char_traits@D@std@@V?$allocator@D@2@@std@@V?$shared_ptr@V?$ofImage_@E@@@2@@1@XZ
	??D?$_Tree_iterator@V?$_Tree_val@U?$_Tree_simple_types@U?$pair@$$CBV?$basic_string@DU?$char_traits@D@std@@V?$allocator@D@2@@std@@V?$ofColor_@E@@@std@@@std@@@std@@@std@@QEBAAEAU?$pair@$$CBV?$basic_string@DU?$char_traits@D@std@@V?$allocator@D@2@@std@@V?$ofColor_@E@@@1@XZ
	??D?$_Tree_iterator@V?$_Tree_val@U?$_Tree_simple_types@U?$pair@$$CBV?$basic_string@DU?$char_traits@D@std@@V?$allocator@D@2@@std@@V?$shared_ptr@V?$ofImage_@E@@@2@@std@@@std@@@std@@@std@@QEBAAEAU?$pair@$$CBV?$basic_string@DU?$char_traits@D@std@@V?$allocator@D@2@@std@@V?$shared_ptr@V?$ofImage_@E@@@2@@1@XZ
	??E?$_Tree_const_iterator@V?$_Tree_val@U?$_Tree_simple_types@U?$pair@$$CBV?$basic_string@DU?$char_traits@D@std@@V?$allocator@D@2@@std@@V?$ofColor_@E@@@std@@@std@@@std@@@std@@QEAAAEAV01@XZ
	??E?$_Tree_const_iterator@V?$_Tree_val@U?$_Tree_simple_types@U?$pair@$$CBV?$basic_string@DU?$char_traits@D@std@@V?$allocator@D@2@@std@@V?$shared_ptr@V?$ofImage_@E@@@2@@std@@@std@@@std@@@std@@QEAA?AV01@H@Z
	??E?$_Tree_const_iterator@V?$_Tree_val@U?$_Tree_simple_types@U?$pair@$$CBV?$basic_string@DU?$char_traits@D@std@@V?$allocator@D@2@@std@@V?$shared_ptr@V?$ofImage_@E@@@2@@std@@@std@@@std@@@std@@QEAAAEAV01@XZ
	??E?$_Tree_unchecked_const_iterator@V?$_Tree_val@U?$_Tree_simple_types@U?$pair@$$CBV?$basic_string@DU?$char_traits@D@std@@V?$allocator@D@2@@std@@V?$ofColor_@E@@@std@@@std@@@std@@U_Iterator_base12@2@@std@@QEAAAEAV01@XZ
	??E?$_Tree_unchecked_const_iterator@V?$_Tree_val@U?$_Tree_simple_types@U?$pair@$$CBV?$basic_string@DU?$char_traits@D@std@@V?$allocator@D@2@@std@@V?$shared_ptr@V?$ofImage_@E@@@2@@std@@@std@@@std@@U_Iterator_base12@2@@std@@QEAAAEAV01@XZ
	??F?$_Tree_const_iterator@V?$_Tree_val@U?$_Tree_simple_types@U?$pair@$$CBV?$basic_string@DU?$char_traits@D@std@@V?$allocator@D@2@@std@@V?$ofColor_@E@@@std@@@std@@@std@@@std@@QEAAAEAV01@XZ
	??F?$_Tree_const_iterator@V?$_Tree_val@U?$_Tree_simple_types@U?$pair@$$CBV?$basic_string@DU?$char_traits@D@std@@V?$allocator@D@2@@std@@V?$shared_ptr@V?$ofImage_@E@@@2@@std@@@std@@@std@@@std@@QEAAAEAV01@XZ
	??F?$_Tree_iterator@V?$_Tree_val@U?$_Tree_simple_types@U?$pair@$$CBV?$basic_string@DU?$char_traits@D@std@@V?$allocator@D@2@@std@@V?$ofColor_@E@@@std@@@std@@@std@@@std@@QEAAAEAV01@XZ
	??F?$_Tree_iterator@V?$_Tree_val@U?$_Tree_simple_types@U?$pair@$$CBV?$basic_string@DU?$char_traits@D@std@@V?$allocator@D@2@@std@@V?$shared_ptr@V?$ofImage_@E@@@2@@std@@@std@@@std@@@std@@QEAAAEAV01@XZ
	??F?$_Tree_unchecked_const_iterator@V?$_Tree_val@U?$_Tree_simple_types@U?$pair@$$CBV?$basic_string@DU?$char_traits@D@std@@V?$allocator@D@2@@std@@V?$ofColor_@E@@@std@@@std@@@std@@U_Iterator_base12@2@@std@@QEAAAEAV01@XZ
	??F?$_Tree_unchecked_const_iterator@V?$_Tree_val@U?$_Tree_simple_types@U?$pair@$$CBV?$basic_string@DU?$char_traits@D@std@@V?$allocator@D@2@@std@@V?$shared_ptr@V?$ofImage_@E@@@2@@std@@@std@@@std@@U_Iterator_base12@2@@std@@QEAAAEAV01@XZ
	??R?$less@V?$basic_string@DU?$char_traits@D@std@@V?$allocator@D@2@@std@@@std@@QEBA_NAEBV?$basic_string@DU?$char_traits@D@std@@V?$allocator@D@2@@1@0@Z
	??_7?$_Ref_count_obj@V?$ofImage_@E@@@std@@6B@
	??_7SingletonStore@?$Singleton@VGraphics@Nodes@ofxRulr@@@ofxSingleton@@6B@
	??_C@_0BB@PIJFCCJP@ofxRulr?3?3Nodes?3?3?$AA@
	??_C@_0BE@JONHPENG@map?1set?$DMT?$DO?5too?5long?$AA@
	??_C@_0BI@FBAJPHDH@ofxRulr?3?3Nodes?3?3Default?$AA@
	??_C@_1BOA@GJJNDGFG@?$AAs?$AAt?$AAd?$AA?3?$AA?3?$AA_?$AAT?$AAr?$AAe?$AAe?$AA_?$AAc?$AAo?$AAn?$AAs?$AAt?$AA_?$AAi?$AAt?$AAe?$AAr?$AAa?$AAt?$AAo?$AAr?$AA?$DM?$AAc?$AAl?$AAa?$AAs?$AAs?$AA?5@
	??_C@_1BOC@DPMJBEIJ@?$AAs?$AAt?$AAd?$AA?3?$AA?3?$AA_?$AAT?$AAr?$AAe?$AAe?$AA_?$AAc?$AAo?$AAn?$AAs?$AAt?$AA_?$AAi?$AAt?$AAe?$AAr?$AAa?$AAt?$AAo?$AAr?$AA?$DM?$AAc?$AAl?$AAa?$AAs?$AAs?$AA?5@
	??_C@_1BOC@GMAGEBIN@?$AAs?$AAt?$AAd?$AA?3?$AA?3?$AA_?$AAT?$AAr?$AAe?$AAe?$AA_?$AAc?$AAo?$AAn?$AAs?$AAt?$AA_?$AAi?$AAt?$AAe?$AAr?$AAa?$AAt?$AAo?$AAr?$AA?$DM?$AAc?$AAl?$AAa?$AAs?$AAs?$AA?5@
	??_C@_1BOC@JPDEPNEM@?$AAs?$AAt?$AAd?$AA?3?$AA?3?$AA_?$AAT?$AAr?$AAe?$AAe?$AA_?$AAc?$AAo?$AAn?$AAs?$AAt?$AA_?$AAi?$AAt?$AAe?$AAr?$AAa?$AAt?$AAo?$AAr?$AA?$DM?$AAc?$AAl?$AAa?$AAs?$AAs?$AA?5@
	??_C@_1CBA@JBDAEOJO@?$AAs?$AAt?$AAd?$AA?3?$AA?3?$AA_?$AAT?$AAr?$AAe?$AAe?$AA_?$AAc?$AAo?$AAn?$AAs?$AAt?$AA_?$AAi?$AAt?$AAe?$AAr?$AAa?$AAt?$AAo?$AAr?$AA?$DM?$AAc?$AAl?$AAa?$AAs?$AAs?$AA?5@
	??_C@_1CBC@DBPLBNGI@?$AAs?$AAt?$AAd?$AA?3?$AA?3?$AA_?$AAT?$AAr?$AAe?$AAe?$AA_?$AAc?$AAo?$AAn?$AAs?$AAt?$AA_?$AAi?$AAt?$AAe?$AAr?$AAa?$AAt?$AAo?$AAr?$AA?$DM?$AAc?$AAl?$AAa?$AAs?$AAs?$AA?5@
	??_C@_1CBC@GCDEEIGM@?$AAs?$AAt?$AAd?$AA?3?$AA?3?$AA_?$AAT?$AAr?$AAe?$AAe?$AA_?$AAc?$AAo?$AAn?$AAs?$AAt?$AA_?$AAi?$AAt?$AAe?$AAr?$AAa?$AAt?$AAo?$AAr?$AA?$DM?$AAc?$AAl?$AAa?$AAs?$AAs?$AA?5@
	??_C@_1CBC@MCMJKBKJ@?$AAs?$AAt?$AAd?$AA?3?$AA?3?$AA_?$AAT?$AAr?$AAe?$AAe?$AA_?$AAc?$AAo?$AAn?$AAs?$AAt?$AA_?$AAi?$AAt?$AAe?$AAr?$AAa?$AAt?$AAo?$AAr?$AA?$DM?$AAc?$AAl?$AAa?$AAs?$AAs?$AA?5@
	??_C@_1EG@OKCGOALM@?$AAm?$AAa?$AAp?$AA?1?$AAs?$AAe?$AAt?$AA?5?$AAi?$AAt?$AAe?$AAr?$AAa?$AAt?$AAo?$AAr?$AA?5?$AAn?$AAo?$AAt?$AA?5?$AAd?$AAe?$AAc?$AAr?$AAe?$AAm?$AAe?$AAn?$AAt?$AAa?$AAb@
	??_C@_1EK@PPDBPCAN@?$AAm?$AAa?$AAp?$AA?1?$AAs?$AAe?$AAt?$AA?5?$AAe?$AAr?$AAa?$AAs?$AAe?$AA?5?$AAi?$AAt?$AAe?$AAr?$AAa?$AAt?$AAo?$AAr?$AA?5?$AAo?$AAu?$AAt?$AAs?$AAi?$AAd?$AAe?$AA?5?$AAr@
	??_C@_1EM@MHOKKPFH@?$AAm?$AAa?$AAp?$AA?1?$AAs?$AAe?$AAt?$AA?5?$AAi?$AAn?$AAs?$AAe?$AAr?$AAt?$AA?5?$AAi?$AAt?$AAe?$AAr?$AAa?$AAt?$AAo?$AAr?$AA?5?$AAo?$AAu?$AAt?$AAs?$AAi?$AAd?$AAe?$AA?5@
	??_G?$_Ref_count_obj@V?$ofImage_@E@@@std@@UEAAPEAXI@Z
	??_G?$pair@$$CBV?$basic_string@DU?$char_traits@D@std@@V?$allocator@D@2@@std@@V?$ofColor_@E@@@std@@QEAAPEAXI@Z
	??_G?$pair@$$CBV?$basic_string@DU?$char_traits@D@std@@V?$allocator@D@2@@std@@V?$shared_ptr@V?$ofImage_@E@@@2@@std@@QEAAPEAXI@Z
	??_R0?AV?$_Ref_count_obj@V?$ofImage_@E@@@std@@@8
	??_R0?AVGraphics@Nodes@ofxRulr@@@8
	??_R0?AVSingletonStore@?$Singleton@VGraphics@Nodes@ofxRulr@@@ofxSingleton@@@8
	??_R1A@?0A@EA@?$_Ref_count_obj@V?$ofImage_@E@@@std@@8
	??_R1A@?0A@EA@SingletonStore@?$Singleton@VGraphics@Nodes@ofxRulr@@@ofxSingleton@@8
	??_R2?$_Ref_count_obj@V?$ofImage_@E@@@std@@8
	??_R2SingletonStore@?$Singleton@VGraphics@Nodes@ofxRulr@@@ofxSingleton@@8
	??_R3?$_Ref_count_obj@V?$ofImage_@E@@@std@@8
	??_R3SingletonStore@?$Singleton@VGraphics@Nodes@ofxRulr@@@ofxSingleton@@8
	??_R4?$_Ref_count_obj@V?$ofImage_@E@@@std@@6B@
	??_R4SingletonStore@?$Singleton@VGraphics@Nodes@ofxRulr@@@ofxSingleton@@6B@
	?_Alloc_proxy@?$_Tree_comp_alloc@V?$_Tmap_traits@V?$basic_string@DU?$char_traits@D@std@@V?$allocator@D@2@@std@@V?$ofColor_@E@@U?$less@V?$basic_string@DU?$char_traits@D@std@@V?$allocator@D@2@@std@@@2@V?$allocator@U?$pair@$$CBV?$basic_string@DU?$char_traits@D@std@@V?$allocator@D@2@@std@@V?$ofColor_@E@@@std@@@2@$0A@@std@@@std@@QEAAXXZ
	?_Alloc_proxy@?$_Tree_comp_alloc@V?$_Tmap_traits@V?$basic_string@DU?$char_traits@D@std@@V?$allocator@D@2@@std@@V?$shared_ptr@V?$ofImage_@E@@@2@U?$less@V?$basic_string@DU?$char_traits@D@std@@V?$allocator@D@2@@std@@@2@V?$allocator@U?$pair@$$CBV?$basic_string@DU?$char_traits@D@std@@V?$allocator@D@2@@std@@V?$shared_ptr@V?$ofImage_@E@@@2@@std@@@2@$0A@@std@@@std@@QEAAXXZ
	?_Buyheadnode@?$_Tree_comp_alloc@V?$_Tmap_traits@V?$basic_string@DU?$char_traits@D@std@@V?$allocator@D@2@@std@@V?$ofColor_@E@@U?$less@V?$basic_string@DU?$char_traits@D@std@@V?$allocator@D@2@@std@@@2@V?$allocator@U?$pair@$$CBV?$basic_string@DU?$char_traits@D@std@@V?$allocator@D@2@@std@@V?$ofColor_@E@@@std@@@2@$0A@@std@@@std@@QEAAPEAU?$_Tree_node@U?$pair@$$CBV?$basic_string@DU?$char_traits@D@std@@V?$allocator@D@2@@std@@V?$ofColor_@E@@@std@@PEAX@2@XZ
	?_Buyheadnode@?$_Tree_comp_alloc@V?$_Tmap_traits@V?$basic_string@DU?$char_traits@D@std@@V?$allocator@D@2@@std@@V?$shared_ptr@V?$ofImage_@E@@@2@U?$less@V?$basic_string@DU?$char_traits@D@std@@V?$allocator@D@2@@std@@@2@V?$allocator@U?$pair@$$CBV?$basic_string@DU?$char_traits@D@std@@V?$allocator@D@2@@std@@V?$shared_ptr@V?$ofImage_@E@@@2@@std@@@2@$0A@@std@@@std@@QEAAPEAU?$_Tree_node@U?$pair@$$CBV?$basic_string@DU?$char_traits@D@std@@V?$allocator@D@2@@std@@V?$shared_ptr@V?$ofImage_@E@@@2@@std@@PEAX@2@XZ
	?_Buynode0@?$_Tree_comp_alloc@V?$_Tmap_traits@V?$basic_string@DU?$char_traits@D@std@@V?$allocator@D@2@@std@@V?$ofColor_@E@@U?$less@V?$basic_string@DU?$char_traits@D@std@@V?$allocator@D@2@@std@@@2@V?$allocator@U?$pair@$$CBV?$basic_string@DU?$char_traits@D@std@@V?$allocator@D@2@@std@@V?$ofColor_@E@@@std@@@2@$0A@@std@@@std@@QEAAPEAU?$_Tree_node@U?$pair@$$CBV?$basic_string@DU?$char_traits@D@std@@V?$allocator@D@2@@std@@V?$ofColor_@E@@@std@@PEAX@2@XZ
	?_Buynode0@?$_Tree_comp_alloc@V?$_Tmap_traits@V?$basic_string@DU?$char_traits@D@std@@V?$allocator@D@2@@std@@V?$shared_ptr@V?$ofImage_@E@@@2@U?$less@V?$basic_string@DU?$char_traits@D@std@@V?$allocator@D@2@@std@@@2@V?$allocator@U?$pair@$$CBV?$basic_string@DU?$char_traits@D@std@@V?$allocator@D@2@@std@@V?$shared_ptr@V?$ofImage_@E@@@2@@std@@@2@$0A@@std@@@std@@QEAAPEAU?$_Tree_node@U?$pair@$$CBV?$basic_string@DU?$char_traits@D@std@@V?$allocator@D@2@@std@@V?$shared_ptr@V?$ofImage_@E@@@2@@std@@PEAX@2@XZ
	?_Color@?$_Tree_comp_alloc@V?$_Tmap_traits@V?$basic_string@DU?$char_traits@D@std@@V?$allocator@D@2@@std@@V?$ofColor_@E@@U?$less@V?$basic_string@DU?$char_traits@D@std@@V?$allocator@D@2@@std@@@2@V?$allocator@U?$pair@$$CBV?$basic_string@DU?$char_traits@D@std@@V?$allocator@D@2@@std@@V?$ofColor_@E@@@std@@@2@$0A@@std@@@std@@SAAEADPEAU?$_Tree_node@U?$pair@$$CBV?$basic_string@DU?$char_traits@D@std@@V?$allocator@D@2@@std@@V?$ofColor_@E@@@std@@PEAX@2@@Z
	?_Color@?$_Tree_comp_alloc@V?$_Tmap_traits@V?$basic_string@DU?$char_traits@D@std@@V?$allocator@D@2@@std@@V?$shared_ptr@V?$ofImage_@E@@@2@U?$less@V?$basic_string@DU?$char_traits@D@std@@V?$allocator@D@2@@std@@@2@V?$allocator@U?$pair@$$CBV?$basic_string@DU?$char_traits@D@std@@V?$allocator@D@2@@std@@V?$shared_ptr@V?$ofImage_@E@@@2@@std@@@2@$0A@@std@@@std@@SAAEADPEAU?$_Tree_node@U?$pair@$$CBV?$basic_string@DU?$char_traits@D@std@@V?$allocator@D@2@@std@@V?$shared_ptr@V?$ofImage_@E@@@2@@std@@PEAX@2@@Z
	?_Color@?$_Tree_val@U?$_Tree_simple_types@U?$pair@$$CBV?$basic_string@DU?$char_traits@D@std@@V?$allocator@D@2@@std@@V?$ofColor_@E@@@std@@@std@@@std@@SAAEADPEAU?$_Tree_node@U?$pair@$$CBV?$basic_string@DU?$char_traits@D@std@@V?$allocator@D@2@@std@@V?$ofColor_@E@@@std@@PEAX@2@@Z
	?_Color@?$_Tree_val@U?$_Tree_simple_types@U?$pair@$$CBV?$basic_string@DU?$char_traits@D@std@@V?$allocator@D@2@@std@@V?$shared_ptr@V?$ofImage_@E@@@2@@std@@@std@@@std@@SAAEADPEAU?$_Tree_node@U?$pair@$$CBV?$basic_string@DU?$char_traits@D@std@@V?$allocator@D@2@@std@@V?$shared_ptr@V?$ofImage_@E@@@2@@std@@PEAX@2@@Z
	?_Compare@?$_Tree@V?$_Tmap_traits@V?$basic_string@DU?$char_traits@D@std@@V?$allocator@D@2@@std@@V?$ofColor_@E@@U?$less@V?$basic_string@DU?$char_traits@D@std@@V?$allocator@D@2@@std@@@2@V?$allocator@U?$pair@$$CBV?$basic_string@DU?$char_traits@D@std@@V?$allocator@D@2@@std@@V?$ofColor_@E@@@std@@@2@$0A@@std@@@std@@IEBA_NAEBV?$basic_string@DU?$char_traits@D@std@@V?$allocator@D@2@@2@0@Z
	?_Compare@?$_Tree@V?$_Tmap_traits@V?$basic_string@DU?$char_traits@D@std@@V?$allocator@D@2@@std@@V?$shared_ptr@V?$ofImage_@E@@@2@U?$less@V?$basic_string@DU?$char_traits@D@std@@V?$allocator@D@2@@std@@@2@V?$allocator@U?$pair@$$CBV?$basic_string@DU?$char_traits@D@std@@V?$allocator@D@2@@std@@V?$shared_ptr@V?$ofImage_@E@@@2@@std@@@2@$0A@@std@@@std@@IEBA_NAEBV?$basic_string@DU?$char_traits@D@std@@V?$allocator@D@2@@2@0@Z
	?_Construct@?$_Tree_comp_alloc@V?$_Tmap_traits@V?$basic_string@DU?$char_traits@D@std@@V?$allocator@D@2@@std@@V?$ofColor_@E@@U?$less@V?$basic_string@DU?$char_traits@D@std@@V?$allocator@D@2@@std@@@2@V?$allocator@U?$pair@$$CBV?$basic_string@DU?$char_traits@D@std@@V?$allocator@D@2@@std@@V?$ofColor_@E@@@std@@@2@$0A@@std@@@std@@QEAAXXZ
	?_Construct@?$_Tree_comp_alloc@V?$_Tmap_traits@V?$basic_string@DU?$char_traits@D@std@@V?$allocator@D@2@@std@@V?$shared_ptr@V?$ofImage_@E@@@2@U?$less@V?$basic_string@DU?$char_traits@D@std@@V?$allocator@D@2@@std@@@2@V?$allocator@U?$pair@$$CBV?$basic_string@DU?$char_traits@D@std@@V?$allocator@D@2@@std@@V?$shared_ptr@V?$ofImage_@E@@@2@@std@@@2@$0A@@std@@@std@@QEAAXXZ
	?_Decref@?$_Ptr_base@V?$ofImage_@E@@@std@@QEAAXXZ
	?_Decref@?$_Ptr_base@VGraphics@Nodes@ofxRulr@@@std@@QEAAXXZ
	?_Delete_this@?$_Ref_count_obj@V?$ofImage_@E@@@std@@EEAAXXZ
	?_Destroy@?$_Ref_count_obj@V?$ofImage_@E@@@std@@EEAAXXZ
	?_Destroy_if_not_nil@?$_Tree@V?$_Tmap_traits@V?$basic_string@DU?$char_traits@D@std@@V?$allocator@D@2@@std@@V?$ofColor_@E@@U?$less@V?$basic_string@DU?$char_traits@D@std@@V?$allocator@D@2@@std@@@2@V?$allocator@U?$pair@$$CBV?$basic_string@DU?$char_traits@D@std@@V?$allocator@D@2@@std@@V?$ofColor_@E@@@std@@@2@$0A@@std@@@std@@IEAAXPEAU?$_Tree_node@U?$pair@$$CBV?$basic_string@DU?$char_traits@D@std@@V?$allocator@D@2@@std@@V?$ofColor_@E@@@std@@PEAX@2@@Z
	?_Destroy_if_not_nil@?$_Tree@V?$_Tmap_traits@V?$basic_string@DU?$char_traits@D@std@@V?$allocator@D@2@@std@@V?$shared_ptr@V?$ofImage_@E@@@2@U?$less@V?$basic_string@DU?$char_traits@D@std@@V?$allocator@D@2@@std@@@2@V?$allocator@U?$pair@$$CBV?$basic_string@DU?$char_traits@D@std@@V?$allocator@D@2@@std@@V?$shared_ptr@V?$ofImage_@E@@@2@@std@@@2@$0A@@std@@@std@@IEAAXPEAU?$_Tree_node@U?$pair@$$CBV?$basic_string@DU?$char_traits@D@std@@V?$allocator@D@2@@std@@V?$shared_ptr@V?$ofImage_@E@@@2@@std@@PEAX@2@@Z
	?_Erase@?$_Tree@V?$_Tmap_traits@V?$basic_string@DU?$char_traits@D@std@@V?$allocator@D@2@@std@@V?$shared_ptr@V?$ofImage_@E@@@2@U?$less@V?$basic_string@DU?$char_traits@D@std@@V?$allocator@D@2@@std@@@2@V?$allocator@U?$pair@$$CBV?$basic_string@DU?$char_traits@D@std@@V?$allocator@D@2@@std@@V?$shared_ptr@V?$ofImage_@E@@@2@@std@@@2@$0A@@std@@@std@@IEAAXPEAU?$_Tree_node@U?$pair@$$CBV?$basic_string@DU?$char_traits@D@std@@V?$allocator@D@2@@std@@V?$shared_ptr@V?$ofImage_@E@@@2@@std@@PEAX@2@@Z
	?_Free_proxy@?$_Tree_comp_alloc@V?$_Tmap_traits@V?$basic_string@DU?$char_traits@D@std@@V?$allocator@D@2@@std@@V?$shared_ptr@V?$ofImage_@E@@@2@U?$less@V?$basic_string@DU?$char_traits@D@std@@V?$allocator@D@2@@std@@@2@V?$allocator@U?$pair@$$CBV?$basic_string@DU?$char_traits@D@std@@V?$allocator@D@2@@std@@V?$shared_ptr@V?$ofImage_@E@@@2@@std@@@2@$0A@@std@@@std@@QEAAXXZ
	?_Freeheadnode@?$_Tree_comp_alloc@V?$_Tmap_traits@V?$basic_string@DU?$char_traits@D@std@@V?$allocator@D@2@@std@@V?$ofColor_@E@@U?$less@V?$basic_string@DU?$char_traits@D@std@@V?$allocator@D@2@@std@@@2@V?$allocator@U?$pair@$$CBV?$basic_string@DU?$char_traits@D@std@@V?$allocator@D@2@@std@@V?$ofColor_@E@@@std@@@2@$0A@@std@@@std@@QEAAXPEAU?$_Tree_node@U?$pair@$$CBV?$basic_string@DU?$char_traits@D@std@@V?$allocator@D@2@@std@@V?$ofColor_@E@@@std@@PEAX@2@@Z
	?_Freeheadnode@?$_Tree_comp_alloc@V?$_Tmap_traits@V?$basic_string@DU?$char_traits@D@std@@V?$allocator@D@2@@std@@V?$shared_ptr@V?$ofImage_@E@@@2@U?$less@V?$basic_string@DU?$char_traits@D@std@@V?$allocator@D@2@@std@@@2@V?$allocator@U?$pair@$$CBV?$basic_string@DU?$char_traits@D@std@@V?$allocator@D@2@@std@@V?$shared_ptr@V?$ofImage_@E@@@2@@std@@@2@$0A@@std@@@std@@QEAAXPEAU?$_Tree_node@U?$pair@$$CBV?$basic_string@DU?$char_traits@D@std@@V?$allocator@D@2@@std@@V?$shared_ptr@V?$ofImage_@E@@@2@@std@@PEAX@2@@Z
	?_Freenode0@?$_Tree_comp_alloc@V?$_Tmap_traits@V?$basic_string@DU?$char_traits@D@std@@V?$allocator@D@2@@std@@V?$ofColor_@E@@U?$less@V?$basic_string@DU?$char_traits@D@std@@V?$allocator@D@2@@std@@@2@V?$allocator@U?$pair@$$CBV?$basic_string@DU?$char_traits@D@std@@V?$allocator@D@2@@std@@V?$ofColor_@E@@@std@@@2@$0A@@std@@@std@@QEAAXPEAU?$_Tree_node@U?$pair@$$CBV?$basic_string@DU?$char_traits@D@std@@V?$allocator@D@2@@std@@V?$ofColor_@E@@@std@@PEAX@2@@Z
	?_Freenode0@?$_Tree_comp_alloc@V?$_Tmap_traits@V?$basic_string@DU?$char_traits@D@std@@V?$allocator@D@2@@std@@V?$shared_ptr@V?$ofImage_@E@@@2@U?$less@V?$basic_string@DU?$char_traits@D@std@@V?$allocator@D@2@@std@@@2@V?$allocator@U?$pair@$$CBV?$basic_string@DU?$char_traits@D@std@@V?$allocator@D@2@@std@@V?$shared_ptr@V?$ofImage_@E@@@2@@std@@@2@$0A@@std@@@std@@QEAAXPEAU?$_Tree_node@U?$pair@$$CBV?$basic_string@DU?$char_traits@D@std@@V?$allocator@D@2@@std@@V?$shared_ptr@V?$ofImage_@E@@@2@@std@@PEAX@2@@Z
	?_Get@?$_Ptr_base@V?$ofImage_@E@@@std@@QEBAPEAV?$ofImage_@E@@XZ
	?_Get_data@?$_Tree_comp_alloc@V?$_Tmap_traits@V?$basic_string@DU?$char_traits@D@std@@V?$allocator@D@2@@std@@V?$ofColor_@E@@U?$less@V?$basic_string@DU?$char_traits@D@std@@V?$allocator@D@2@@std@@@2@V?$allocator@U?$pair@$$CBV?$basic_string@DU?$char_traits@D@std@@V?$allocator@D@2@@std@@V?$ofColor_@E@@@std@@@2@$0A@@std@@@std@@QEAAAEAV?$_Tree_val@U?$_Tree_simple_types@U?$pair@$$CBV?$basic_string@DU?$char_traits@D@std@@V?$allocator@D@2@@std@@V?$ofColor_@E@@@std@@@std@@@2@XZ
	?_Get_data@?$_Tree_comp_alloc@V?$_Tmap_traits@V?$basic_string@DU?$char_traits@D@std@@V?$allocator@D@2@@std@@V?$ofColor_@E@@U?$less@V?$basic_string@DU?$char_traits@D@std@@V?$allocator@D@2@@std@@@2@V?$allocator@U?$pair@$$CBV?$basic_string@DU?$char_traits@D@std@@V?$allocator@D@2@@std@@V?$ofColor_@E@@@std@@@2@$0A@@std@@@std@@QEBAAEBV?$_Tree_val@U?$_Tree_simple_types@U?$pair@$$CBV?$basic_string@DU?$char_traits@D@std@@V?$allocator@D@2@@std@@V?$ofColor_@E@@@std@@@std@@@2@XZ
	?_Get_data@?$_Tree_comp_alloc@V?$_Tmap_traits@V?$basic_string@DU?$char_traits@D@std@@V?$allocator@D@2@@std@@V?$shared_ptr@V?$ofImage_@E@@@2@U?$less@V?$basic_string@DU?$char_traits@D@std@@V?$allocator@D@2@@std@@@2@V?$allocator@U?$pair@$$CBV?$basic_string@DU?$char_traits@D@std@@V?$allocator@D@2@@std@@V?$shared_ptr@V?$ofImage_@E@@@2@@std@@@2@$0A@@std@@@std@@QEAAAEAV?$_Tree_val@U?$_Tree_simple_types@U?$pair@$$CBV?$basic_string@DU?$char_traits@D@std@@V?$allocator@D@2@@std@@V?$shared_ptr@V?$ofImage_@E@@@2@@std@@@std@@@2@XZ
	?_Get_data@?$_Tree_comp_alloc@V?$_Tmap_traits@V?$basic_string@DU?$char_traits@D@std@@V?$allocator@D@2@@std@@V?$shared_ptr@V?$ofImage_@E@@@2@U?$less@V?$basic_string@DU?$char_traits@D@std@@V?$allocator@D@2@@std@@@2@V?$allocator@U?$pair@$$CBV?$basic_string@DU?$char_traits@D@std@@V?$allocator@D@2@@std@@V?$shared_ptr@V?$ofImage_@E@@@2@@std@@@2@$0A@@std@@@std@@QEBAAEBV?$_Tree_val@U?$_Tree_simple_types@U?$pair@$$CBV?$basic_string@DU?$char_traits@D@std@@V?$allocator@D@2@@std@@V?$shared_ptr@V?$ofImage_@E@@@2@@std@@@std@@@2@XZ
	?_Get_first@?$_Compressed_pair@U?$_Wrap_alloc@V?$allocator@U?$_Tree_node@U?$pair@$$CBV?$basic_string@DU?$char_traits@D@std@@V?$allocator@D@2@@std@@V?$ofColor_@E@@@std@@PEAX@std@@@std@@@std@@V?$_Tree_val@U?$_Tree_simple_types@U?$pair@$$CBV?$basic_string@DU?$char_traits@D@std@@V?$allocator@D@2@@std@@V?$ofColor_@E@@@std@@@std@@@2@$00@std@@QEAAAEAU?$_Wrap_alloc@V?$allocator@U?$_Tree_node@U?$pair@$$CBV?$basic_string@DU?$char_traits@D@std@@V?$allocator@D@2@@std@@V?$ofColor_@E@@@std@@PEAX@std@@@std@@@2@XZ
	?_Get_first@?$_Compressed_pair@U?$_Wrap_alloc@V?$allocator@U?$_Tree_node@U?$pair@$$CBV?$basic_string@DU?$char_traits@D@std@@V?$allocator@D@2@@std@@V?$ofColor_@E@@@std@@PEAX@std@@@std@@@std@@V?$_Tree_val@U?$_Tree_simple_types@U?$pair@$$CBV?$basic_string@DU?$char_traits@D@std@@V?$allocator@D@2@@std@@V?$ofColor_@E@@@std@@@std@@@2@$00@std@@QEBAAEBU?$_Wrap_alloc@V?$allocator@U?$_Tree_node@U?$pair@$$CBV?$basic_string@DU?$char_traits@D@std@@V?$allocator@D@2@@std@@V?$ofColor_@E@@@std@@PEAX@std@@@std@@@2@XZ
	?_Get_first@?$_Compressed_pair@U?$_Wrap_alloc@V?$allocator@U?$_Tree_node@U?$pair@$$CBV?$basic_string@DU?$char_traits@D@std@@V?$allocator@D@2@@std@@V?$shared_ptr@V?$ofImage_@E@@@2@@std@@PEAX@std@@@std@@@std@@V?$_Tree_val@U?$_Tree_simple_types@U?$pair@$$CBV?$basic_string@DU?$char_traits@D@std@@V?$allocator@D@2@@std@@V?$shared_ptr@V?$ofImage_@E@@@2@@std@@@std@@@2@$00@std@@QEAAAEAU?$_Wrap_alloc@V?$allocator@U?$_Tree_node@U?$pair@$$CBV?$basic_string@DU?$char_traits@D@std@@V?$allocator@D@2@@std@@V?$shared_ptr@V?$ofImage_@E@@@2@@std@@PEAX@std@@@std@@@2@XZ
	?_Get_first@?$_Compressed_pair@U?$_Wrap_alloc@V?$allocator@U?$_Tree_node@U?$pair@$$CBV?$basic_string@DU?$char_traits@D@std@@V?$allocator@D@2@@std@@V?$shared_ptr@V?$ofImage_@E@@@2@@std@@PEAX@std@@@std@@@std@@V?$_Tree_val@U?$_Tree_simple_types@U?$pair@$$CBV?$basic_string@DU?$char_traits@D@std@@V?$allocator@D@2@@std@@V?$shared_ptr@V?$ofImage_@E@@@2@@std@@@std@@@2@$00@std@@QEBAAEBU?$_Wrap_alloc@V?$allocator@U?$_Tree_node@U?$pair@$$CBV?$basic_string@DU?$char_traits@D@std@@V?$allocator@D@2@@std@@V?$shared_ptr@V?$ofImage_@E@@@2@@std@@PEAX@std@@@std@@@2@XZ
	?_Get_first@?$_Compressed_pair@U?$less@V?$basic_string@DU?$char_traits@D@std@@V?$allocator@D@2@@std@@@std@@V?$_Compressed_pair@U?$_Wrap_alloc@V?$allocator@U?$_Tree_node@U?$pair@$$CBV?$basic_string@DU?$char_traits@D@std@@V?$allocator@D@2@@std@@V?$ofColor_@E@@@std@@PEAX@std@@@std@@@std@@V?$_Tree_val@U?$_Tree_simple_types@U?$pair@$$CBV?$basic_string@DU?$char_traits@D@std@@V?$allocator@D@2@@std@@V?$ofColor_@E@@@std@@@std@@@2@$00@2@$00@std@@QEAAAEAU?$less@V?$basic_string@DU?$char_traits@D@std@@V?$allocator@D@2@@std@@@2@XZ
	?_Get_first@?$_Compressed_pair@U?$less@V?$basic_string@DU?$char_traits@D@std@@V?$allocator@D@2@@std@@@std@@V?$_Compressed_pair@U?$_Wrap_alloc@V?$allocator@U?$_Tree_node@U?$pair@$$CBV?$basic_string@DU?$char_traits@D@std@@V?$allocator@D@2@@std@@V?$ofColor_@E@@@std@@PEAX@std@@@std@@@std@@V?$_Tree_val@U?$_Tree_simple_types@U?$pair@$$CBV?$basic_string@DU?$char_traits@D@std@@V?$allocator@D@2@@std@@V?$ofColor_@E@@@std@@@std@@@2@$00@2@$00@std@@QEBAAEBU?$less@V?$basic_string@DU?$char_traits@D@std@@V?$allocator@D@2@@std@@@2@XZ
	?_Get_first@?$_Compressed_pair@U?$less@V?$basic_string@DU?$char_traits@D@std@@V?$allocator@D@2@@std@@@std@@V?$_Compressed_pair@U?$_Wrap_alloc@V?$allocator@U?$_Tree_node@U?$pair@$$CBV?$basic_string@DU?$char_traits@D@std@@V?$allocator@D@2@@std@@V?$shared_ptr@V?$ofImage_@E@@@2@@std@@PEAX@std@@@std@@@std@@V?$_Tree_val@U?$_Tree_simple_types@U?$pair@$$CBV?$basic_string@DU?$char_traits@D@std@@V?$allocator@D@2@@std@@V?$shared_ptr@V?$ofImage_@E@@@2@@std@@@std@@@2@$00@2@$00@std@@QEAAAEAU?$less@V?$basic_string@DU?$char_traits@D@std@@V?$allocator@D@2@@std@@@2@XZ
	?_Get_first@?$_Compressed_pair@U?$less@V?$basic_string@DU?$char_traits@D@std@@V?$allocator@D@2@@std@@@std@@V?$_Compressed_pair@U?$_Wrap_alloc@V?$allocator@U?$_Tree_node@U?$pair@$$CBV?$basic_string@DU?$char_traits@D@std@@V?$allocator@D@2@@std@@V?$shared_ptr@V?$ofImage_@E@@@2@@std@@PEAX@std@@@std@@@std@@V?$_Tree_val@U?$_Tree_simple_types@U?$pair@$$CBV?$basic_string@DU?$char_traits@D@std@@V?$allocator@D@2@@std@@V?$shared_ptr@V?$ofImage_@E@@@2@@std@@@std@@@2@$00@2@$00@std@@QEBAAEBU?$less@V?$basic_string@DU?$char_traits@D@std@@V?$allocator@D@2@@std@@@2@XZ
	?_Get_second@?$_Compressed_pair@U?$_Wrap_alloc@V?$allocator@U?$_Tree_node@U?$pair@$$CBV?$basic_string@DU?$char_traits@D@std@@V?$allocator@D@2@@std@@V?$ofColor_@E@@@std@@PEAX@std@@@std@@@std@@V?$_Tree_val@U?$_Tree_simple_types@U?$pair@$$CBV?$basic_string@DU?$char_traits@D@std@@V?$allocator@D@2@@std@@V?$ofColor_@E@@@std@@@std@@@2@$00@std@@QEAAAEAV?$_Tree_val@U?$_Tree_simple_types@U?$pair@$$CBV?$basic_string@DU?$char_traits@D@std@@V?$allocator@D@2@@std@@V?$ofColor_@E@@@std@@@std@@@2@XZ
	?_Get_second@?$_Compressed_pair@U?$_Wrap_alloc@V?$allocator@U?$_Tree_node@U?$pair@$$CBV?$basic_string@DU?$char_traits@D@std@@V?$allocator@D@2@@std@@V?$ofColor_@E@@@std@@PEAX@std@@@std@@@std@@V?$_Tree_val@U?$_Tree_simple_types@U?$pair@$$CBV?$basic_string@DU?$char_traits@D@std@@V?$allocator@D@2@@std@@V?$ofColor_@E@@@std@@@std@@@2@$00@std@@QEBAAEBV?$_Tree_val@U?$_Tree_simple_types@U?$pair@$$CBV?$basic_string@DU?$char_traits@D@std@@V?$allocator@D@2@@std@@V?$ofColor_@E@@@std@@@std@@@2@XZ
	?_Get_second@?$_Compressed_pair@U?$_Wrap_alloc@V?$allocator@U?$_Tree_node@U?$pair@$$CBV?$basic_string@DU?$char_traits@D@std@@V?$allocator@D@2@@std@@V?$shared_ptr@V?$ofImage_@E@@@2@@std@@PEAX@std@@@std@@@std@@V?$_Tree_val@U?$_Tree_simple_types@U?$pair@$$CBV?$basic_string@DU?$char_traits@D@std@@V?$allocator@D@2@@std@@V?$shared_ptr@V?$ofImage_@E@@@2@@std@@@std@@@2@$00@std@@QEAAAEAV?$_Tree_val@U?$_Tree_simple_types@U?$pair@$$CBV?$basic_string@DU?$char_traits@D@std@@V?$allocator@D@2@@std@@V?$shared_ptr@V?$ofImage_@E@@@2@@std@@@std@@@2@XZ
	?_Get_second@?$_Compressed_pair@U?$_Wrap_alloc@V?$allocator@U?$_Tree_node@U?$pair@$$CBV?$basic_string@DU?$char_traits@D@std@@V?$allocator@D@2@@std@@V?$shared_ptr@V?$ofImage_@E@@@2@@std@@PEAX@std@@@std@@@std@@V?$_Tree_val@U?$_Tree_simple_types@U?$pair@$$CBV?$basic_string@DU?$char_traits@D@std@@V?$allocator@D@2@@std@@V?$shared_ptr@V?$ofImage_@E@@@2@@std@@@std@@@2@$00@std@@QEBAAEBV?$_Tree_val@U?$_Tree_simple_types@U?$pair@$$CBV?$basic_string@DU?$char_traits@D@std@@V?$allocator@D@2@@std@@V?$shared_ptr@V?$ofImage_@E@@@2@@std@@@std@@@2@XZ
	?_Get_second@?$_Compressed_pair@U?$less@V?$basic_string@DU?$char_traits@D@std@@V?$allocator@D@2@@std@@@std@@V?$_Compressed_pair@U?$_Wrap_alloc@V?$allocator@U?$_Tree_node@U?$pair@$$CBV?$basic_string@DU?$char_traits@D@std@@V?$allocator@D@2@@std@@V?$ofColor_@E@@@std@@PEAX@std@@@std@@@std@@V?$_Tree_val@U?$_Tree_simple_types@U?$pair@$$CBV?$basic_string@DU?$char_traits@D@std@@V?$allocator@D@2@@std@@V?$ofColor_@E@@@std@@@std@@@2@$00@2@$00@std@@QEAAAEAV?$_Compressed_pair@U?$_Wrap_alloc@V?$allocator@U?$_Tree_node@U?$pair@$$CBV?$basic_string@DU?$char_traits@D@std@@V?$allocator@D@2@@std@@V?$ofColor_@E@@@std@@PEAX@std@@@std@@@std@@V?$_Tree_val@U?$_Tree_simple_types@U?$pair@$$CBV?$basic_string@DU?$char_traits@D@std@@V?$allocator@D@2@@std@@V?$ofColor_@E@@@std@@@std@@@2@$00@2@XZ
	?_Get_second@?$_Compressed_pair@U?$less@V?$basic_string@DU?$char_traits@D@std@@V?$allocator@D@2@@std@@@std@@V?$_Compressed_pair@U?$_Wrap_alloc@V?$allocator@U?$_Tree_node@U?$pair@$$CBV?$basic_string@DU?$char_traits@D@std@@V?$allocator@D@2@@std@@V?$ofColor_@E@@@std@@PEAX@std@@@std@@@std@@V?$_Tree_val@U?$_Tree_simple_types@U?$pair@$$CBV?$basic_string@DU?$char_traits@D@std@@V?$allocator@D@2@@std@@V?$ofColor_@E@@@std@@@std@@@2@$00@2@$00@std@@QEBAAEBV?$_Compressed_pair@U?$_Wrap_alloc@V?$allocator@U?$_Tree_node@U?$pair@$$CBV?$basic_string@DU?$char_traits@D@std@@V?$allocator@D@2@@std@@V?$ofColor_@E@@@std@@PEAX@std@@@std@@@std@@V?$_Tree_val@U?$_Tree_simple_types@U?$pair@$$CBV?$basic_string@DU?$char_traits@D@std@@V?$allocator@D@2@@std@@V?$ofColor_@E@@@std@@@std@@@2@$00@2@XZ
	?_Get_second@?$_Compressed_pair@U?$less@V?$basic_string@DU?$char_traits@D@std@@V?$allocator@D@2@@std@@@std@@V?$_Compressed_pair@U?$_Wrap_alloc@V?$allocator@U?$_Tree_node@U?$pair@$$CBV?$basic_string@DU?$char_traits@D@std@@V?$allocator@D@2@@std@@V?$shared_ptr@V?$ofImage_@E@@@2@@std@@PEAX@std@@@std@@@std@@V?$_Tree_val@U?$_Tree_simple_types@U?$pair@$$CBV?$basic_string@DU?$char_traits@D@std@@V?$allocator@D@2@@std@@V?$shared_ptr@V?$ofImage_@E@@@2@@std@@@std@@@2@$00@2@$00@std@@QEAAAEAV?$_Compressed_pair@U?$_Wrap_alloc@V?$allocator@U?$_Tree_node@U?$pair@$$CBV?$basic_string@DU?$char_traits@D@std@@V?$allocator@D@2@@std@@V?$shared_ptr@V?$ofImage_@E@@@2@@std@@PEAX@std@@@std@@@std@@V?$_Tree_val@U?$_Tree_simple_types@U?$pair@$$CBV?$basic_string@DU?$char_traits@D@std@@V?$allocator@D@2@@std@@V?$shared_ptr@V?$ofImage_@E@@@2@@std@@@std@@@2@$00@2@XZ
	?_Get_second@?$_Compressed_pair@U?$less@V?$basic_string@DU?$char_traits@D@std@@V?$allocator@D@2@@std@@@std@@V?$_Compressed_pair@U?$_Wrap_alloc@V?$allocator@U?$_Tree_node@U?$pair@$$CBV?$basic_string@DU?$char_traits@D@std@@V?$allocator@D@2@@std@@V?$shared_ptr@V?$ofImage_@E@@@2@@std@@PEAX@std@@@std@@@std@@V?$_Tree_val@U?$_Tree_simple_types@U?$pair@$$CBV?$basic_string@DU?$char_traits@D@std@@V?$allocator@D@2@@std@@V?$shared_ptr@V?$ofImage_@E@@@2@@std@@@std@@@2@$00@2@$00@std@@QEBAAEBV?$_Compressed_pair@U?$_Wrap_alloc@V?$allocator@U?$_Tree_node@U?$pair@$$CBV?$basic_string@DU?$char_traits@D@std@@V?$allocator@D@2@@std@@V?$shared_ptr@V?$ofImage_@E@@@2@@std@@PEAX@std@@@std@@@std@@V?$_Tree_val@U?$_Tree_simple_types@U?$pair@$$CBV?$basic_string@DU?$char_traits@D@std@@V?$allocator@D@2@@std@@V?$shared_ptr@V?$ofImage_@E@@@2@@std@@@std@@@2@$00@2@XZ
	?_Getal@?$_Tree_comp_alloc@V?$_Tmap_traits@V?$basic_string@DU?$char_traits@D@std@@V?$allocator@D@2@@std@@V?$ofColor_@E@@U?$less@V?$basic_string@DU?$char_traits@D@std@@V?$allocator@D@2@@std@@@2@V?$allocator@U?$pair@$$CBV?$basic_string@DU?$char_traits@D@std@@V?$allocator@D@2@@std@@V?$ofColor_@E@@@std@@@2@$0A@@std@@@std@@QEAAAEAU?$_Wrap_alloc@V?$allocator@U?$_Tree_node@U?$pair@$$CBV?$basic_string@DU?$char_traits@D@std@@V?$allocator@D@2@@std@@V?$ofColor_@E@@@std@@PEAX@std@@@std@@@2@XZ
	?_Getal@?$_Tree_comp_alloc@V?$_Tmap_traits@V?$basic_string@DU?$char_traits@D@std@@V?$allocator@D@2@@std@@V?$ofColor_@E@@U?$less@V?$basic_string@DU?$char_traits@D@std@@V?$allocator@D@2@@std@@@2@V?$allocator@U?$pair@$$CBV?$basic_string@DU?$char_traits@D@std@@V?$allocator@D@2@@std@@V?$ofColor_@E@@@std@@@2@$0A@@std@@@std@@QEBAAEBU?$_Wrap_alloc@V?$allocator@U?$_Tree_node@U?$pair@$$CBV?$basic_string@DU?$char_traits@D@std@@V?$allocator@D@2@@std@@V?$ofColor_@E@@@std@@PEAX@std@@@std@@@2@XZ
	?_Getal@?$_Tree_comp_alloc@V?$_Tmap_traits@V?$basic_string@DU?$char_traits@D@std@@V?$allocator@D@2@@std@@V?$shared_ptr@V?$ofImage_@E@@@2@U?$less@V?$basic_string@DU?$char_traits@D@std@@V?$allocator@D@2@@std@@@2@V?$allocator@U?$pair@$$CBV?$basic_string@DU?$char_traits@D@std@@V?$allocator@D@2@@std@@V?$shared_ptr@V?$ofImage_@E@@@2@@std@@@2@$0A@@std@@@std@@QEAAAEAU?$_Wrap_alloc@V?$allocator@U?$_Tree_node@U?$pair@$$CBV?$basic_string@DU?$char_traits@D@std@@V?$allocator@D@2@@std@@V?$shared_ptr@V?$ofImage_@E@@@2@@std@@PEAX@std@@@std@@@2@XZ
	?_Getal@?$_Tree_comp_alloc@V?$_Tmap_traits@V?$basic_string@DU?$char_traits@D@std@@V?$allocator@D@2@@std@@V?$shared_ptr@V?$ofImage_@E@@@2@U?$less@V?$basic_string@DU?$char_traits@D@std@@V?$allocator@D@2@@std@@@2@V?$allocator@U?$pair@$$CBV?$basic_string@DU?$char_traits@D@std@@V?$allocator@D@2@@std@@V?$shared_ptr@V?$ofImage_@E@@@2@@std@@@2@$0A@@std@@@std@@QEBAAEBU?$_Wrap_alloc@V?$allocator@U?$_Tree_node@U?$pair@$$CBV?$basic_string@DU?$char_traits@D@std@@V?$allocator@D@2@@std@@V?$shared_ptr@V?$ofImage_@E@@@2@@std@@PEAX@std@@@std@@@2@XZ
	?_Getcomp@?$_Tree_comp_alloc@V?$_Tmap_traits@V?$basic_string@DU?$char_traits@D@std@@V?$allocator@D@2@@std@@V?$ofColor_@E@@U?$less@V?$basic_string@DU?$char_traits@D@std@@V?$allocator@D@2@@std@@@2@V?$allocator@U?$pair@$$CBV?$basic_string@DU?$char_traits@D@std@@V?$allocator@D@2@@std@@V?$ofColor_@E@@@std@@@2@$0A@@std@@@std@@QEAAAEAU?$less@V?$basic_string@DU?$char_traits@D@std@@V?$allocator@D@2@@std@@@2@XZ
	?_Getcomp@?$_Tree_comp_alloc@V?$_Tmap_traits@V?$basic_string@DU?$char_traits@D@std@@V?$allocator@D@2@@std@@V?$ofColor_@E@@U?$less@V?$basic_string@DU?$char_traits@D@std@@V?$allocator@D@2@@std@@@2@V?$allocator@U?$pair@$$CBV?$basic_string@DU?$char_traits@D@std@@V?$allocator@D@2@@std@@V?$ofColor_@E@@@std@@@2@$0A@@std@@@std@@QEBAAEBU?$less@V?$basic_string@DU?$char_traits@D@std@@V?$allocator@D@2@@std@@@2@XZ
	?_Getcomp@?$_Tree_comp_alloc@V?$_Tmap_traits@V?$basic_string@DU?$char_traits@D@std@@V?$allocator@D@2@@std@@V?$shared_ptr@V?$ofImage_@E@@@2@U?$less@V?$basic_string@DU?$char_traits@D@std@@V?$allocator@D@2@@std@@@2@V?$allocator@U?$pair@$$CBV?$basic_string@DU?$char_traits@D@std@@V?$allocator@D@2@@std@@V?$shared_ptr@V?$ofImage_@E@@@2@@std@@@2@$0A@@std@@@std@@QEAAAEAU?$less@V?$basic_string@DU?$char_traits@D@std@@V?$allocator@D@2@@std@@@2@XZ
	?_Getcomp@?$_Tree_comp_alloc@V?$_Tmap_traits@V?$basic_string@DU?$char_traits@D@std@@V?$allocator@D@2@@std@@V?$shared_ptr@V?$ofImage_@E@@@2@U?$less@V?$basic_string@DU?$char_traits@D@std@@V?$allocator@D@2@@std@@@2@V?$allocator@U?$pair@$$CBV?$basic_string@DU?$char_traits@D@std@@V?$allocator@D@2@@std@@V?$shared_ptr@V?$ofImage_@E@@@2@@std@@@2@$0A@@std@@@std@@QEBAAEBU?$less@V?$basic_string@DU?$char_traits@D@std@@V?$allocator@D@2@@std@@@2@XZ
	?_Getpfirst@?$_Tree_comp_alloc@V?$_Tmap_traits@V?$basic_string@DU?$char_traits@D@std@@V?$allocator@D@2@@std@@V?$shared_ptr@V?$ofImage_@E@@@2@U?$less@V?$basic_string@DU?$char_traits@D@std@@V?$allocator@D@2@@std@@@2@V?$allocator@U?$pair@$$CBV?$basic_string@DU?$char_traits@D@std@@V?$allocator@D@2@@std@@V?$shared_ptr@V?$ofImage_@E@@@2@@std@@@2@$0A@@std@@@std@@QEBAPEAPEAU_Iterator_base12@2@XZ
	?_Getptr@?$_Ref_count_obj@V?$ofImage_@E@@@std@@QEBAPEAV?$ofImage_@E@@XZ
	?_Isnil@?$_Tree_comp_alloc@V?$_Tmap_traits@V?$basic_string@DU?$char_traits@D@std@@V?$allocator@D@2@@std@@V?$ofColor_@E@@U?$less@V?$basic_string@DU?$char_traits@D@std@@V?$allocator@D@2@@std@@@2@V?$allocator@U?$pair@$$CBV?$basic_string@DU?$char_traits@D@std@@V?$allocator@D@2@@std@@V?$ofColor_@E@@@std@@@2@$0A@@std@@@std@@SAAEADPEAU?$_Tree_node@U?$pair@$$CBV?$basic_string@DU?$char_traits@D@std@@V?$allocator@D@2@@std@@V?$ofColor_@E@@@std@@PEAX@2@@Z
	?_Isnil@?$_Tree_comp_alloc@V?$_Tmap_traits@V?$basic_string@DU?$char_traits@D@std@@V?$allocator@D@2@@std@@V?$shared_ptr@V?$ofImage_@E@@@2@U?$less@V?$basic_string@DU?$char_traits@D@std@@V?$allocator@D@2@@std@@@2@V?$allocator@U?$pair@$$CBV?$basic_string@DU?$char_traits@D@std@@V?$allocator@D@2@@std@@V?$shared_ptr@V?$ofImage_@E@@@2@@std@@@2@$0A@@std@@@std@@SAAEADPEAU?$_Tree_node@U?$pair@$$CBV?$basic_string@DU?$char_traits@D@std@@V?$allocator@D@2@@std@@V?$shared_ptr@V?$ofImage_@E@@@2@@std@@PEAX@2@@Z
	?_Isnil@?$_Tree_val@U?$_Tree_simple_types@U?$pair@$$CBV?$basic_string@DU?$char_traits@D@std@@V?$allocator@D@2@@std@@V?$ofColor_@E@@@std@@@std@@@std@@SAAEADPEAU?$_Tree_node@U?$pair@$$CBV?$basic_string@DU?$char_traits@D@std@@V?$allocator@D@2@@std@@V?$ofColor_@E@@@std@@PEAX@2@@Z
	?_Isnil@?$_Tree_val@U?$_Tree_simple_types@U?$pair@$$CBV?$basic_string@DU?$char_traits@D@std@@V?$allocator@D@2@@std@@V?$shared_ptr@V?$ofImage_@E@@@2@@std@@@std@@@std@@SAAEADPEAU?$_Tree_node@U?$pair@$$CBV?$basic_string@DU?$char_traits@D@std@@V?$allocator@D@2@@std@@V?$shared_ptr@V?$ofImage_@E@@@2@@std@@PEAX@2@@Z
	?_Key@?$_Tree@V?$_Tmap_traits@V?$basic_string@DU?$char_traits@D@std@@V?$allocator@D@2@@std@@V?$ofColor_@E@@U?$less@V?$basic_string@DU?$char_traits@D@std@@V?$allocator@D@2@@std@@@2@V?$allocator@U?$pair@$$CBV?$basic_string@DU?$char_traits@D@std@@V?$allocator@D@2@@std@@V?$ofColor_@E@@@std@@@2@$0A@@std@@@std@@IEBAAEBV?$basic_string@DU?$char_traits@D@std@@V?$allocator@D@2@@2@PEAU?$_Tree_node@U?$pair@$$CBV?$basic_string@DU?$char_traits@D@std@@V?$allocator@D@2@@std@@V?$ofColor_@E@@@std@@PEAX@2@@Z
	?_Key@?$_Tree@V?$_Tmap_traits@V?$basic_string@DU?$char_traits@D@std@@V?$allocator@D@2@@std@@V?$shared_ptr@V?$ofImage_@E@@@2@U?$less@V?$basic_string@DU?$char_traits@D@std@@V?$allocator@D@2@@std@@@2@V?$allocator@U?$pair@$$CBV?$basic_string@DU?$char_traits@D@std@@V?$allocator@D@2@@std@@V?$shared_ptr@V?$ofImage_@E@@@2@@std@@@2@$0A@@std@@@std@@IEBAAEBV?$basic_string@DU?$char_traits@D@std@@V?$allocator@D@2@@2@PEAU?$_Tree_node@U?$pair@$$CBV?$basic_string@DU?$char_traits@D@std@@V?$allocator@D@2@@std@@V?$shared_ptr@V?$ofImage_@E@@@2@@std@@PEAX@2@@Z
	?_Kfn@?$_Tree@V?$_Tmap_traits@V?$basic_string@DU?$char_traits@D@std@@V?$allocator@D@2@@std@@V?$ofColor_@E@@U?$less@V?$basic_string@DU?$char_traits@D@std@@V?$allocator@D@2@@std@@@2@V?$allocator@U?$pair@$$CBV?$basic_string@DU?$char_traits@D@std@@V?$allocator@D@2@@std@@V?$ofColor_@E@@@std@@@2@$0A@@std@@@std@@IEBAAEBV?$basic_string@DU?$char_traits@D@std@@V?$allocator@D@2@@2@AEBU?$pair@$$CBV?$basic_string@DU?$char_traits@D@std@@V?$allocator@D@2@@std@@V?$ofColor_@E@@@2@@Z
	?_Kfn@?$_Tree@V?$_Tmap_traits@V?$basic_string@DU?$char_traits@D@std@@V?$allocator@D@2@@std@@V?$shared_ptr@V?$ofImage_@E@@@2@U?$less@V?$basic_string@DU?$char_traits@D@std@@V?$allocator@D@2@@std@@@2@V?$allocator@U?$pair@$$CBV?$basic_string@DU?$char_traits@D@std@@V?$allocator@D@2@@std@@V?$shared_ptr@V?$ofImage_@E@@@2@@std@@@2@$0A@@std@@@std@@IEBAAEBV?$basic_string@DU?$char_traits@D@std@@V?$allocator@D@2@@2@AEBU?$pair@$$CBV?$basic_string@DU?$char_traits@D@std@@V?$allocator@D@2@@std@@V?$shared_ptr@V?$ofImage_@E@@@2@@2@@Z
	?_Left@?$_Tree_comp_alloc@V?$_Tmap_traits@V?$basic_string@DU?$char_traits@D@std@@V?$allocator@D@2@@std@@V?$ofColor_@E@@U?$less@V?$basic_string@DU?$char_traits@D@std@@V?$allocator@D@2@@std@@@2@V?$allocator@U?$pair@$$CBV?$basic_string@DU?$char_traits@D@std@@V?$allocator@D@2@@std@@V?$ofColor_@E@@@std@@@2@$0A@@std@@@std@@SAAEAPEAU?$_Tree_node@U?$pair@$$CBV?$basic_string@DU?$char_traits@D@std@@V?$allocator@D@2@@std@@V?$ofColor_@E@@@std@@PEAX@2@PEAU32@@Z
	?_Left@?$_Tree_comp_alloc@V?$_Tmap_traits@V?$basic_string@DU?$char_traits@D@std@@V?$allocator@D@2@@std@@V?$shared_ptr@V?$ofImage_@E@@@2@U?$less@V?$basic_string@DU?$char_traits@D@std@@V?$allocator@D@2@@std@@@2@V?$allocator@U?$pair@$$CBV?$basic_string@DU?$char_traits@D@std@@V?$allocator@D@2@@std@@V?$shared_ptr@V?$ofImage_@E@@@2@@std@@@2@$0A@@std@@@std@@SAAEAPEAU?$_Tree_node@U?$pair@$$CBV?$basic_string@DU?$char_traits@D@std@@V?$allocator@D@2@@std@@V?$shared_ptr@V?$ofImage_@E@@@2@@std@@PEAX@2@PEAU32@@Z
	?_Left@?$_Tree_val@U?$_Tree_simple_types@U?$pair@$$CBV?$basic_string@DU?$char_traits@D@std@@V?$allocator@D@2@@std@@V?$ofColor_@E@@@std@@@std@@@std@@SAAEAPEAU?$_Tree_node@U?$pair@$$CBV?$basic_string@DU?$char_traits@D@std@@V?$allocator@D@2@@std@@V?$ofColor_@E@@@std@@PEAX@2@PEAU32@@Z
	?_Left@?$_Tree_val@U?$_Tree_simple_types@U?$pair@$$CBV?$basic_string@DU?$char_traits@D@std@@V?$allocator@D@2@@std@@V?$shared_ptr@V?$ofImage_@E@@@2@@std@@@std@@@std@@SAAEAPEAU?$_Tree_node@U?$pair@$$CBV?$basic_string@DU?$char_traits@D@std@@V?$allocator@D@2@@std@@V?$shared_ptr@V?$ofImage_@E@@@2@@std@@PEAX@2@PEAU32@@Z
	?_Lmost@?$_Tree@V?$_Tmap_traits@V?$basic_string@DU?$char_traits@D@std@@V?$allocator@D@2@@std@@V?$ofColor_@E@@U?$less@V?$basic_string@DU?$char_traits@D@std@@V?$allocator@D@2@@std@@@2@V?$allocator@U?$pair@$$CBV?$basic_string@DU?$char_traits@D@std@@V?$allocator@D@2@@std@@V?$ofColor_@E@@@std@@@2@$0A@@std@@@std@@IEBAAEAPEAU?$_Tree_node@U?$pair@$$CBV?$basic_string@DU?$char_traits@D@std@@V?$allocator@D@2@@std@@V?$ofColor_@E@@@std@@PEAX@2@XZ
	?_Lmost@?$_Tree@V?$_Tmap_traits@V?$basic_string@DU?$char_traits@D@std@@V?$allocator@D@2@@std@@V?$shared_ptr@V?$ofImage_@E@@@2@U?$less@V?$basic_string@DU?$char_traits@D@std@@V?$allocator@D@2@@std@@@2@V?$allocator@U?$pair@$$CBV?$basic_string@DU?$char_traits@D@std@@V?$allocator@D@2@@std@@V?$shared_ptr@V?$ofImage_@E@@@2@@std@@@2@$0A@@std@@@std@@IEBAAEAPEAU?$_Tree_node@U?$pair@$$CBV?$basic_string@DU?$char_traits@D@std@@V?$allocator@D@2@@std@@V?$shared_ptr@V?$ofImage_@E@@@2@@std@@PEAX@2@XZ
	?_Lrotate@?$_Tree@V?$_Tmap_traits@V?$basic_string@DU?$char_traits@D@std@@V?$allocator@D@2@@std@@V?$ofColor_@E@@U?$less@V?$basic_string@DU?$char_traits@D@std@@V?$allocator@D@2@@std@@@2@V?$allocator@U?$pair@$$CBV?$basic_string@DU?$char_traits@D@std@@V?$allocator@D@2@@std@@V?$ofColor_@E@@@std@@@2@$0A@@std@@@std@@IEAAXPEAU?$_Tree_node@U?$pair@$$CBV?$basic_string@DU?$char_traits@D@std@@V?$allocator@D@2@@std@@V?$ofColor_@E@@@std@@PEAX@2@@Z
	?_Lrotate@?$_Tree@V?$_Tmap_traits@V?$basic_string@DU?$char_traits@D@std@@V?$allocator@D@2@@std@@V?$shared_ptr@V?$ofImage_@E@@@2@U?$less@V?$basic_string@DU?$char_traits@D@std@@V?$allocator@D@2@@std@@@2@V?$allocator@U?$pair@$$CBV?$basic_string@DU?$char_traits@D@std@@V?$allocator@D@2@@std@@V?$shared_ptr@V?$ofImage_@E@@@2@@std@@@2@$0A@@std@@@std@@IEAAXPEAU?$_Tree_node@U?$pair@$$CBV?$basic_string@DU?$char_traits@D@std@@V?$allocator@D@2@@std@@V?$shared_ptr@V?$ofImage_@E@@@2@@std@@PEAX@2@@Z
	?_Max@?$_Tree_comp_alloc@V?$_Tmap_traits@V?$basic_string@DU?$char_traits@D@std@@V?$allocator@D@2@@std@@V?$shared_ptr@V?$ofImage_@E@@@2@U?$less@V?$basic_string@DU?$char_traits@D@std@@V?$allocator@D@2@@std@@@2@V?$allocator@U?$pair@$$CBV?$basic_string@DU?$char_traits@D@std@@V?$allocator@D@2@@std@@V?$shared_ptr@V?$ofImage_@E@@@2@@std@@@2@$0A@@std@@@std@@SAPEAU?$_Tree_node@U?$pair@$$CBV?$basic_string@DU?$char_traits@D@std@@V?$allocator@D@2@@std@@V?$shared_ptr@V?$ofImage_@E@@@2@@std@@PEAX@2@PEAU32@@Z
	?_Max@?$_Tree_val@U?$_Tree_simple_types@U?$pair@$$CBV?$basic_string@DU?$char_traits@D@std@@V?$allocator@D@2@@std@@V?$ofColor_@E@@@std@@@std@@@std@@SAPEAU?$_Tree_node@U?$pair@$$CBV?$basic_string@DU?$char_traits@D@std@@V?$allocator@D@2@@std@@V?$ofColor_@E@@@std@@PEAX@2@PEAU32@@Z
	?_Max@?$_Tree_val@U?$_Tree_simple_types@U?$pair@$$CBV?$basic_string@DU?$char_traits@D@std@@V?$allocator@D@2@@std@@V?$shared_ptr@V?$ofImage_@E@@@2@@std@@@std@@@std@@SAPEAU?$_Tree_node@U?$pair@$$CBV?$basic_string@DU?$char_traits@D@std@@V?$allocator@D@2@@std@@V?$shared_ptr@V?$ofImage_@E@@@2@@std@@PEAX@2@PEAU32@@Z
	?_Min@?$_Tree_comp_alloc@V?$_Tmap_traits@V?$basic_string@DU?$char_traits@D@std@@V?$allocator@D@2@@std@@V?$shared_ptr@V?$ofImage_@E@@@2@U?$less@V?$basic_string@DU?$char_traits@D@std@@V?$allocator@D@2@@std@@@2@V?$allocator@U?$pair@$$CBV?$basic_string@DU?$char_traits@D@std@@V?$allocator@D@2@@std@@V?$shared_ptr@V?$ofImage_@E@@@2@@std@@@2@$0A@@std@@@std@@SAPEAU?$_Tree_node@U?$pair@$$CBV?$basic_string@DU?$char_traits@D@std@@V?$allocator@D@2@@std@@V?$shared_ptr@V?$ofImage_@E@@@2@@std@@PEAX@2@PEAU32@@Z
	?_Min@?$_Tree_val@U?$_Tree_simple_types@U?$pair@$$CBV?$basic_string@DU?$char_traits@D@std@@V?$allocator@D@2@@std@@V?$ofColor_@E@@@std@@@std@@@std@@SAPEAU?$_Tree_node@U?$pair@$$CBV?$basic_string@DU?$char_traits@D@std@@V?$allocator@D@2@@std@@V?$ofColor_@E@@@std@@PEAX@2@PEAU32@@Z
	?_Min@?$_Tree_val@U?$_Tree_simple_types@U?$pair@$$CBV?$basic_string@DU?$char_traits@D@std@@V?$allocator@D@2@@std@@V?$shared_ptr@V?$ofImage_@E@@@2@@std@@@std@@@std@@SAPEAU?$_Tree_node@U?$pair@$$CBV?$basic_string@DU?$char_traits@D@std@@V?$allocator@D@2@@std@@V?$shared_ptr@V?$ofImage_@E@@@2@@std@@PEAX@2@PEAU32@@Z
	?_Myhead@?$_Tree_comp_alloc@V?$_Tmap_traits@V?$basic_string@DU?$char_traits@D@std@@V?$allocator@D@2@@std@@V?$ofColor_@E@@U?$less@V?$basic_string@DU?$char_traits@D@std@@V?$allocator@D@2@@std@@@2@V?$allocator@U?$pair@$$CBV?$basic_string@DU?$char_traits@D@std@@V?$allocator@D@2@@std@@V?$ofColor_@E@@@std@@@2@$0A@@std@@@std@@QEAAAEAPEAU?$_Tree_node@U?$pair@$$CBV?$basic_string@DU?$char_traits@D@std@@V?$allocator@D@2@@std@@V?$ofColor_@E@@@std@@PEAX@2@XZ
	?_Myhead@?$_Tree_comp_alloc@V?$_Tmap_traits@V?$basic_string@DU?$char_traits@D@std@@V?$allocator@D@2@@std@@V?$ofColor_@E@@U?$less@V?$basic_string@DU?$char_traits@D@std@@V?$allocator@D@2@@std@@@2@V?$allocator@U?$pair@$$CBV?$basic_string@DU?$char_traits@D@std@@V?$allocator@D@2@@std@@V?$ofColor_@E@@@std@@@2@$0A@@std@@@std@@QEBAAEBQEAU?$_Tree_node@U?$pair@$$CBV?$basic_string@DU?$char_traits@D@std@@V?$allocator@D@2@@std@@V?$ofColor_@E@@@std@@PEAX@2@XZ
	?_Myhead@?$_Tree_comp_alloc@V?$_Tmap_traits@V?$basic_string@DU?$char_traits@D@std@@V?$allocator@D@2@@std@@V?$shared_ptr@V?$ofImage_@E@@@2@U?$less@V?$basic_string@DU?$char_traits@D@std@@V?$allocator@D@2@@std@@@2@V?$allocator@U?$pair@$$CBV?$basic_string@DU?$char_traits@D@std@@V?$allocator@D@2@@std@@V?$shared_ptr@V?$ofImage_@E@@@2@@std@@@2@$0A@@std@@@std@@QEAAAEAPEAU?$_Tree_node@U?$pair@$$CBV?$basic_string@DU?$char_traits@D@std@@V?$allocator@D@2@@std@@V?$shared_ptr@V?$ofImage_@E@@@2@@std@@PEAX@2@XZ
	?_Myhead@?$_Tree_comp_alloc@V?$_Tmap_traits@V?$basic_string@DU?$char_traits@D@std@@V?$allocator@D@2@@std@@V?$shared_ptr@V?$ofImage_@E@@@2@U?$less@V?$basic_string@DU?$char_traits@D@std@@V?$allocator@D@2@@std@@@2@V?$allocator@U?$pair@$$CBV?$basic_string@DU?$char_traits@D@std@@V?$allocator@D@2@@std@@V?$shared_ptr@V?$ofImage_@E@@@2@@std@@@2@$0A@@std@@@std@@QEBAAEBQEAU?$_Tree_node@U?$pair@$$CBV?$basic_string@DU?$char_traits@D@std@@V?$allocator@D@2@@std@@V?$shared_ptr@V?$ofImage_@E@@@2@@std@@PEAX@2@XZ
	?_Mynode@?$_Tree_unchecked_const_iterator@V?$_Tree_val@U?$_Tree_simple_types@U?$pair@$$CBV?$basic_string@DU?$char_traits@D@std@@V?$allocator@D@2@@std@@V?$ofColor_@E@@@std@@@std@@@std@@U_Iterator_base12@2@@std@@QEBAPEAU?$_Tree_node@U?$pair@$$CBV?$basic_string@DU?$char_traits@D@std@@V?$allocator@D@2@@std@@V?$ofColor_@E@@@std@@PEAX@2@XZ
	?_Mynode@?$_Tree_unchecked_const_iterator@V?$_Tree_val@U?$_Tree_simple_types@U?$pair@$$CBV?$basic_string@DU?$char_traits@D@std@@V?$allocator@D@2@@std@@V?$shared_ptr@V?$ofImage_@E@@@2@@std@@@std@@@std@@U_Iterator_base12@2@@std@@QEBAPEAU?$_Tree_node@U?$pair@$$CBV?$basic_string@DU?$char_traits@D@std@@V?$allocator@D@2@@std@@V?$shared_ptr@V?$ofImage_@E@@@2@@std@@PEAX@2@XZ
	?_Myproxy@?$_Tree_comp_alloc@V?$_Tmap_traits@V?$basic_string@DU?$char_traits@D@std@@V?$allocator@D@2@@std@@V?$ofColor_@E@@U?$less@V?$basic_string@DU?$char_traits@D@std@@V?$allocator@D@2@@std@@@2@V?$allocator@U?$pair@$$CBV?$basic_string@DU?$char_traits@D@std@@V?$allocator@D@2@@std@@V?$ofColor_@E@@@std@@@2@$0A@@std@@@std@@QEAAAEAPEAU_Container_proxy@2@XZ
	?_Myproxy@?$_Tree_comp_alloc@V?$_Tmap_traits@V?$basic_string@DU?$char_traits@D@std@@V?$allocator@D@2@@std@@V?$shared_ptr@V?$ofImage_@E@@@2@U?$less@V?$basic_string@DU?$char_traits@D@std@@V?$allocator@D@2@@std@@@2@V?$allocator@U?$pair@$$CBV?$basic_string@DU?$char_traits@D@std@@V?$allocator@D@2@@std@@V?$shared_ptr@V?$ofImage_@E@@@2@@std@@@2@$0A@@std@@@std@@QEAAAEAPEAU_Container_proxy@2@XZ
	?_Mysize@?$_Tree_comp_alloc@V?$_Tmap_traits@V?$basic_string@DU?$char_traits@D@std@@V?$allocator@D@2@@std@@V?$ofColor_@E@@U?$less@V?$basic_string@DU?$char_traits@D@std@@V?$allocator@D@2@@std@@@2@V?$allocator@U?$pair@$$CBV?$basic_string@DU?$char_traits@D@std@@V?$allocator@D@2@@std@@V?$ofColor_@E@@@std@@@2@$0A@@std@@@std@@QEAAAEA_KXZ
	?_Mysize@?$_Tree_comp_alloc@V?$_Tmap_traits@V?$basic_string@DU?$char_traits@D@std@@V?$allocator@D@2@@std@@V?$ofColor_@E@@U?$less@V?$basic_string@DU?$char_traits@D@std@@V?$allocator@D@2@@std@@@2@V?$allocator@U?$pair@$$CBV?$basic_string@DU?$char_traits@D@std@@V?$allocator@D@2@@std@@V?$ofColor_@E@@@std@@@2@$0A@@std@@@std@@QEBAAEB_KXZ
	?_Mysize@?$_Tree_comp_alloc@V?$_Tmap_traits@V?$basic_string@DU?$char_traits@D@std@@V?$allocator@D@2@@std@@V?$shared_ptr@V?$ofImage_@E@@@2@U?$less@V?$basic_string@DU?$char_traits@D@std@@V?$allocator@D@2@@std@@@2@V?$allocator@U?$pair@$$CBV?$basic_string@DU?$char_traits@D@std@@V?$allocator@D@2@@std@@V?$shared_ptr@V?$ofImage_@E@@@2@@std@@@2@$0A@@std@@@std@@QEAAAEA_KXZ
	?_Mysize@?$_Tree_comp_alloc@V?$_Tmap_traits@V?$basic_string@DU?$char_traits@D@std@@V?$allocator@D@2@@std@@V?$shared_ptr@V?$ofImage_@E@@@2@U?$less@V?$basic_string@DU?$char_traits@D@std@@V?$allocator@D@2@@std@@@2@V?$allocator@U?$pair@$$CBV?$basic_string@DU?$char_traits@D@std@@V?$allocator@D@2@@std@@V?$shared_ptr@V?$ofImage_@E@@@2@@std@@@2@$0A@@std@@@std@@QEBAAEB_KXZ
	?_Myval@?$_Tree_comp_alloc@V?$_Tmap_traits@V?$basic_string@DU?$char_traits@D@std@@V?$allocator@D@2@@std@@V?$ofColor_@E@@U?$less@V?$basic_string@DU?$char_traits@D@std@@V?$allocator@D@2@@std@@@2@V?$allocator@U?$pair@$$CBV?$basic_string@DU?$char_traits@D@std@@V?$allocator@D@2@@std@@V?$ofColor_@E@@@std@@@2@$0A@@std@@@std@@SAAEAU?$pair@$$CBV?$basic_string@DU?$char_traits@D@std@@V?$allocator@D@2@@std@@V?$ofColor_@E@@@2@PEAU?$_Tree_node@U?$pair@$$CBV?$basic_string@DU?$char_traits@D@std@@V?$allocator@D@2@@std@@V?$ofColor_@E@@@std@@PEAX@2@@Z
	?_Myval@?$_Tree_comp_alloc@V?$_Tmap_traits@V?$basic_string@DU?$char_traits@D@std@@V?$allocator@D@2@@std@@V?$shared_ptr@V?$ofImage_@E@@@2@U?$less@V?$basic_string@DU?$char_traits@D@std@@V?$allocator@D@2@@std@@@2@V?$allocator@U?$pair@$$CBV?$basic_string@DU?$char_traits@D@std@@V?$allocator@D@2@@std@@V?$shared_ptr@V?$ofImage_@E@@@2@@std@@@2@$0A@@std@@@std@@SAAEAU?$pair@$$CBV?$basic_string@DU?$char_traits@D@std@@V?$allocator@D@2@@std@@V?$shared_ptr@V?$ofImage_@E@@@2@@2@PEAU?$_Tree_node@U?$pair@$$CBV?$basic_string@DU?$char_traits@D@std@@V?$allocator@D@2@@std@@V?$shared_ptr@V?$ofImage_@E@@@2@@std@@PEAX@2@@Z
	?_Myval@?$_Tree_val@U?$_Tree_simple_types@U?$pair@$$CBV?$basic_string@DU?$char_traits@D@std@@V?$allocator@D@2@@std@@V?$ofColor_@E@@@std@@@std@@@std@@SAAEAU?$pair@$$CBV?$basic_string@DU?$char_traits@D@std@@V?$allocator@D@2@@std@@V?$ofColor_@E@@@2@PEAU?$_Tree_node@U?$pair@$$CBV?$basic_string@DU?$char_traits@D@std@@V?$allocator@D@2@@std@@V?$ofColor_@E@@@std@@PEAX@2@@Z
	?_Myval@?$_Tree_val@U?$_Tree_simple_types@U?$pair@$$CBV?$basic_string@DU?$char_traits@D@std@@V?$allocator@D@2@@std@@V?$shared_ptr@V?$ofImage_@E@@@2@@std@@@std@@@std@@SAAEAU?$pair@$$CBV?$basic_string@DU?$char_traits@D@std@@V?$allocator@D@2@@std@@V?$shared_ptr@V?$ofImage_@E@@@2@@2@PEAU?$_Tree_node@U?$pair@$$CBV?$basic_string@DU?$char_traits@D@std@@V?$allocator@D@2@@std@@V?$shared_ptr@V?$ofImage_@E@@@2@@std@@PEAX@2@@Z
	?_Orphan_all@?$_Tree_comp_alloc@V?$_Tmap_traits@V?$basic_string@DU?$char_traits@D@std@@V?$allocator@D@2@@std@@V?$shared_ptr@V?$ofImage_@E@@@2@U?$less@V?$basic_string@DU?$char_traits@D@std@@V?$allocator@D@2@@std@@@2@V?$allocator@U?$pair@$$CBV?$basic_string@DU?$char_traits@D@std@@V?$allocator@D@2@@std@@V?$shared_ptr@V?$ofImage_@E@@@2@@std@@@2@$0A@@std@@@std@@QEAAXXZ
	?_Orphan_ptr@?$_Tree@V?$_Tmap_traits@V?$basic_string@DU?$char_traits@D@std@@V?$allocator@D@2@@std@@V?$shared_ptr@V?$ofImage_@E@@@2@U?$less@V?$basic_string@DU?$char_traits@D@std@@V?$allocator@D@2@@std@@@2@V?$allocator@U?$pair@$$CBV?$basic_string@DU?$char_traits@D@std@@V?$allocator@D@2@@std@@V?$shared_ptr@V?$ofImage_@E@@@2@@std@@@2@$0A@@std@@@std@@IEAAXPEAU?$_Tree_node@U?$pair@$$CBV?$basic_string@DU?$char_traits@D@std@@V?$allocator@D@2@@std@@V?$shared_ptr@V?$ofImage_@E@@@2@@std@@PEAX@2@@Z
	?_Parent@?$_Tree_comp_alloc@V?$_Tmap_traits@V?$basic_string@DU?$char_traits@D@std@@V?$allocator@D@2@@std@@V?$ofColor_@E@@U?$less@V?$basic_string@DU?$char_traits@D@std@@V?$allocator@D@2@@std@@@2@V?$allocator@U?$pair@$$CBV?$basic_string@DU?$char_traits@D@std@@V?$allocator@D@2@@std@@V?$ofColor_@E@@@std@@@2@$0A@@std@@@std@@SAAEAPEAU?$_Tree_node@U?$pair@$$CBV?$basic_string@DU?$char_traits@D@std@@V?$allocator@D@2@@std@@V?$ofColor_@E@@@std@@PEAX@2@PEAU32@@Z
	?_Parent@?$_Tree_comp_alloc@V?$_Tmap_traits@V?$basic_string@DU?$char_traits@D@std@@V?$allocator@D@2@@std@@V?$shared_ptr@V?$ofImage_@E@@@2@U?$less@V?$basic_string@DU?$char_traits@D@std@@V?$allocator@D@2@@std@@@2@V?$allocator@U?$pair@$$CBV?$basic_string@DU?$char_traits@D@std@@V?$allocator@D@2@@std@@V?$shared_ptr@V?$ofImage_@E@@@2@@std@@@2@$0A@@std@@@std@@SAAEAPEAU?$_Tree_node@U?$pair@$$CBV?$basic_string@DU?$char_traits@D@std@@V?$allocator@D@2@@std@@V?$shared_ptr@V?$ofImage_@E@@@2@@std@@PEAX@2@PEAU32@@Z
	?_Parent@?$_Tree_val@U?$_Tree_simple_types@U?$pair@$$CBV?$basic_string@DU?$char_traits@D@std@@V?$allocator@D@2@@std@@V?$ofColor_@E@@@std@@@std@@@std@@SAAEAPEAU?$_Tree_node@U?$pair@$$CBV?$basic_string@DU?$char_traits@D@std@@V?$allocator@D@2@@std@@V?$ofColor_@E@@@std@@PEAX@2@PEAU32@@Z
	?_Parent@?$_Tree_val@U?$_Tree_simple_types@U?$pair@$$CBV?$basic_string@DU?$char_traits@D@std@@V?$allocator@D@2@@std@@V?$shared_ptr@V?$ofImage_@E@@@2@@std@@@std@@@std@@SAAEAPEAU?$_Tree_node@U?$pair@$$CBV?$basic_string@DU?$char_traits@D@std@@V?$allocator@D@2@@std@@V?$shared_ptr@V?$ofImage_@E@@@2@@std@@PEAX@2@PEAU32@@Z
	?_Reset0@?$_Ptr_base@V?$ofImage_@E@@@std@@QEAAXPEAV?$ofImage_@E@@PEAV_Ref_count_base@2@@Z
	?_Reset@?$_Ptr_base@V?$ofImage_@E@@@std@@QEAAXPEAV?$ofImage_@E@@PEAV_Ref_count_base@2@@Z
	?_Right@?$_Tree_comp_alloc@V?$_Tmap_traits@V?$basic_string@DU?$char_traits@D@std@@V?$allocator@D@2@@std@@V?$ofColor_@E@@U?$less@V?$basic_string@DU?$char_traits@D@std@@V?$allocator@D@2@@std@@@2@V?$allocator@U?$pair@$$CBV?$basic_string@DU?$char_traits@D@std@@V?$allocator@D@2@@std@@V?$ofColor_@E@@@std@@@2@$0A@@std@@@std@@SAAEAPEAU?$_Tree_node@U?$pair@$$CBV?$basic_string@DU?$char_traits@D@std@@V?$allocator@D@2@@std@@V?$ofColor_@E@@@std@@PEAX@2@PEAU32@@Z
	?_Right@?$_Tree_comp_alloc@V?$_Tmap_traits@V?$basic_string@DU?$char_traits@D@std@@V?$allocator@D@2@@std@@V?$shared_ptr@V?$ofImage_@E@@@2@U?$less@V?$basic_string@DU?$char_traits@D@std@@V?$allocator@D@2@@std@@@2@V?$allocator@U?$pair@$$CBV?$basic_string@DU?$char_traits@D@std@@V?$allocator@D@2@@std@@V?$shared_ptr@V?$ofImage_@E@@@2@@std@@@2@$0A@@std@@@std@@SAAEAPEAU?$_Tree_node@U?$pair@$$CBV?$basic_string@DU?$char_traits@D@std@@V?$allocator@D@2@@std@@V?$shared_ptr@V?$ofImage_@E@@@2@@std@@PEAX@2@PEAU32@@Z
	?_Right@?$_Tree_val@U?$_Tree_simple_types@U?$pair@$$CBV?$basic_string@DU?$char_traits@D@std@@V?$allocator@D@2@@std@@V?$ofColor_@E@@@std@@@std@@@std@@SAAEAPEAU?$_Tree_node@U?$pair@$$CBV?$basic_string@DU?$char_traits@D@std@@V?$allocator@D@2@@std@@V?$ofColor_@E@@@std@@PEAX@2@PEAU32@@Z
	?_Right@?$_Tree_val@U?$_Tree_simple_types@U?$pair@$$CBV?$basic_string@DU?$char_traits@D@std@@V?$allocator@D@2@@std@@V?$shared_ptr@V?$ofImage_@E@@@2@@std@@@std@@@std@@SAAEAPEAU?$_Tree_node@U?$pair@$$CBV?$basic_string@DU?$char_traits@D@std@@V?$allocator@D@2@@std@@V?$shared_ptr@V?$ofImage_@E@@@2@@std@@PEAX@2@PEAU32@@Z
	?_Rmost@?$_Tree@V?$_Tmap_traits@V?$basic_string@DU?$char_traits@D@std@@V?$allocator@D@2@@std@@V?$ofColor_@E@@U?$less@V?$basic_string@DU?$char_traits@D@std@@V?$allocator@D@2@@std@@@2@V?$allocator@U?$pair@$$CBV?$basic_string@DU?$char_traits@D@std@@V?$allocator@D@2@@std@@V?$ofColor_@E@@@std@@@2@$0A@@std@@@std@@IEBAAEAPEAU?$_Tree_node@U?$pair@$$CBV?$basic_string@DU?$char_traits@D@std@@V?$allocator@D@2@@std@@V?$ofColor_@E@@@std@@PEAX@2@XZ
	?_Rmost@?$_Tree@V?$_Tmap_traits@V?$basic_string@DU?$char_traits@D@std@@V?$allocator@D@2@@std@@V?$shared_ptr@V?$ofImage_@E@@@2@U?$less@V?$basic_string@DU?$char_traits@D@std@@V?$allocator@D@2@@std@@@2@V?$allocator@U?$pair@$$CBV?$basic_string@DU?$char_traits@D@std@@V?$allocator@D@2@@std@@V?$shared_ptr@V?$ofImage_@E@@@2@@std@@@2@$0A@@std@@@std@@IEBAAEAPEAU?$_Tree_node@U?$pair@$$CBV?$basic_string@DU?$char_traits@D@std@@V?$allocator@D@2@@std@@V?$shared_ptr@V?$ofImage_@E@@@2@@std@@PEAX@2@XZ
	?_Root@?$_Tree@V?$_Tmap_traits@V?$basic_string@DU?$char_traits@D@std@@V?$allocator@D@2@@std@@V?$ofColor_@E@@U?$less@V?$basic_string@DU?$char_traits@D@std@@V?$allocator@D@2@@std@@@2@V?$allocator@U?$pair@$$CBV?$basic_string@DU?$char_traits@D@std@@V?$allocator@D@2@@std@@V?$ofColor_@E@@@std@@@2@$0A@@std@@@std@@IEBAAEAPEAU?$_Tree_node@U?$pair@$$CBV?$basic_string@DU?$char_traits@D@std@@V?$allocator@D@2@@std@@V?$ofColor_@E@@@std@@PEAX@2@XZ
	?_Root@?$_Tree@V?$_Tmap_traits@V?$basic_string@DU?$char_traits@D@std@@V?$allocator@D@2@@std@@V?$shared_ptr@V?$ofImage_@E@@@2@U?$less@V?$basic_string@DU?$char_traits@D@std@@V?$allocator@D@2@@std@@@2@V?$allocator@U?$pair@$$CBV?$basic_string@DU?$char_traits@D@std@@V?$allocator@D@2@@std@@V?$shared_ptr@V?$ofImage_@E@@@2@@std@@@2@$0A@@std@@@std@@IEBAAEAPEAU?$_Tree_node@U?$pair@$$CBV?$basic_string@DU?$char_traits@D@std@@V?$allocator@D@2@@std@@V?$shared_ptr@V?$ofImage_@E@@@2@@std@@PEAX@2@XZ
	?_Rrotate@?$_Tree@V?$_Tmap_traits@V?$basic_string@DU?$char_traits@D@std@@V?$allocator@D@2@@std@@V?$ofColor_@E@@U?$less@V?$basic_string@DU?$char_traits@D@std@@V?$allocator@D@2@@std@@@2@V?$allocator@U?$pair@$$CBV?$basic_string@DU?$char_traits@D@std@@V?$allocator@D@2@@std@@V?$ofColor_@E@@@std@@@2@$0A@@std@@@std@@IEAAXPEAU?$_Tree_node@U?$pair@$$CBV?$basic_string@DU?$char_traits@D@std@@V?$allocator@D@2@@std@@V?$ofColor_@E@@@std@@PEAX@2@@Z
	?_Rrotate@?$_Tree@V?$_Tmap_traits@V?$basic_string@DU?$char_traits@D@std@@V?$allocator@D@2@@std@@V?$shared_ptr@V?$ofImage_@E@@@2@U?$less@V?$basic_string@DU?$char_traits@D@std@@V?$allocator@D@2@@std@@@2@V?$allocator@U?$pair@$$CBV?$basic_string@DU?$char_traits@D@std@@V?$allocator@D@2@@std@@V?$shared_ptr@V?$ofImage_@E@@@2@@std@@@2@$0A@@std@@@std@@IEAAXPEAU?$_Tree_node@U?$pair@$$CBV?$basic_string@DU?$char_traits@D@std@@V?$allocator@D@2@@std@@V?$shared_ptr@V?$ofImage_@E@@@2@@std@@PEAX@2@@Z
	?_Swap@?$_Ptr_base@V?$ofImage_@E@@@std@@QEAAXAEAV12@@Z
	?_Tidy@?$_Tree@V?$_Tmap_traits@V?$basic_string@DU?$char_traits@D@std@@V?$allocator@D@2@@std@@V?$shared_ptr@V?$ofImage_@E@@@2@U?$less@V?$basic_string@DU?$char_traits@D@std@@V?$allocator@D@2@@std@@@2@V?$allocator@U?$pair@$$CBV?$basic_string@DU?$char_traits@D@std@@V?$allocator@D@2@@std@@V?$shared_ptr@V?$ofImage_@E@@@2@@std@@@2@$0A@@std@@@std@@IEAAXXZ
	?__autoclassinit2@?$_Tree_const_iterator@V?$_Tree_val@U?$_Tree_simple_types@U?$pair@$$CBV?$basic_string@DU?$char_traits@D@std@@V?$allocator@D@2@@std@@V?$ofColor_@E@@@std@@@std@@@std@@@std@@QEAAX_K@Z
	?__autoclassinit2@?$_Tree_const_iterator@V?$_Tree_val@U?$_Tree_simple_types@U?$pair@$$CBV?$basic_string@DU?$char_traits@D@std@@V?$allocator@D@2@@std@@V?$shared_ptr@V?$ofImage_@E@@@2@@std@@@std@@@std@@@std@@QEAAX_K@Z
	?__autoclassinit2@?$_Tree_iterator@V?$_Tree_val@U?$_Tree_simple_types@U?$pair@$$CBV?$basic_string@DU?$char_traits@D@std@@V?$allocator@D@2@@std@@V?$ofColor_@E@@@std@@@std@@@std@@@std@@QEAAX_K@Z
	?__autoclassinit2@?$_Tree_iterator@V?$_Tree_val@U?$_Tree_simple_types@U?$pair@$$CBV?$basic_string@DU?$char_traits@D@std@@V?$allocator@D@2@@std@@V?$shared_ptr@V?$ofImage_@E@@@2@@std@@@std@@@std@@@std@@QEAAX_K@Z
	?__autoclassinit2@?$shared_ptr@V?$ofImage_@E@@@std@@QEAAX_K@Z
	?__autoclassinit2@SingletonStore@?$Singleton@VGraphics@Nodes@ofxRulr@@@ofxSingleton@@QEAAX_K@Z
	?allocate@?$_Wrap_alloc@V?$allocator@U?$_Tree_node@U?$pair@$$CBV?$basic_string@DU?$char_traits@D@std@@V?$allocator@D@2@@std@@V?$ofColor_@E@@@std@@PEAX@std@@@std@@@std@@QEAAPEAU?$_Tree_node@U?$pair@$$CBV?$basic_string@DU?$char_traits@D@std@@V?$allocator@D@2@@std@@V?$ofColor_@E@@@std@@PEAX@2@_K@Z
	?allocate@?$_Wrap_alloc@V?$allocator@U?$_Tree_node@U?$pair@$$CBV?$basic_string@DU?$char_traits@D@std@@V?$allocator@D@2@@std@@V?$shared_ptr@V?$ofImage_@E@@@2@@std@@PEAX@std@@@std@@@std@@QEAAPEAU?$_Tree_node@U?$pair@$$CBV?$basic_string@DU?$char_traits@D@std@@V?$allocator@D@2@@std@@V?$shared_ptr@V?$ofImage_@E@@@2@@std@@PEAX@2@_K@Z
	?allocate@?$allocator@U?$_Tree_node@U?$pair@$$CBV?$basic_string@DU?$char_traits@D@std@@V?$allocator@D@2@@std@@V?$ofColor_@E@@@std@@PEAX@std@@@std@@QEAAPEAU?$_Tree_node@U?$pair@$$CBV?$basic_string@DU?$char_traits@D@std@@V?$allocator@D@2@@std@@V?$ofColor_@E@@@std@@PEAX@2@_K@Z
	?allocate@?$allocator@U?$_Tree_node@U?$pair@$$CBV?$basic_string@DU?$char_traits@D@std@@V?$allocator@D@2@@std@@V?$shared_ptr@V?$ofImage_@E@@@2@@std@@PEAX@std@@@std@@QEAAPEAU?$_Tree_node@U?$pair@$$CBV?$basic_string@DU?$char_traits@D@std@@V?$allocator@D@2@@std@@V?$shared_ptr@V?$ofImage_@E@@@2@@std@@PEAX@2@_K@Z
	?begin@?$_Tree@V?$_Tmap_traits@V?$basic_string@DU?$char_traits@D@std@@V?$allocator@D@2@@std@@V?$ofColor_@E@@U?$less@V?$basic_string@DU?$char_traits@D@std@@V?$allocator@D@2@@std@@@2@V?$allocator@U?$pair@$$CBV?$basic_string@DU?$char_traits@D@std@@V?$allocator@D@2@@std@@V?$ofColor_@E@@@std@@@2@$0A@@std@@@std@@QEAA?AV?$_Tree_iterator@V?$_Tree_val@U?$_Tree_simple_types@U?$pair@$$CBV?$basic_string@DU?$char_traits@D@std@@V?$allocator@D@2@@std@@V?$ofColor_@E@@@std@@@std@@@std@@@2@XZ
	?begin@?$_Tree@V?$_Tmap_traits@V?$basic_string@DU?$char_traits@D@std@@V?$allocator@D@2@@std@@V?$shared_ptr@V?$ofImage_@E@@@2@U?$less@V?$basic_string@DU?$char_traits@D@std@@V?$allocator@D@2@@std@@@2@V?$allocator@U?$pair@$$CBV?$basic_string@DU?$char_traits@D@std@@V?$allocator@D@2@@std@@V?$shared_ptr@V?$ofImage_@E@@@2@@std@@@2@$0A@@std@@@std@@QEAA?AV?$_Tree_iterator@V?$_Tree_val@U?$_Tree_simple_types@U?$pair@$$CBV?$basic_string@DU?$char_traits@D@std@@V?$allocator@D@2@@std@@V?$shared_ptr@V?$ofImage_@E@@@2@@std@@@std@@@std@@@2@XZ
	?clear@?$_Tree@V?$_Tmap_traits@V?$basic_string@DU?$char_traits@D@std@@V?$allocator@D@2@@std@@V?$shared_ptr@V?$ofImage_@E@@@2@U?$less@V?$basic_string@DU?$char_traits@D@std@@V?$allocator@D@2@@std@@@2@V?$allocator@U?$pair@$$CBV?$basic_string@DU?$char_traits@D@std@@V?$allocator@D@2@@std@@V?$shared_ptr@V?$ofImage_@E@@@2@@std@@@2@$0A@@std@@@std@@QEAAXXZ
	?compare@?$basic_string@DU?$char_traits@D@std@@V?$allocator@D@2@@std@@QEBAHAEBV12@@Z
	?deallocate@?$_Wrap_alloc@V?$allocator@U?$_Tree_node@U?$pair@$$CBV?$basic_string@DU?$char_traits@D@std@@V?$allocator@D@2@@std@@V?$ofColor_@E@@@std@@PEAX@std@@@std@@@std@@QEAAXPEAU?$_Tree_node@U?$pair@$$CBV?$basic_string@DU?$char_traits@D@std@@V?$allocator@D@2@@std@@V?$ofColor_@E@@@std@@PEAX@2@_K@Z
	?deallocate@?$_Wrap_alloc@V?$allocator@U?$_Tree_node@U?$pair@$$CBV?$basic_string@DU?$char_traits@D@std@@V?$allocator@D@2@@std@@V?$shared_ptr@V?$ofImage_@E@@@2@@std@@PEAX@std@@@std@@@std@@QEAAXPEAU?$_Tree_node@U?$pair@$$CBV?$basic_string@DU?$char_traits@D@std@@V?$allocator@D@2@@std@@V?$shared_ptr@V?$ofImage_@E@@@2@@std@@PEAX@2@_K@Z
	?deallocate@?$allocator@U?$_Tree_node@U?$pair@$$CBV?$basic_string@DU?$char_traits@D@std@@V?$allocator@D@2@@std@@V?$ofColor_@E@@@std@@PEAX@std@@@std@@QEAAXPEAU?$_Tree_node@U?$pair@$$CBV?$basic_string@DU?$char_traits@D@std@@V?$allocator@D@2@@std@@V?$ofColor_@E@@@std@@PEAX@2@_K@Z
	?deallocate@?$allocator@U?$_Tree_node@U?$pair@$$CBV?$basic_string@DU?$char_traits@D@std@@V?$allocator@D@2@@std@@V?$shared_ptr@V?$ofImage_@E@@@2@@std@@PEAX@std@@@std@@QEAAXPEAU?$_Tree_node@U?$pair@$$CBV?$basic_string@DU?$char_traits@D@std@@V?$allocator@D@2@@std@@V?$shared_ptr@V?$ofImage_@E@@@2@@std@@PEAX@2@_K@Z
	?end@?$_Tree@V?$_Tmap_traits@V?$basic_string@DU?$char_traits@D@std@@V?$allocator@D@2@@std@@V?$ofColor_@E@@U?$less@V?$basic_string@DU?$char_traits@D@std@@V?$allocator@D@2@@std@@@2@V?$allocator@U?$pair@$$CBV?$basic_string@DU?$char_traits@D@std@@V?$allocator@D@2@@std@@V?$ofColor_@E@@@std@@@2@$0A@@std@@@std@@QEAA?AV?$_Tree_iterator@V?$_Tree_val@U?$_Tree_simple_types@U?$pair@$$CBV?$basic_string@DU?$char_traits@D@std@@V?$allocator@D@2@@std@@V?$ofColor_@E@@@std@@@std@@@std@@@2@XZ
	?end@?$_Tree@V?$_Tmap_traits@V?$basic_string@DU?$char_traits@D@std@@V?$allocator@D@2@@std@@V?$shared_ptr@V?$ofImage_@E@@@2@U?$less@V?$basic_string@DU?$char_traits@D@std@@V?$allocator@D@2@@std@@@2@V?$allocator@U?$pair@$$CBV?$basic_string@DU?$char_traits@D@std@@V?$allocator@D@2@@std@@V?$shared_ptr@V?$ofImage_@E@@@2@@std@@@2@$0A@@std@@@std@@QEAA?AV?$_Tree_iterator@V?$_Tree_val@U?$_Tree_simple_types@U?$pair@$$CBV?$basic_string@DU?$char_traits@D@std@@V?$allocator@D@2@@std@@V?$shared_ptr@V?$ofImage_@E@@@2@@std@@@std@@@std@@@2@XZ
	?erase@?$_Tree@V?$_Tmap_traits@V?$basic_string@DU?$char_traits@D@std@@V?$allocator@D@2@@std@@V?$shared_ptr@V?$ofImage_@E@@@2@U?$less@V?$basic_string@DU?$char_traits@D@std@@V?$allocator@D@2@@std@@@2@V?$allocator@U?$pair@$$CBV?$basic_string@DU?$char_traits@D@std@@V?$allocator@D@2@@std@@V?$shared_ptr@V?$ofImage_@E@@@2@@std@@@2@$0A@@std@@@std@@QEAA?AV?$_Tree_iterator@V?$_Tree_val@U?$_Tree_simple_types@U?$pair@$$CBV?$basic_string@DU?$char_traits@D@std@@V?$allocator@D@2@@std@@V?$shared_ptr@V?$ofImage_@E@@@2@@std@@@std@@@std@@@2@V?$_Tree_const_iterator@V?$_Tree_val@U?$_Tree_simple_types@U?$pair@$$CBV?$basic_string@DU?$char_traits@D@std@@V?$allocator@D@2@@std@@V?$shared_ptr@V?$ofImage_@E@@@2@@std@@@std@@@std@@@2@0@Z
	?erase@?$_Tree@V?$_Tmap_traits@V?$basic_string@DU?$char_traits@D@std@@V?$allocator@D@2@@std@@V?$shared_ptr@V?$ofImage_@E@@@2@U?$less@V?$basic_string@DU?$char_traits@D@std@@V?$allocator@D@2@@std@@@2@V?$allocator@U?$pair@$$CBV?$basic_string@DU?$char_traits@D@std@@V?$allocator@D@2@@std@@V?$shared_ptr@V?$ofImage_@E@@@2@@std@@@2@$0A@@std@@@std@@QEAA?AV?$_Tree_iterator@V?$_Tree_val@U?$_Tree_simple_types@U?$pair@$$CBV?$basic_string@DU?$char_traits@D@std@@V?$allocator@D@2@@std@@V?$shared_ptr@V?$ofImage_@E@@@2@@std@@@std@@@std@@@2@V?$_Tree_const_iterator@V?$_Tree_val@U?$_Tree_simple_types@U?$pair@$$CBV?$basic_string@DU?$char_traits@D@std@@V?$allocator@D@2@@std@@V?$shared_ptr@V?$ofImage_@E@@@2@@std@@@std@@@std@@@2@@Z
	?find@?$_Tree@V?$_Tmap_traits@V?$basic_string@DU?$char_traits@D@std@@V?$allocator@D@2@@std@@V?$ofColor_@E@@U?$less@V?$basic_string@DU?$char_traits@D@std@@V?$allocator@D@2@@std@@@2@V?$allocator@U?$pair@$$CBV?$basic_string@DU?$char_traits@D@std@@V?$allocator@D@2@@std@@V?$ofColor_@E@@@std@@@2@$0A@@std@@@std@@QEAA?AV?$_Tree_iterator@V?$_Tree_val@U?$_Tree_simple_types@U?$pair@$$CBV?$basic_string@DU?$char_traits@D@std@@V?$allocator@D@2@@std@@V?$ofColor_@E@@@std@@@std@@@std@@@2@AEBV?$basic_string@DU?$char_traits@D@std@@V?$allocator@D@2@@2@@Z
	?find@?$_Tree@V?$_Tmap_traits@V?$basic_string@DU?$char_traits@D@std@@V?$allocator@D@2@@std@@V?$shared_ptr@V?$ofImage_@E@@@2@U?$less@V?$basic_string@DU?$char_traits@D@std@@V?$allocator@D@2@@std@@@2@V?$allocator@U?$pair@$$CBV?$basic_string@DU?$char_traits@D@std@@V?$allocator@D@2@@std@@V?$shared_ptr@V?$ofImage_@E@@@2@@std@@@2@$0A@@std@@@std@@QEAA?AV?$_Tree_iterator@V?$_Tree_val@U?$_Tree_simple_types@U?$pair@$$CBV?$basic_string@DU?$char_traits@D@std@@V?$allocator@D@2@@std@@V?$shared_ptr@V?$ofImage_@E@@@2@@std@@@std@@@std@@@2@AEBV?$basic_string@DU?$char_traits@D@std@@V?$allocator@D@2@@2@@Z
	?getColor@Graphics@Nodes@ofxRulr@@QEAA?AV?$ofColor_@E@@AEBV?$basic_string@DU?$char_traits@D@std@@V?$allocator@D@2@@std@@@Z
	?getIcon@Graphics@Nodes@ofxRulr@@QEAA?AV?$shared_ptr@V?$ofImage_@E@@@std@@AEBV?$basic_string@DU?$char_traits@D@std@@V?$allocator@D@2@@5@@Z
	?getSingletonStore@?$Singleton@VGraphics@Nodes@ofxRulr@@@ofxSingleton@@SAAEAVSingletonStore@12@XZ
	?getTypeInfo@SingletonStore@?$Singleton@VGraphics@Nodes@ofxRulr@@@ofxSingleton@@UEBAPEBVtype_info@@XZ
	?lower_bound@?$_Tree@V?$_Tmap_traits@V?$basic_string@DU?$char_traits@D@std@@V?$allocator@D@2@@std@@V?$ofColor_@E@@U?$less@V?$basic_string@DU?$char_traits@D@std@@V?$allocator@D@2@@std@@@2@V?$allocator@U?$pair@$$CBV?$basic_string@DU?$char_traits@D@std@@V?$allocator@D@2@@std@@V?$ofColor_@E@@@std@@@2@$0A@@std@@@std@@QEAA?AV?$_Tree_iterator@V?$_Tree_val@U?$_Tree_simple_types@U?$pair@$$CBV?$basic_string@DU?$char_traits@D@std@@V?$allocator@D@2@@std@@V?$ofColor_@E@@@std@@@std@@@std@@@2@AEBV?$basic_string@DU?$char_traits@D@std@@V?$allocator@D@2@@2@@Z
	?lower_bound@?$_Tree@V?$_Tmap_traits@V?$basic_string@DU?$char_traits@D@std@@V?$allocator@D@2@@std@@V?$shared_ptr@V?$ofImage_@E@@@2@U?$less@V?$basic_string@DU?$char_traits@D@std@@V?$allocator@D@2@@std@@@2@V?$allocator@U?$pair@$$CBV?$basic_string@DU?$char_traits@D@std@@V?$allocator@D@2@@std@@V?$shared_ptr@V?$ofImage_@E@@@2@@std@@@2@$0A@@std@@@std@@QEAA?AV?$_Tree_iterator@V?$_Tree_val@U?$_Tree_simple_types@U?$pair@$$CBV?$basic_string@DU?$char_traits@D@std@@V?$allocator@D@2@@std@@V?$shared_ptr@V?$ofImage_@E@@@2@@std@@@std@@@std@@@2@AEBV?$basic_string@DU?$char_traits@D@std@@V?$allocator@D@2@@2@@Z
	?max_size@?$_Tree@V?$_Tmap_traits@V?$basic_string@DU?$char_traits@D@std@@V?$allocator@D@2@@std@@V?$ofColor_@E@@U?$less@V?$basic_string@DU?$char_traits@D@std@@V?$allocator@D@2@@std@@@2@V?$allocator@U?$pair@$$CBV?$basic_string@DU?$char_traits@D@std@@V?$allocator@D@2@@std@@V?$ofColor_@E@@@std@@@2@$0A@@std@@@std@@QEBA_KXZ
	?max_size@?$_Tree@V?$_Tmap_traits@V?$basic_string@DU?$char_traits@D@std@@V?$allocator@D@2@@std@@V?$shared_ptr@V?$ofImage_@E@@@2@U?$less@V?$basic_string@DU?$char_traits@D@std@@V?$allocator@D@2@@std@@@2@V?$allocator@U?$pair@$$CBV?$basic_string@DU?$char_traits@D@std@@V?$allocator@D@2@@std@@V?$shared_ptr@V?$ofImage_@E@@@2@@std@@@2@$0A@@std@@@std@@QEBA_KXZ
	?max_size@?$_Wrap_alloc@V?$allocator@U?$_Tree_node@U?$pair@$$CBV?$basic_string@DU?$char_traits@D@std@@V?$allocator@D@2@@std@@V?$ofColor_@E@@@std@@PEAX@std@@@std@@@std@@QEBA_KU_Nil@2@@Z
	?max_size@?$_Wrap_alloc@V?$allocator@U?$_Tree_node@U?$pair@$$CBV?$basic_string@DU?$char_traits@D@std@@V?$allocator@D@2@@std@@V?$shared_ptr@V?$ofImage_@E@@@2@@std@@PEAX@std@@@std@@@std@@QEBA_KU_Nil@2@@Z
	?max_size@?$allocator@U?$_Tree_node@U?$pair@$$CBV?$basic_string@DU?$char_traits@D@std@@V?$allocator@D@2@@std@@V?$ofColor_@E@@@std@@PEAX@std@@@std@@QEBA_KXZ
	?max_size@?$allocator@U?$_Tree_node@U?$pair@$$CBV?$basic_string@DU?$char_traits@D@std@@V?$allocator@D@2@@std@@V?$shared_ptr@V?$ofImage_@E@@@2@@std@@PEAX@std@@@std@@QEBA_KXZ
	?max_size@?$allocator_traits@V?$allocator@U?$_Tree_node@U?$pair@$$CBV?$basic_string@DU?$char_traits@D@std@@V?$allocator@D@2@@std@@V?$ofColor_@E@@@std@@PEAX@std@@@std@@@std@@SA_KAEBV?$allocator@U?$_Tree_node@U?$pair@$$CBV?$basic_string@DU?$char_traits@D@std@@V?$allocator@D@2@@std@@V?$ofColor_@E@@@std@@PEAX@std@@@2@@Z
	?max_size@?$allocator_traits@V?$allocator@U?$_Tree_node@U?$pair@$$CBV?$basic_string@DU?$char_traits@D@std@@V?$allocator@D@2@@std@@V?$shared_ptr@V?$ofImage_@E@@@2@@std@@PEAX@std@@@std@@@std@@SA_KAEBV?$allocator@U?$_Tree_node@U?$pair@$$CBV?$basic_string@DU?$char_traits@D@std@@V?$allocator@D@2@@std@@V?$shared_ptr@V?$ofImage_@E@@@2@@std@@PEAX@std@@@2@@Z
	?pointer_to@?$pointer_traits@PEAU?$pair@$$CBV?$basic_string@DU?$char_traits@D@std@@V?$allocator@D@2@@std@@V?$ofColor_@E@@@std@@@std@@SAPEAU?$pair@$$CBV?$basic_string@DU?$char_traits@D@std@@V?$allocator@D@2@@std@@V?$ofColor_@E@@@2@AEAU32@@Z
	?pointer_to@?$pointer_traits@PEAU?$pair@$$CBV?$basic_string@DU?$char_traits@D@std@@V?$allocator@D@2@@std@@V?$shared_ptr@V?$ofImage_@E@@@2@@std@@@std@@SAPEAU?$pair@$$CBV?$basic_string@DU?$char_traits@D@std@@V?$allocator@D@2@@std@@V?$shared_ptr@V?$ofImage_@E@@@2@@2@AEAU32@@Z
	?setColor@Graphics@Nodes@ofxRulr@@QEAAXAEBV?$basic_string@DU?$char_traits@D@std@@V?$allocator@D@2@@std@@AEBV?$ofColor_@E@@@Z
	?setIcon@Graphics@Nodes@ofxRulr@@QEAAXAEBV?$basic_string@DU?$char_traits@D@std@@V?$allocator@D@2@@std@@V?$shared_ptr@V?$ofImage_@E@@@5@@Z
	?size@?$_Tree@V?$_Tmap_traits@V?$basic_string@DU?$char_traits@D@std@@V?$allocator@D@2@@std@@V?$ofColor_@E@@U?$less@V?$basic_string@DU?$char_traits@D@std@@V?$allocator@D@2@@std@@@2@V?$allocator@U?$pair@$$CBV?$basic_string@DU?$char_traits@D@std@@V?$allocator@D@2@@std@@V?$ofColor_@E@@@std@@@2@$0A@@std@@@std@@QEBA_KXZ
	?size@?$_Tree@V?$_Tmap_traits@V?$basic_string@DU?$char_traits@D@std@@V?$allocator@D@2@@std@@V?$shared_ptr@V?$ofImage_@E@@@2@U?$less@V?$basic_string@DU?$char_traits@D@std@@V?$allocator@D@2@@std@@@2@V?$allocator@U?$pair@$$CBV?$basic_string@DU?$char_traits@D@std@@V?$allocator@D@2@@std@@V?$shared_ptr@V?$ofImage_@E@@@2@@std@@@2@$0A@@std@@@std@@QEBA_KXZ
	?swap@?$shared_ptr@V?$ofImage_@E@@@std@@QEAAXAEAV12@@Z
	??$?0$$V@?$_Ref_count_obj@VGraphics@Nodes@ofxRulr@@@std@@QEAA@XZ
	??$?0AEAV?$_Tree_iterator@V?$_Tree_val@U?$_Tree_simple_types@U?$pair@$$CBUIndex@?$ofxLiquidEvent@UDrawArguments@ofxCvGui@@@@V?$function@$$A6AXAEAUDrawArguments@ofxCvGui@@@Z@std@@@std@@@std@@@std@@@std@@_NX@?$pair@V?$_Tree_iterator@V?$_Tree_val@U?$_Tree_simple_types@U?$pair@$$CBUIndex@?$ofxLiquidEvent@UDrawArguments@ofxCvGui@@@@V?$function@$$A6AXAEAUDrawArguments@ofxCvGui@@@Z@std@@@std@@@std@@@std@@@std@@_N@std@@QEAA@AEAV?$_Tree_iterator@V?$_Tree_val@U?$_Tree_simple_types@U?$pair@$$CBUIndex@?$ofxLiquidEvent@UDrawArguments@ofxCvGui@@@@V?$function@$$A6AXAEAUDrawArguments@ofxCvGui@@@Z@std@@@std@@@std@@@std@@@1@$$QEA_N@Z
	??$?0AEAV?$_Tree_iterator@V?$_Tree_val@U?$_Tree_simple_types@U?$pair@$$CBUIndex@?$ofxLiquidEvent@UInspectArguments@ofxCvGui@@@@V?$function@$$A6AXAEAUInspectArguments@ofxCvGui@@@Z@std@@@std@@@std@@@std@@@std@@_NX@?$pair@V?$_Tree_iterator@V?$_Tree_val@U?$_Tree_simple_types@U?$pair@$$CBUIndex@?$ofxLiquidEvent@UInspectArguments@ofxCvGui@@@@V?$function@$$A6AXAEAUInspectArguments@ofxCvGui@@@Z@std@@@std@@@std@@@std@@@std@@_N@std@@QEAA@AEAV?$_Tree_iterator@V?$_Tree_val@U?$_Tree_simple_types@U?$pair@$$CBUIndex@?$ofxLiquidEvent@UInspectArguments@ofxCvGui@@@@V?$function@$$A6AXAEAUInspectArguments@ofxCvGui@@@Z@std@@@std@@@std@@@std@@@1@$$QEA_N@Z
	??$?0AEAV?$_Tree_iterator@V?$_Tree_val@U?$_Tree_simple_types@U?$pair@$$CBUIndex@?$ofxLiquidEvent@V?$shared_ptr@VBase@Nodes@ofxRulr@@@std@@@@V?$function@$$A6AXAEAV?$shared_ptr@VBase@Nodes@ofxRulr@@@std@@@Z@std@@@std@@@std@@@std@@@std@@_NX@?$pair@V?$_Tree_iterator@V?$_Tree_val@U?$_Tree_simple_types@U?$pair@$$CBUIndex@?$ofxLiquidEvent@V?$shared_ptr@VBase@Nodes@ofxRulr@@@std@@@@V?$function@$$A6AXAEAV?$shared_ptr@VBase@Nodes@ofxRulr@@@std@@@Z@std@@@std@@@std@@@std@@@std@@_N@std@@QEAA@AEAV?$_Tree_iterator@V?$_Tree_val@U?$_Tree_simple_types@U?$pair@$$CBUIndex@?$ofxLiquidEvent@V?$shared_ptr@VBase@Nodes@ofxRulr@@@std@@@@V?$function@$$A6AXAEAV?$shared_ptr@VBase@Nodes@ofxRulr@@@std@@@Z@std@@@std@@@std@@@std@@@1@$$QEA_N@Z
	??$?0AEAV?$_Tree_iterator@V?$_Tree_val@U?$_Tree_simple_types@U?$pair@$$CBUIndex@?$ofxLiquidEvent@VMouseArguments@ofxCvGui@@@@V?$function@$$A6AXAEAVMouseArguments@ofxCvGui@@@Z@std@@@std@@@std@@@std@@@std@@_NX@?$pair@V?$_Tree_iterator@V?$_Tree_val@U?$_Tree_simple_types@U?$pair@$$CBUIndex@?$ofxLiquidEvent@VMouseArguments@ofxCvGui@@@@V?$function@$$A6AXAEAVMouseArguments@ofxCvGui@@@Z@std@@@std@@@std@@@std@@@std@@_N@std@@QEAA@AEAV?$_Tree_iterator@V?$_Tree_val@U?$_Tree_simple_types@U?$pair@$$CBUIndex@?$ofxLiquidEvent@VMouseArguments@ofxCvGui@@@@V?$function@$$A6AXAEAVMouseArguments@ofxCvGui@@@Z@std@@@std@@@std@@@std@@@1@$$QEA_N@Z
	??$?0AEBU?$less@UIndex@?$ofxLiquidEvent@$$CBVValue@Json@@@@@std@@U_One_then_variadic_args_t@1@AEBV?$allocator@U?$pair@$$CBUIndex@?$ofxLiquidEvent@$$CBVValue@Json@@@@V?$function@$$A6AXAEBVValue@Json@@@Z@std@@@std@@@1@@?$_Compressed_pair@U?$less@UIndex@?$ofxLiquidEvent@$$CBVValue@Json@@@@@std@@V?$_Compressed_pair@U?$_Wrap_alloc@V?$allocator@U?$_Tree_node@U?$pair@$$CBUIndex@?$ofxLiquidEvent@$$CBVValue@Json@@@@V?$function@$$A6AXAEBVValue@Json@@@Z@std@@@std@@PEAX@std@@@std@@@std@@V?$_Tree_val@U?$_Tree_simple_types@U?$pair@$$CBUIndex@?$ofxLiquidEvent@$$CBVValue@Json@@@@V?$function@$$A6AXAEBVValue@Json@@@Z@std@@@std@@@std@@@2@$00@2@$00@std@@QEAA@U_One_then_variadic_args_t@1@AEBU?$less@UIndex@?$ofxLiquidEvent@$$CBVValue@Json@@@@@1@$$QEAU21@AEBV?$allocator@U?$pair@$$CBUIndex@?$ofxLiquidEvent@$$CBVValue@Json@@@@V?$function@$$A6AXAEBVValue@Json@@@Z@std@@@std@@@1@@Z
	??$?0AEBU?$less@UIndex@?$ofxLiquidEvent@H@@@std@@U_One_then_variadic_args_t@1@AEBV?$allocator@U?$pair@$$CBUIndex@?$ofxLiquidEvent@H@@V?$function@$$A6AXXZ@std@@@std@@@1@@?$_Compressed_pair@U?$less@UIndex@?$ofxLiquidEvent@H@@@std@@V?$_Compressed_pair@U?$_Wrap_alloc@V?$allocator@U?$_Tree_node@U?$pair@$$CBUIndex@?$ofxLiquidEvent@H@@V?$function@$$A6AXXZ@std@@@std@@PEAX@std@@@std@@@std@@V?$_Tree_val@U?$_Tree_simple_types@U?$pair@$$CBUIndex@?$ofxLiquidEvent@H@@V?$function@$$A6AXXZ@std@@@std@@@std@@@2@$00@2@$00@std@@QEAA@U_One_then_variadic_args_t@1@AEBU?$less@UIndex@?$ofxLiquidEvent@H@@@1@$$QEAU21@AEBV?$allocator@U?$pair@$$CBUIndex@?$ofxLiquidEvent@H@@V?$function@$$A6AXXZ@std@@@std@@@1@@Z
	??$?0AEBU?$less@UIndex@?$ofxLiquidEvent@UInspectArguments@ofxCvGui@@@@@std@@U_One_then_variadic_args_t@1@AEBV?$allocator@U?$pair@$$CBUIndex@?$ofxLiquidEvent@UInspectArguments@ofxCvGui@@@@V?$function@$$A6AXAEAUInspectArguments@ofxCvGui@@@Z@std@@@std@@@1@@?$_Compressed_pair@U?$less@UIndex@?$ofxLiquidEvent@UInspectArguments@ofxCvGui@@@@@std@@V?$_Compressed_pair@U?$_Wrap_alloc@V?$allocator@U?$_Tree_node@U?$pair@$$CBUIndex@?$ofxLiquidEvent@UInspectArguments@ofxCvGui@@@@V?$function@$$A6AXAEAUInspectArguments@ofxCvGui@@@Z@std@@@std@@PEAX@std@@@std@@@std@@V?$_Tree_val@U?$_Tree_simple_types@U?$pair@$$CBUIndex@?$ofxLiquidEvent@UInspectArguments@ofxCvGui@@@@V?$function@$$A6AXAEAUInspectArguments@ofxCvGui@@@Z@std@@@std@@@std@@@2@$00@2@$00@std@@QEAA@U_One_then_variadic_args_t@1@AEBU?$less@UIndex@?$ofxLiquidEvent@UInspectArguments@ofxCvGui@@@@@1@$$QEAU21@AEBV?$allocator@U?$pair@$$CBUIndex@?$ofxLiquidEvent@UInspectArguments@ofxCvGui@@@@V?$function@$$A6AXAEAUInspectArguments@ofxCvGui@@@Z@std@@@std@@@1@@Z
	??$?0AEBU?$less@UIndex@?$ofxLiquidEvent@V?$shared_ptr@VAbstractPin@Graph@ofxRulr@@@std@@@@@std@@U_One_then_variadic_args_t@1@AEBV?$allocator@U?$pair@$$CBUIndex@?$ofxLiquidEvent@V?$shared_ptr@VAbstractPin@Graph@ofxRulr@@@std@@@@V?$function@$$A6AXAEAV?$shared_ptr@VAbstractPin@Graph@ofxRulr@@@std@@@Z@std@@@std@@@1@@?$_Compressed_pair@U?$less@UIndex@?$ofxLiquidEvent@V?$shared_ptr@VAbstractPin@Graph@ofxRulr@@@std@@@@@std@@V?$_Compressed_pair@U?$_Wrap_alloc@V?$allocator@U?$_Tree_node@U?$pair@$$CBUIndex@?$ofxLiquidEvent@V?$shared_ptr@VAbstractPin@Graph@ofxRulr@@@std@@@@V?$function@$$A6AXAEAV?$shared_ptr@VAbstractPin@Graph@ofxRulr@@@std@@@Z@std@@@std@@PEAX@std@@@std@@@std@@V?$_Tree_val@U?$_Tree_simple_types@U?$pair@$$CBUIndex@?$ofxLiquidEvent@V?$shared_ptr@VAbstractPin@Graph@ofxRulr@@@std@@@@V?$function@$$A6AXAEAV?$shared_ptr@VAbstractPin@Graph@ofxRulr@@@std@@@Z@std@@@std@@@std@@@2@$00@2@$00@std@@QEAA@U_One_then_variadic_args_t@1@AEBU?$less@UIndex@?$ofxLiquidEvent@V?$shared_ptr@VAbstractPin@Graph@ofxRulr@@@std@@@@@1@$$QEAU21@AEBV?$allocator@U?$pair@$$CBUIndex@?$ofxLiquidEvent@V?$shared_ptr@VAbstractPin@Graph@ofxRulr@@@std@@@@V?$function@$$A6AXAEAV?$shared_ptr@VAbstractPin@Graph@ofxRulr@@@std@@@Z@std@@@std@@@1@@Z
	??$?0AEBU?$less@UIndex@?$ofxLiquidEvent@VValue@Json@@@@@std@@U_One_then_variadic_args_t@1@AEBV?$allocator@U?$pair@$$CBUIndex@?$ofxLiquidEvent@VValue@Json@@@@V?$function@$$A6AXAEAVValue@Json@@@Z@std@@@std@@@1@@?$_Compressed_pair@U?$less@UIndex@?$ofxLiquidEvent@VValue@Json@@@@@std@@V?$_Compressed_pair@U?$_Wrap_alloc@V?$allocator@U?$_Tree_node@U?$pair@$$CBUIndex@?$ofxLiquidEvent@VValue@Json@@@@V?$function@$$A6AXAEAVValue@Json@@@Z@std@@@std@@PEAX@std@@@std@@@std@@V?$_Tree_val@U?$_Tree_simple_types@U?$pair@$$CBUIndex@?$ofxLiquidEvent@VValue@Json@@@@V?$function@$$A6AXAEAVValue@Json@@@Z@std@@@std@@@std@@@2@$00@2@$00@std@@QEAA@U_One_then_variadic_args_t@1@AEBU?$less@UIndex@?$ofxLiquidEvent@VValue@Json@@@@@1@$$QEAU21@AEBV?$allocator@U?$pair@$$CBUIndex@?$ofxLiquidEvent@VValue@Json@@@@V?$function@$$A6AXAEAVValue@Json@@@Z@std@@@std@@@1@@Z
	??$?0AEBV<lambda_224f972154009ce07fce020ee97da390>@@AEBV?$allocator@H@std@@@?$_Func_impl@V<lambda_224f972154009ce07fce020ee97da390>@@V?$allocator@H@std@@XAEAUDrawArguments@ofxCvGui@@@std@@QEAA@AEBV<lambda_224f972154009ce07fce020ee97da390>@@AEBV?$allocator@H@1@@Z
	??$?0AEBV<lambda_3f0c0cc2dc2c270df32f5410d7922b45>@@AEBV?$allocator@H@std@@@?$_Func_impl@V<lambda_3f0c0cc2dc2c270df32f5410d7922b45>@@V?$allocator@H@std@@XAEAUInspectArguments@ofxCvGui@@@std@@QEAA@AEBV<lambda_3f0c0cc2dc2c270df32f5410d7922b45>@@AEBV?$allocator@H@1@@Z
	??$?0AEBV<lambda_4c58b929085e86163cd52e877c9c6f45>@@AEBV?$allocator@H@std@@@?$_Func_impl@V<lambda_4c58b929085e86163cd52e877c9c6f45>@@V?$allocator@H@std@@XAEAV?$shared_ptr@VBase@Nodes@ofxRulr@@@3@@std@@QEAA@AEBV<lambda_4c58b929085e86163cd52e877c9c6f45>@@AEBV?$allocator@H@1@@Z
	??$?0AEBV<lambda_7d9f195a84659425a41697390fba70cd>@@AEBV?$allocator@H@std@@@?$_Func_impl@V<lambda_7d9f195a84659425a41697390fba70cd>@@V?$allocator@H@std@@W4Status@Indicator@Widgets@ofxCvGui@@$$V@std@@QEAA@AEBV<lambda_7d9f195a84659425a41697390fba70cd>@@AEBV?$allocator@H@1@@Z
	??$?0AEBV<lambda_803b1ba7fe072d17e44d74762d6426f9>@@AEBV?$allocator@H@std@@@?$_Func_impl@V<lambda_803b1ba7fe072d17e44d74762d6426f9>@@V?$allocator@H@std@@XAEAV?$shared_ptr@VBase@Nodes@ofxRulr@@@3@@std@@QEAA@AEBV<lambda_803b1ba7fe072d17e44d74762d6426f9>@@AEBV?$allocator@H@1@@Z
	??$?0AEBV<lambda_88e5fe8ae475e6db1ed58f507cc891a3>@@AEBV?$allocator@H@std@@@?$_Func_impl@V<lambda_88e5fe8ae475e6db1ed58f507cc891a3>@@V?$allocator@H@std@@X$$V@std@@QEAA@AEBV<lambda_88e5fe8ae475e6db1ed58f507cc891a3>@@AEBV?$allocator@H@1@@Z
	??$?0AEBV<lambda_c18f35e87dc7db20c98795776406a3db>@@AEBV?$allocator@H@std@@@?$_Func_impl@V<lambda_c18f35e87dc7db20c98795776406a3db>@@V?$allocator@H@std@@XAEAVMouseArguments@ofxCvGui@@@std@@QEAA@AEBV<lambda_c18f35e87dc7db20c98795776406a3db>@@AEBV?$allocator@H@1@@Z
	??$?0AEBV<lambda_e77f8b25be01beabb990006c1ee13fb6>@@AEBV?$allocator@H@std@@@?$_Func_impl@V<lambda_e77f8b25be01beabb990006c1ee13fb6>@@V?$allocator@H@std@@X$$V@std@@QEAA@AEBV<lambda_e77f8b25be01beabb990006c1ee13fb6>@@AEBV?$allocator@H@1@@Z
	??$?0AEBV?$allocator@H@std@@AEBV<lambda_224f972154009ce07fce020ee97da390>@@@?$_Compressed_pair@V?$allocator@H@std@@V<lambda_224f972154009ce07fce020ee97da390>@@$00@std@@QEAA@U_One_then_variadic_args_t@1@AEBV?$allocator@H@1@AEBV<lambda_224f972154009ce07fce020ee97da390>@@@Z
	??$?0AEBV?$allocator@H@std@@AEBV<lambda_3f0c0cc2dc2c270df32f5410d7922b45>@@@?$_Compressed_pair@V?$allocator@H@std@@V<lambda_3f0c0cc2dc2c270df32f5410d7922b45>@@$00@std@@QEAA@U_One_then_variadic_args_t@1@AEBV?$allocator@H@1@AEBV<lambda_3f0c0cc2dc2c270df32f5410d7922b45>@@@Z
	??$?0AEBV?$allocator@H@std@@AEBV<lambda_4c58b929085e86163cd52e877c9c6f45>@@@?$_Compressed_pair@V?$allocator@H@std@@V<lambda_4c58b929085e86163cd52e877c9c6f45>@@$00@std@@QEAA@U_One_then_variadic_args_t@1@AEBV?$allocator@H@1@AEBV<lambda_4c58b929085e86163cd52e877c9c6f45>@@@Z
	??$?0AEBV?$allocator@H@std@@AEBV<lambda_7d9f195a84659425a41697390fba70cd>@@@?$_Compressed_pair@V?$allocator@H@std@@V<lambda_7d9f195a84659425a41697390fba70cd>@@$00@std@@QEAA@U_One_then_variadic_args_t@1@AEBV?$allocator@H@1@AEBV<lambda_7d9f195a84659425a41697390fba70cd>@@@Z
	??$?0AEBV?$allocator@H@std@@AEBV<lambda_803b1ba7fe072d17e44d74762d6426f9>@@@?$_Compressed_pair@V?$allocator@H@std@@V<lambda_803b1ba7fe072d17e44d74762d6426f9>@@$00@std@@QEAA@U_One_then_variadic_args_t@1@AEBV?$allocator@H@1@AEBV<lambda_803b1ba7fe072d17e44d74762d6426f9>@@@Z
	??$?0AEBV?$allocator@H@std@@AEBV<lambda_88e5fe8ae475e6db1ed58f507cc891a3>@@@?$_Compressed_pair@V?$allocator@H@std@@V<lambda_88e5fe8ae475e6db1ed58f507cc891a3>@@$00@std@@QEAA@U_One_then_variadic_args_t@1@AEBV?$allocator@H@1@AEBV<lambda_88e5fe8ae475e6db1ed58f507cc891a3>@@@Z
	??$?0AEBV?$allocator@H@std@@AEBV<lambda_c18f35e87dc7db20c98795776406a3db>@@@?$_Compressed_pair@V?$allocator@H@std@@V<lambda_c18f35e87dc7db20c98795776406a3db>@@$00@std@@QEAA@U_One_then_variadic_args_t@1@AEBV?$allocator@H@1@AEBV<lambda_c18f35e87dc7db20c98795776406a3db>@@@Z
	??$?0AEBV?$allocator@H@std@@AEBV<lambda_e77f8b25be01beabb990006c1ee13fb6>@@@?$_Compressed_pair@V?$allocator@H@std@@V<lambda_e77f8b25be01beabb990006c1ee13fb6>@@$00@std@@QEAA@U_One_then_variadic_args_t@1@AEBV?$allocator@H@1@AEBV<lambda_e77f8b25be01beabb990006c1ee13fb6>@@@Z
	??$?0AEBV?$allocator@H@std@@V<lambda_224f972154009ce07fce020ee97da390>@@@?$_Compressed_pair@V?$allocator@H@std@@V<lambda_224f972154009ce07fce020ee97da390>@@$00@std@@QEAA@U_One_then_variadic_args_t@1@AEBV?$allocator@H@1@$$QEAV<lambda_224f972154009ce07fce020ee97da390>@@@Z
	??$?0AEBV?$allocator@H@std@@V<lambda_3f0c0cc2dc2c270df32f5410d7922b45>@@@?$_Compressed_pair@V?$allocator@H@std@@V<lambda_3f0c0cc2dc2c270df32f5410d7922b45>@@$00@std@@QEAA@U_One_then_variadic_args_t@1@AEBV?$allocator@H@1@$$QEAV<lambda_3f0c0cc2dc2c270df32f5410d7922b45>@@@Z
	??$?0AEBV?$allocator@H@std@@V<lambda_4c58b929085e86163cd52e877c9c6f45>@@@?$_Compressed_pair@V?$allocator@H@std@@V<lambda_4c58b929085e86163cd52e877c9c6f45>@@$00@std@@QEAA@U_One_then_variadic_args_t@1@AEBV?$allocator@H@1@$$QEAV<lambda_4c58b929085e86163cd52e877c9c6f45>@@@Z
	??$?0AEBV?$allocator@H@std@@V<lambda_7d9f195a84659425a41697390fba70cd>@@@?$_Compressed_pair@V?$allocator@H@std@@V<lambda_7d9f195a84659425a41697390fba70cd>@@$00@std@@QEAA@U_One_then_variadic_args_t@1@AEBV?$allocator@H@1@$$QEAV<lambda_7d9f195a84659425a41697390fba70cd>@@@Z
	??$?0AEBV?$allocator@H@std@@V<lambda_803b1ba7fe072d17e44d74762d6426f9>@@@?$_Compressed_pair@V?$allocator@H@std@@V<lambda_803b1ba7fe072d17e44d74762d6426f9>@@$00@std@@QEAA@U_One_then_variadic_args_t@1@AEBV?$allocator@H@1@$$QEAV<lambda_803b1ba7fe072d17e44d74762d6426f9>@@@Z
	??$?0AEBV?$allocator@H@std@@V<lambda_88e5fe8ae475e6db1ed58f507cc891a3>@@@?$_Compressed_pair@V?$allocator@H@std@@V<lambda_88e5fe8ae475e6db1ed58f507cc891a3>@@$00@std@@QEAA@U_One_then_variadic_args_t@1@AEBV?$allocator@H@1@$$QEAV<lambda_88e5fe8ae475e6db1ed58f507cc891a3>@@@Z
	??$?0AEBV?$allocator@H@std@@V<lambda_c18f35e87dc7db20c98795776406a3db>@@@?$_Compressed_pair@V?$allocator@H@std@@V<lambda_c18f35e87dc7db20c98795776406a3db>@@$00@std@@QEAA@U_One_then_variadic_args_t@1@AEBV?$allocator@H@1@$$QEAV<lambda_c18f35e87dc7db20c98795776406a3db>@@@Z
	??$?0AEBV?$allocator@H@std@@V<lambda_e77f8b25be01beabb990006c1ee13fb6>@@@?$_Compressed_pair@V?$allocator@H@std@@V<lambda_e77f8b25be01beabb990006c1ee13fb6>@@$00@std@@QEAA@U_One_then_variadic_args_t@1@AEBV?$allocator@H@1@$$QEAV<lambda_e77f8b25be01beabb990006c1ee13fb6>@@@Z
	??$?0AEBV?$allocator@U?$pair@$$CBUIndex@?$ofxLiquidEvent@$$CBVValue@Json@@@@V?$function@$$A6AXAEBVValue@Json@@@Z@std@@@std@@@std@@$$V@?$_Compressed_pair@U?$_Wrap_alloc@V?$allocator@U?$_Tree_node@U?$pair@$$CBUIndex@?$ofxLiquidEvent@$$CBVValue@Json@@@@V?$function@$$A6AXAEBVValue@Json@@@Z@std@@@std@@PEAX@std@@@std@@@std@@V?$_Tree_val@U?$_Tree_simple_types@U?$pair@$$CBUIndex@?$ofxLiquidEvent@$$CBVValue@Json@@@@V?$function@$$A6AXAEBVValue@Json@@@Z@std@@@std@@@std@@@2@$00@std@@QEAA@U_One_then_variadic_args_t@1@AEBV?$allocator@U?$pair@$$CBUIndex@?$ofxLiquidEvent@$$CBVValue@Json@@@@V?$function@$$A6AXAEBVValue@Json@@@Z@std@@@std@@@1@@Z
	??$?0AEBV?$allocator@U?$pair@$$CBUIndex@?$ofxLiquidEvent@H@@V?$function@$$A6AXXZ@std@@@std@@@std@@$$V@?$_Compressed_pair@U?$_Wrap_alloc@V?$allocator@U?$_Tree_node@U?$pair@$$CBUIndex@?$ofxLiquidEvent@H@@V?$function@$$A6AXXZ@std@@@std@@PEAX@std@@@std@@@std@@V?$_Tree_val@U?$_Tree_simple_types@U?$pair@$$CBUIndex@?$ofxLiquidEvent@H@@V?$function@$$A6AXXZ@std@@@std@@@std@@@2@$00@std@@QEAA@U_One_then_variadic_args_t@1@AEBV?$allocator@U?$pair@$$CBUIndex@?$ofxLiquidEvent@H@@V?$function@$$A6AXXZ@std@@@std@@@1@@Z
	??$?0AEBV?$allocator@U?$pair@$$CBUIndex@?$ofxLiquidEvent@UInspectArguments@ofxCvGui@@@@V?$function@$$A6AXAEAUInspectArguments@ofxCvGui@@@Z@std@@@std@@@std@@$$V@?$_Compressed_pair@U?$_Wrap_alloc@V?$allocator@U?$_Tree_node@U?$pair@$$CBUIndex@?$ofxLiquidEvent@UInspectArguments@ofxCvGui@@@@V?$function@$$A6AXAEAUInspectArguments@ofxCvGui@@@Z@std@@@std@@PEAX@std@@@std@@@std@@V?$_Tree_val@U?$_Tree_simple_types@U?$pair@$$CBUIndex@?$ofxLiquidEvent@UInspectArguments@ofxCvGui@@@@V?$function@$$A6AXAEAUInspectArguments@ofxCvGui@@@Z@std@@@std@@@std@@@2@$00@std@@QEAA@U_One_then_variadic_args_t@1@AEBV?$allocator@U?$pair@$$CBUIndex@?$ofxLiquidEvent@UInspectArguments@ofxCvGui@@@@V?$function@$$A6AXAEAUInspectArguments@ofxCvGui@@@Z@std@@@std@@@1@@Z
	??$?0AEBV?$allocator@U?$pair@$$CBUIndex@?$ofxLiquidEvent@V?$shared_ptr@VAbstractPin@Graph@ofxRulr@@@std@@@@V?$function@$$A6AXAEAV?$shared_ptr@VAbstractPin@Graph@ofxRulr@@@std@@@Z@std@@@std@@@std@@$$V@?$_Compressed_pair@U?$_Wrap_alloc@V?$allocator@U?$_Tree_node@U?$pair@$$CBUIndex@?$ofxLiquidEvent@V?$shared_ptr@VAbstractPin@Graph@ofxRulr@@@std@@@@V?$function@$$A6AXAEAV?$shared_ptr@VAbstractPin@Graph@ofxRulr@@@std@@@Z@std@@@std@@PEAX@std@@@std@@@std@@V?$_Tree_val@U?$_Tree_simple_types@U?$pair@$$CBUIndex@?$ofxLiquidEvent@V?$shared_ptr@VAbstractPin@Graph@ofxRulr@@@std@@@@V?$function@$$A6AXAEAV?$shared_ptr@VAbstractPin@Graph@ofxRulr@@@std@@@Z@std@@@std@@@std@@@2@$00@std@@QEAA@U_One_then_variadic_args_t@1@AEBV?$allocator@U?$pair@$$CBUIndex@?$ofxLiquidEvent@V?$shared_ptr@VAbstractPin@Graph@ofxRulr@@@std@@@@V?$function@$$A6AXAEAV?$shared_ptr@VAbstractPin@Graph@ofxRulr@@@std@@@Z@std@@@std@@@1@@Z
	??$?0AEBV?$allocator@U?$pair@$$CBUIndex@?$ofxLiquidEvent@VValue@Json@@@@V?$function@$$A6AXAEAVValue@Json@@@Z@std@@@std@@@std@@$$V@?$_Compressed_pair@U?$_Wrap_alloc@V?$allocator@U?$_Tree_node@U?$pair@$$CBUIndex@?$ofxLiquidEvent@VValue@Json@@@@V?$function@$$A6AXAEAVValue@Json@@@Z@std@@@std@@PEAX@std@@@std@@@std@@V?$_Tree_val@U?$_Tree_simple_types@U?$pair@$$CBUIndex@?$ofxLiquidEvent@VValue@Json@@@@V?$function@$$A6AXAEAVValue@Json@@@Z@std@@@std@@@std@@@2@$00@std@@QEAA@U_One_then_variadic_args_t@1@AEBV?$allocator@U?$pair@$$CBUIndex@?$ofxLiquidEvent@VValue@Json@@@@V?$function@$$A6AXAEAVValue@Json@@@Z@std@@@std@@@1@@Z
	??$?0AEBV?$allocator@V?$shared_ptr@VAbstractPin@Graph@ofxRulr@@@std@@@std@@$$V@?$_Compressed_pair@U?$_Wrap_alloc@V?$allocator@V?$shared_ptr@VAbstractPin@Graph@ofxRulr@@@std@@@std@@@std@@V?$_Vector_val@U?$_Simple_types@V?$shared_ptr@VAbstractPin@Graph@ofxRulr@@@std@@@std@@@2@$00@std@@QEAA@U_One_then_variadic_args_t@1@AEBV?$allocator@V?$shared_ptr@VAbstractPin@Graph@ofxRulr@@@std@@@1@@Z
	??$?0AEBV?$ofColor_@E@@@?$_Ref_count_obj@V?$ofColor_@E@@@std@@QEAA@AEBV?$ofColor_@E@@@Z
	??$?0H@?$allocator@V?$_Func_impl@V<lambda_224f972154009ce07fce020ee97da390>@@V?$allocator@H@std@@XAEAUDrawArguments@ofxCvGui@@@std@@@std@@QEAA@AEBV?$allocator@H@1@@Z
	??$?0H@?$allocator@V?$_Func_impl@V<lambda_3f0c0cc2dc2c270df32f5410d7922b45>@@V?$allocator@H@std@@XAEAUInspectArguments@ofxCvGui@@@std@@@std@@QEAA@AEBV?$allocator@H@1@@Z
	??$?0H@?$allocator@V?$_Func_impl@V<lambda_4c58b929085e86163cd52e877c9c6f45>@@V?$allocator@H@std@@XAEAV?$shared_ptr@VBase@Nodes@ofxRulr@@@3@@std@@@std@@QEAA@AEBV?$allocator@H@1@@Z
	??$?0H@?$allocator@V?$_Func_impl@V<lambda_7d9f195a84659425a41697390fba70cd>@@V?$allocator@H@std@@W4Status@Indicator@Widgets@ofxCvGui@@$$V@std@@@std@@QEAA@AEBV?$allocator@H@1@@Z
	??$?0H@?$allocator@V?$_Func_impl@V<lambda_803b1ba7fe072d17e44d74762d6426f9>@@V?$allocator@H@std@@XAEAV?$shared_ptr@VBase@Nodes@ofxRulr@@@3@@std@@@std@@QEAA@AEBV?$allocator@H@1@@Z
	??$?0H@?$allocator@V?$_Func_impl@V<lambda_88e5fe8ae475e6db1ed58f507cc891a3>@@V?$allocator@H@std@@X$$V@std@@@std@@QEAA@AEBV?$allocator@H@1@@Z
	??$?0H@?$allocator@V?$_Func_impl@V<lambda_c18f35e87dc7db20c98795776406a3db>@@V?$allocator@H@std@@XAEAVMouseArguments@ofxCvGui@@@std@@@std@@QEAA@AEBV?$allocator@H@1@@Z
	??$?0H@?$allocator@V?$_Func_impl@V<lambda_e77f8b25be01beabb990006c1ee13fb6>@@V?$allocator@H@std@@X$$V@std@@@std@@QEAA@AEBV?$allocator@H@1@@Z
	??$?0U?$_Tree_node@U?$pair@$$CBUIndex@?$ofxLiquidEvent@$$CBVValue@Json@@@@V?$function@$$A6AXAEBVValue@Json@@@Z@std@@@std@@PEAX@std@@@?$allocator@U_Container_proxy@std@@@std@@QEAA@AEBV?$allocator@U?$_Tree_node@U?$pair@$$CBUIndex@?$ofxLiquidEvent@$$CBVValue@Json@@@@V?$function@$$A6AXAEBVValue@Json@@@Z@std@@@std@@PEAX@std@@@1@@Z
	??$?0U?$_Tree_node@U?$pair@$$CBUIndex@?$ofxLiquidEvent@H@@V?$function@$$A6AXXZ@std@@@std@@PEAX@std@@@?$allocator@U_Container_proxy@std@@@std@@QEAA@AEBV?$allocator@U?$_Tree_node@U?$pair@$$CBUIndex@?$ofxLiquidEvent@H@@V?$function@$$A6AXXZ@std@@@std@@PEAX@std@@@1@@Z
	??$?0U?$_Tree_node@U?$pair@$$CBUIndex@?$ofxLiquidEvent@UInspectArguments@ofxCvGui@@@@V?$function@$$A6AXAEAUInspectArguments@ofxCvGui@@@Z@std@@@std@@PEAX@std@@@?$allocator@U_Container_proxy@std@@@std@@QEAA@AEBV?$allocator@U?$_Tree_node@U?$pair@$$CBUIndex@?$ofxLiquidEvent@UInspectArguments@ofxCvGui@@@@V?$function@$$A6AXAEAUInspectArguments@ofxCvGui@@@Z@std@@@std@@PEAX@std@@@1@@Z
	??$?0U?$_Tree_node@U?$pair@$$CBUIndex@?$ofxLiquidEvent@V?$shared_ptr@VAbstractPin@Graph@ofxRulr@@@std@@@@V?$function@$$A6AXAEAV?$shared_ptr@VAbstractPin@Graph@ofxRulr@@@std@@@Z@std@@@std@@PEAX@std@@@?$allocator@U_Container_proxy@std@@@std@@QEAA@AEBV?$allocator@U?$_Tree_node@U?$pair@$$CBUIndex@?$ofxLiquidEvent@V?$shared_ptr@VAbstractPin@Graph@ofxRulr@@@std@@@@V?$function@$$A6AXAEAV?$shared_ptr@VAbstractPin@Graph@ofxRulr@@@std@@@Z@std@@@std@@PEAX@std@@@1@@Z
	??$?0U?$_Tree_node@U?$pair@$$CBUIndex@?$ofxLiquidEvent@VValue@Json@@@@V?$function@$$A6AXAEAVValue@Json@@@Z@std@@@std@@PEAX@std@@@?$allocator@U_Container_proxy@std@@@std@@QEAA@AEBV?$allocator@U?$_Tree_node@U?$pair@$$CBUIndex@?$ofxLiquidEvent@VValue@Json@@@@V?$function@$$A6AXAEAVValue@Json@@@Z@std@@@std@@PEAX@std@@@1@@Z
	??$?0U?$_Wrap_alloc@V?$allocator@U?$_Tree_node@U?$pair@$$CBUIndex@?$ofxLiquidEvent@$$CBVValue@Json@@@@V?$function@$$A6AXAEBVValue@Json@@@Z@std@@@std@@PEAX@std@@@std@@@std@@@?$_Wrap_alloc@V?$allocator@U_Container_proxy@std@@@std@@@std@@QEAA@AEAU?$_Wrap_alloc@V?$allocator@U?$_Tree_node@U?$pair@$$CBUIndex@?$ofxLiquidEvent@$$CBVValue@Json@@@@V?$function@$$A6AXAEBVValue@Json@@@Z@std@@@std@@PEAX@std@@@std@@@1@@Z
	??$?0U?$_Wrap_alloc@V?$allocator@U?$_Tree_node@U?$pair@$$CBUIndex@?$ofxLiquidEvent@H@@V?$function@$$A6AXXZ@std@@@std@@PEAX@std@@@std@@@std@@@?$_Wrap_alloc@V?$allocator@U_Container_proxy@std@@@std@@@std@@QEAA@AEAU?$_Wrap_alloc@V?$allocator@U?$_Tree_node@U?$pair@$$CBUIndex@?$ofxLiquidEvent@H@@V?$function@$$A6AXXZ@std@@@std@@PEAX@std@@@std@@@1@@Z
	??$?0U?$_Wrap_alloc@V?$allocator@U?$_Tree_node@U?$pair@$$CBUIndex@?$ofxLiquidEvent@UInspectArguments@ofxCvGui@@@@V?$function@$$A6AXAEAUInspectArguments@ofxCvGui@@@Z@std@@@std@@PEAX@std@@@std@@@std@@@?$_Wrap_alloc@V?$allocator@U_Container_proxy@std@@@std@@@std@@QEAA@AEAU?$_Wrap_alloc@V?$allocator@U?$_Tree_node@U?$pair@$$CBUIndex@?$ofxLiquidEvent@UInspectArguments@ofxCvGui@@@@V?$function@$$A6AXAEAUInspectArguments@ofxCvGui@@@Z@std@@@std@@PEAX@std@@@std@@@1@@Z
	??$?0U?$_Wrap_alloc@V?$allocator@U?$_Tree_node@U?$pair@$$CBUIndex@?$ofxLiquidEvent@V?$shared_ptr@VAbstractPin@Graph@ofxRulr@@@std@@@@V?$function@$$A6AXAEAV?$shared_ptr@VAbstractPin@Graph@ofxRulr@@@std@@@Z@std@@@std@@PEAX@std@@@std@@@std@@@?$_Wrap_alloc@V?$allocator@U_Container_proxy@std@@@std@@@std@@QEAA@AEAU?$_Wrap_alloc@V?$allocator@U?$_Tree_node@U?$pair@$$CBUIndex@?$ofxLiquidEvent@V?$shared_ptr@VAbstractPin@Graph@ofxRulr@@@std@@@@V?$function@$$A6AXAEAV?$shared_ptr@VAbstractPin@Graph@ofxRulr@@@std@@@Z@std@@@std@@PEAX@std@@@std@@@1@@Z
	??$?0U?$_Wrap_alloc@V?$allocator@U?$_Tree_node@U?$pair@$$CBUIndex@?$ofxLiquidEvent@VValue@Json@@@@V?$function@$$A6AXAEAVValue@Json@@@Z@std@@@std@@PEAX@std@@@std@@@std@@@?$_Wrap_alloc@V?$allocator@U_Container_proxy@std@@@std@@@std@@QEAA@AEAU?$_Wrap_alloc@V?$allocator@U?$_Tree_node@U?$pair@$$CBUIndex@?$ofxLiquidEvent@VValue@Json@@@@V?$function@$$A6AXAEAVValue@Json@@@Z@std@@@std@@PEAX@std@@@std@@@1@@Z
	??$?0U?$_Wrap_alloc@V?$allocator@V?$shared_ptr@VAbstractPin@Graph@ofxRulr@@@std@@@std@@@std@@@?$_Wrap_alloc@V?$allocator@U_Container_proxy@std@@@std@@@std@@QEAA@AEAU?$_Wrap_alloc@V?$allocator@V?$shared_ptr@VAbstractPin@Graph@ofxRulr@@@std@@@std@@@1@@Z
	??$?0U?$pair@$$CBUIndex@?$ofxLiquidEvent@$$CBVValue@Json@@@@V?$function@$$A6AXAEBVValue@Json@@@Z@std@@@std@@@?$allocator@U?$_Tree_node@U?$pair@$$CBUIndex@?$ofxLiquidEvent@$$CBVValue@Json@@@@V?$function@$$A6AXAEBVValue@Json@@@Z@std@@@std@@PEAX@std@@@std@@QEAA@AEBV?$allocator@U?$pair@$$CBUIndex@?$ofxLiquidEvent@$$CBVValue@Json@@@@V?$function@$$A6AXAEBVValue@Json@@@Z@std@@@std@@@1@@Z
	??$?0U?$pair@$$CBUIndex@?$ofxLiquidEvent@H@@V?$function@$$A6AXXZ@std@@@std@@@?$allocator@U?$_Tree_node@U?$pair@$$CBUIndex@?$ofxLiquidEvent@H@@V?$function@$$A6AXXZ@std@@@std@@PEAX@std@@@std@@QEAA@AEBV?$allocator@U?$pair@$$CBUIndex@?$ofxLiquidEvent@H@@V?$function@$$A6AXXZ@std@@@std@@@1@@Z
	??$?0U?$pair@$$CBUIndex@?$ofxLiquidEvent@UInspectArguments@ofxCvGui@@@@V?$function@$$A6AXAEAUInspectArguments@ofxCvGui@@@Z@std@@@std@@@?$allocator@U?$_Tree_node@U?$pair@$$CBUIndex@?$ofxLiquidEvent@UInspectArguments@ofxCvGui@@@@V?$function@$$A6AXAEAUInspectArguments@ofxCvGui@@@Z@std@@@std@@PEAX@std@@@std@@QEAA@AEBV?$allocator@U?$pair@$$CBUIndex@?$ofxLiquidEvent@UInspectArguments@ofxCvGui@@@@V?$function@$$A6AXAEAUInspectArguments@ofxCvGui@@@Z@std@@@std@@@1@@Z
	??$?0U?$pair@$$CBUIndex@?$ofxLiquidEvent@V?$shared_ptr@VAbstractPin@Graph@ofxRulr@@@std@@@@V?$function@$$A6AXAEAV?$shared_ptr@VAbstractPin@Graph@ofxRulr@@@std@@@Z@std@@@std@@@?$allocator@U?$_Tree_node@U?$pair@$$CBUIndex@?$ofxLiquidEvent@V?$shared_ptr@VAbstractPin@Graph@ofxRulr@@@std@@@@V?$function@$$A6AXAEAV?$shared_ptr@VAbstractPin@Graph@ofxRulr@@@std@@@Z@std@@@std@@PEAX@std@@@std@@QEAA@AEBV?$allocator@U?$pair@$$CBUIndex@?$ofxLiquidEvent@V?$shared_ptr@VAbstractPin@Graph@ofxRulr@@@std@@@@V?$function@$$A6AXAEAV?$shared_ptr@VAbstractPin@Graph@ofxRulr@@@std@@@Z@std@@@std@@@1@@Z
	??$?0U?$pair@$$CBUIndex@?$ofxLiquidEvent@VValue@Json@@@@V?$function@$$A6AXAEAVValue@Json@@@Z@std@@@std@@@?$allocator@U?$_Tree_node@U?$pair@$$CBUIndex@?$ofxLiquidEvent@VValue@Json@@@@V?$function@$$A6AXAEAVValue@Json@@@Z@std@@@std@@PEAX@std@@@std@@QEAA@AEBV?$allocator@U?$pair@$$CBUIndex@?$ofxLiquidEvent@VValue@Json@@@@V?$function@$$A6AXAEAVValue@Json@@@Z@std@@@std@@@1@@Z
	??$?0UIndex@?$ofxLiquidEvent@UDrawArguments@ofxCvGui@@@@AEAV?$function@$$A6AXAEAUDrawArguments@ofxCvGui@@@Z@std@@X@?$pair@UIndex@?$ofxLiquidEvent@UDrawArguments@ofxCvGui@@@@V?$function@$$A6AXAEAUDrawArguments@ofxCvGui@@@Z@std@@@std@@QEAA@$$QEAUIndex@?$ofxLiquidEvent@UDrawArguments@ofxCvGui@@@@AEAV?$function@$$A6AXAEAUDrawArguments@ofxCvGui@@@Z@1@@Z
	??$?0UIndex@?$ofxLiquidEvent@UDrawArguments@ofxCvGui@@@@V?$function@$$A6AXAEAUDrawArguments@ofxCvGui@@@Z@std@@X@?$pair@$$CBUIndex@?$ofxLiquidEvent@UDrawArguments@ofxCvGui@@@@V?$function@$$A6AXAEAUDrawArguments@ofxCvGui@@@Z@std@@@std@@QEAA@$$QEAU?$pair@UIndex@?$ofxLiquidEvent@UDrawArguments@ofxCvGui@@@@V?$function@$$A6AXAEAUDrawArguments@ofxCvGui@@@Z@std@@@1@@Z
	??$?0UIndex@?$ofxLiquidEvent@UInspectArguments@ofxCvGui@@@@AEAV?$function@$$A6AXAEAUInspectArguments@ofxCvGui@@@Z@std@@X@?$pair@UIndex@?$ofxLiquidEvent@UInspectArguments@ofxCvGui@@@@V?$function@$$A6AXAEAUInspectArguments@ofxCvGui@@@Z@std@@@std@@QEAA@$$QEAUIndex@?$ofxLiquidEvent@UInspectArguments@ofxCvGui@@@@AEAV?$function@$$A6AXAEAUInspectArguments@ofxCvGui@@@Z@1@@Z
	??$?0UIndex@?$ofxLiquidEvent@UInspectArguments@ofxCvGui@@@@V?$function@$$A6AXAEAUInspectArguments@ofxCvGui@@@Z@std@@X@?$pair@$$CBUIndex@?$ofxLiquidEvent@UInspectArguments@ofxCvGui@@@@V?$function@$$A6AXAEAUInspectArguments@ofxCvGui@@@Z@std@@@std@@QEAA@$$QEAU?$pair@UIndex@?$ofxLiquidEvent@UInspectArguments@ofxCvGui@@@@V?$function@$$A6AXAEAUInspectArguments@ofxCvGui@@@Z@std@@@1@@Z
	??$?0UIndex@?$ofxLiquidEvent@V?$shared_ptr@VBase@Nodes@ofxRulr@@@std@@@@AEAV?$function@$$A6AXAEAV?$shared_ptr@VBase@Nodes@ofxRulr@@@std@@@Z@std@@X@?$pair@UIndex@?$ofxLiquidEvent@V?$shared_ptr@VBase@Nodes@ofxRulr@@@std@@@@V?$function@$$A6AXAEAV?$shared_ptr@VBase@Nodes@ofxRulr@@@std@@@Z@std@@@std@@QEAA@$$QEAUIndex@?$ofxLiquidEvent@V?$shared_ptr@VBase@Nodes@ofxRulr@@@std@@@@AEAV?$function@$$A6AXAEAV?$shared_ptr@VBase@Nodes@ofxRulr@@@std@@@Z@1@@Z
	??$?0UIndex@?$ofxLiquidEvent@V?$shared_ptr@VBase@Nodes@ofxRulr@@@std@@@@V?$function@$$A6AXAEAV?$shared_ptr@VBase@Nodes@ofxRulr@@@std@@@Z@std@@X@?$pair@$$CBUIndex@?$ofxLiquidEvent@V?$shared_ptr@VBase@Nodes@ofxRulr@@@std@@@@V?$function@$$A6AXAEAV?$shared_ptr@VBase@Nodes@ofxRulr@@@std@@@Z@std@@@std@@QEAA@$$QEAU?$pair@UIndex@?$ofxLiquidEvent@V?$shared_ptr@VBase@Nodes@ofxRulr@@@std@@@@V?$function@$$A6AXAEAV?$shared_ptr@VBase@Nodes@ofxRulr@@@std@@@Z@std@@@1@@Z
	??$?0UIndex@?$ofxLiquidEvent@VMouseArguments@ofxCvGui@@@@AEAV?$function@$$A6AXAEAVMouseArguments@ofxCvGui@@@Z@std@@X@?$pair@UIndex@?$ofxLiquidEvent@VMouseArguments@ofxCvGui@@@@V?$function@$$A6AXAEAVMouseArguments@ofxCvGui@@@Z@std@@@std@@QEAA@$$QEAUIndex@?$ofxLiquidEvent@VMouseArguments@ofxCvGui@@@@AEAV?$function@$$A6AXAEAVMouseArguments@ofxCvGui@@@Z@1@@Z
	??$?0UIndex@?$ofxLiquidEvent@VMouseArguments@ofxCvGui@@@@V?$function@$$A6AXAEAVMouseArguments@ofxCvGui@@@Z@std@@X@?$pair@$$CBUIndex@?$ofxLiquidEvent@VMouseArguments@ofxCvGui@@@@V?$function@$$A6AXAEAVMouseArguments@ofxCvGui@@@Z@std@@@std@@QEAA@$$QEAU?$pair@UIndex@?$ofxLiquidEvent@VMouseArguments@ofxCvGui@@@@V?$function@$$A6AXAEAVMouseArguments@ofxCvGui@@@Z@std@@@1@@Z
	??$?0V<lambda_224f972154009ce07fce020ee97da390>@@@?$function@$$A6AXAEAUDrawArguments@ofxCvGui@@@Z@std@@QEAA@V<lambda_224f972154009ce07fce020ee97da390>@@@Z
	??$?0V<lambda_224f972154009ce07fce020ee97da390>@@AEBV?$allocator@H@std@@@?$_Func_impl@V<lambda_224f972154009ce07fce020ee97da390>@@V?$allocator@H@std@@XAEAUDrawArguments@ofxCvGui@@@std@@QEAA@$$QEAV<lambda_224f972154009ce07fce020ee97da390>@@AEBV?$allocator@H@1@@Z
	??$?0V<lambda_224f972154009ce07fce020ee97da390>@@V?$allocator@H@std@@@?$_Func_impl@V<lambda_224f972154009ce07fce020ee97da390>@@V?$allocator@H@std@@XAEAUDrawArguments@ofxCvGui@@@std@@QEAA@$$QEAV<lambda_224f972154009ce07fce020ee97da390>@@$$QEAV?$allocator@H@1@@Z
	??$?0V<lambda_3f0c0cc2dc2c270df32f5410d7922b45>@@@?$function@$$A6AXAEAUInspectArguments@ofxCvGui@@@Z@std@@QEAA@V<lambda_3f0c0cc2dc2c270df32f5410d7922b45>@@@Z
	??$?0V<lambda_3f0c0cc2dc2c270df32f5410d7922b45>@@AEBV?$allocator@H@std@@@?$_Func_impl@V<lambda_3f0c0cc2dc2c270df32f5410d7922b45>@@V?$allocator@H@std@@XAEAUInspectArguments@ofxCvGui@@@std@@QEAA@$$QEAV<lambda_3f0c0cc2dc2c270df32f5410d7922b45>@@AEBV?$allocator@H@1@@Z
	??$?0V<lambda_3f0c0cc2dc2c270df32f5410d7922b45>@@V?$allocator@H@std@@@?$_Func_impl@V<lambda_3f0c0cc2dc2c270df32f5410d7922b45>@@V?$allocator@H@std@@XAEAUInspectArguments@ofxCvGui@@@std@@QEAA@$$QEAV<lambda_3f0c0cc2dc2c270df32f5410d7922b45>@@$$QEAV?$allocator@H@1@@Z
	??$?0V<lambda_4c58b929085e86163cd52e877c9c6f45>@@@?$function@$$A6AXAEAV?$shared_ptr@VBase@Nodes@ofxRulr@@@std@@@Z@std@@QEAA@V<lambda_4c58b929085e86163cd52e877c9c6f45>@@@Z
	??$?0V<lambda_4c58b929085e86163cd52e877c9c6f45>@@AEBV?$allocator@H@std@@@?$_Func_impl@V<lambda_4c58b929085e86163cd52e877c9c6f45>@@V?$allocator@H@std@@XAEAV?$shared_ptr@VBase@Nodes@ofxRulr@@@3@@std@@QEAA@$$QEAV<lambda_4c58b929085e86163cd52e877c9c6f45>@@AEBV?$allocator@H@1@@Z
	??$?0V<lambda_4c58b929085e86163cd52e877c9c6f45>@@V?$allocator@H@std@@@?$_Func_impl@V<lambda_4c58b929085e86163cd52e877c9c6f45>@@V?$allocator@H@std@@XAEAV?$shared_ptr@VBase@Nodes@ofxRulr@@@3@@std@@QEAA@$$QEAV<lambda_4c58b929085e86163cd52e877c9c6f45>@@$$QEAV?$allocator@H@1@@Z
	??$?0V<lambda_7d9f195a84659425a41697390fba70cd>@@@?$function@$$A6A?AW4Status@Indicator@Widgets@ofxCvGui@@XZ@std@@QEAA@V<lambda_7d9f195a84659425a41697390fba70cd>@@@Z
	??$?0V<lambda_7d9f195a84659425a41697390fba70cd>@@AEBV?$allocator@H@std@@@?$_Func_impl@V<lambda_7d9f195a84659425a41697390fba70cd>@@V?$allocator@H@std@@W4Status@Indicator@Widgets@ofxCvGui@@$$V@std@@QEAA@$$QEAV<lambda_7d9f195a84659425a41697390fba70cd>@@AEBV?$allocator@H@1@@Z
	??$?0V<lambda_7d9f195a84659425a41697390fba70cd>@@V?$allocator@H@std@@@?$_Func_impl@V<lambda_7d9f195a84659425a41697390fba70cd>@@V?$allocator@H@std@@W4Status@Indicator@Widgets@ofxCvGui@@$$V@std@@QEAA@$$QEAV<lambda_7d9f195a84659425a41697390fba70cd>@@$$QEAV?$allocator@H@1@@Z
	??$?0V<lambda_803b1ba7fe072d17e44d74762d6426f9>@@@?$function@$$A6AXAEAV?$shared_ptr@VBase@Nodes@ofxRulr@@@std@@@Z@std@@QEAA@V<lambda_803b1ba7fe072d17e44d74762d6426f9>@@@Z
	??$?0V<lambda_803b1ba7fe072d17e44d74762d6426f9>@@AEBV?$allocator@H@std@@@?$_Func_impl@V<lambda_803b1ba7fe072d17e44d74762d6426f9>@@V?$allocator@H@std@@XAEAV?$shared_ptr@VBase@Nodes@ofxRulr@@@3@@std@@QEAA@$$QEAV<lambda_803b1ba7fe072d17e44d74762d6426f9>@@AEBV?$allocator@H@1@@Z
	??$?0V<lambda_803b1ba7fe072d17e44d74762d6426f9>@@V?$allocator@H@std@@@?$_Func_impl@V<lambda_803b1ba7fe072d17e44d74762d6426f9>@@V?$allocator@H@std@@XAEAV?$shared_ptr@VBase@Nodes@ofxRulr@@@3@@std@@QEAA@$$QEAV<lambda_803b1ba7fe072d17e44d74762d6426f9>@@$$QEAV?$allocator@H@1@@Z
	??$?0V<lambda_88e5fe8ae475e6db1ed58f507cc891a3>@@@?$function@$$A6AXXZ@std@@QEAA@V<lambda_88e5fe8ae475e6db1ed58f507cc891a3>@@@Z
	??$?0V<lambda_88e5fe8ae475e6db1ed58f507cc891a3>@@AEBV?$allocator@H@std@@@?$_Func_impl@V<lambda_88e5fe8ae475e6db1ed58f507cc891a3>@@V?$allocator@H@std@@X$$V@std@@QEAA@$$QEAV<lambda_88e5fe8ae475e6db1ed58f507cc891a3>@@AEBV?$allocator@H@1@@Z
	??$?0V<lambda_88e5fe8ae475e6db1ed58f507cc891a3>@@V?$allocator@H@std@@@?$_Func_impl@V<lambda_88e5fe8ae475e6db1ed58f507cc891a3>@@V?$allocator@H@std@@X$$V@std@@QEAA@$$QEAV<lambda_88e5fe8ae475e6db1ed58f507cc891a3>@@$$QEAV?$allocator@H@1@@Z
	??$?0V<lambda_c18f35e87dc7db20c98795776406a3db>@@@?$function@$$A6AXAEAVMouseArguments@ofxCvGui@@@Z@std@@QEAA@V<lambda_c18f35e87dc7db20c98795776406a3db>@@@Z
	??$?0V<lambda_c18f35e87dc7db20c98795776406a3db>@@AEBV?$allocator@H@std@@@?$_Func_impl@V<lambda_c18f35e87dc7db20c98795776406a3db>@@V?$allocator@H@std@@XAEAVMouseArguments@ofxCvGui@@@std@@QEAA@$$QEAV<lambda_c18f35e87dc7db20c98795776406a3db>@@AEBV?$allocator@H@1@@Z
	??$?0V<lambda_c18f35e87dc7db20c98795776406a3db>@@V?$allocator@H@std@@@?$_Func_impl@V<lambda_c18f35e87dc7db20c98795776406a3db>@@V?$allocator@H@std@@XAEAVMouseArguments@ofxCvGui@@@std@@QEAA@$$QEAV<lambda_c18f35e87dc7db20c98795776406a3db>@@$$QEAV?$allocator@H@1@@Z
	??$?0V<lambda_e77f8b25be01beabb990006c1ee13fb6>@@@?$function@$$A6AXXZ@std@@QEAA@V<lambda_e77f8b25be01beabb990006c1ee13fb6>@@@Z
	??$?0V<lambda_e77f8b25be01beabb990006c1ee13fb6>@@AEBV?$allocator@H@std@@@?$_Func_impl@V<lambda_e77f8b25be01beabb990006c1ee13fb6>@@V?$allocator@H@std@@X$$V@std@@QEAA@$$QEAV<lambda_e77f8b25be01beabb990006c1ee13fb6>@@AEBV?$allocator@H@1@@Z
	??$?0V<lambda_e77f8b25be01beabb990006c1ee13fb6>@@V?$allocator@H@std@@@?$_Func_impl@V<lambda_e77f8b25be01beabb990006c1ee13fb6>@@V?$allocator@H@std@@X$$V@std@@QEAA@$$QEAV<lambda_e77f8b25be01beabb990006c1ee13fb6>@@$$QEAV?$allocator@H@1@@Z
	??$?0V?$_Tree_iterator@V?$_Tree_val@U?$_Tree_simple_types@U?$pair@$$CBUIndex@?$ofxLiquidEvent@UDrawArguments@ofxCvGui@@@@V?$function@$$A6AXAEAUDrawArguments@ofxCvGui@@@Z@std@@@std@@@std@@@std@@@std@@_NX@?$pair@V?$_Tree_iterator@V?$_Tree_val@U?$_Tree_simple_types@U?$pair@$$CBUIndex@?$ofxLiquidEvent@UDrawArguments@ofxCvGui@@@@V?$function@$$A6AXAEAUDrawArguments@ofxCvGui@@@Z@std@@@std@@@std@@@std@@@std@@_N@std@@QEAA@$$QEAV?$_Tree_iterator@V?$_Tree_val@U?$_Tree_simple_types@U?$pair@$$CBUIndex@?$ofxLiquidEvent@UDrawArguments@ofxCvGui@@@@V?$function@$$A6AXAEAUDrawArguments@ofxCvGui@@@Z@std@@@std@@@std@@@std@@@1@$$QEA_N@Z
	??$?0V?$_Tree_iterator@V?$_Tree_val@U?$_Tree_simple_types@U?$pair@$$CBUIndex@?$ofxLiquidEvent@UInspectArguments@ofxCvGui@@@@V?$function@$$A6AXAEAUInspectArguments@ofxCvGui@@@Z@std@@@std@@@std@@@std@@@std@@_NX@?$pair@V?$_Tree_iterator@V?$_Tree_val@U?$_Tree_simple_types@U?$pair@$$CBUIndex@?$ofxLiquidEvent@UInspectArguments@ofxCvGui@@@@V?$function@$$A6AXAEAUInspectArguments@ofxCvGui@@@Z@std@@@std@@@std@@@std@@@std@@_N@std@@QEAA@$$QEAV?$_Tree_iterator@V?$_Tree_val@U?$_Tree_simple_types@U?$pair@$$CBUIndex@?$ofxLiquidEvent@UInspectArguments@ofxCvGui@@@@V?$function@$$A6AXAEAUInspectArguments@ofxCvGui@@@Z@std@@@std@@@std@@@std@@@1@$$QEA_N@Z
	??$?0V?$_Tree_iterator@V?$_Tree_val@U?$_Tree_simple_types@U?$pair@$$CBUIndex@?$ofxLiquidEvent@V?$shared_ptr@VBase@Nodes@ofxRulr@@@std@@@@V?$function@$$A6AXAEAV?$shared_ptr@VBase@Nodes@ofxRulr@@@std@@@Z@std@@@std@@@std@@@std@@@std@@_NX@?$pair@V?$_Tree_iterator@V?$_Tree_val@U?$_Tree_simple_types@U?$pair@$$CBUIndex@?$ofxLiquidEvent@V?$shared_ptr@VBase@Nodes@ofxRulr@@@std@@@@V?$function@$$A6AXAEAV?$shared_ptr@VBase@Nodes@ofxRulr@@@std@@@Z@std@@@std@@@std@@@std@@@std@@_N@std@@QEAA@$$QEAV?$_Tree_iterator@V?$_Tree_val@U?$_Tree_simple_types@U?$pair@$$CBUIndex@?$ofxLiquidEvent@V?$shared_ptr@VBase@Nodes@ofxRulr@@@std@@@@V?$function@$$A6AXAEAV?$shared_ptr@VBase@Nodes@ofxRulr@@@std@@@Z@std@@@std@@@std@@@std@@@1@$$QEA_N@Z
	??$?0V?$_Tree_iterator@V?$_Tree_val@U?$_Tree_simple_types@U?$pair@$$CBUIndex@?$ofxLiquidEvent@VMouseArguments@ofxCvGui@@@@V?$function@$$A6AXAEAVMouseArguments@ofxCvGui@@@Z@std@@@std@@@std@@@std@@@std@@_NX@?$pair@V?$_Tree_iterator@V?$_Tree_val@U?$_Tree_simple_types@U?$pair@$$CBUIndex@?$ofxLiquidEvent@VMouseArguments@ofxCvGui@@@@V?$function@$$A6AXAEAVMouseArguments@ofxCvGui@@@Z@std@@@std@@@std@@@std@@@std@@_N@std@@QEAA@$$QEAV?$_Tree_iterator@V?$_Tree_val@U?$_Tree_simple_types@U?$pair@$$CBUIndex@?$ofxLiquidEvent@VMouseArguments@ofxCvGui@@@@V?$function@$$A6AXAEAVMouseArguments@ofxCvGui@@@Z@std@@@std@@@std@@@std@@@1@$$QEA_N@Z
	??$?0V?$allocator@H@std@@@?$_Wrap_alloc@V?$allocator@V?$_Func_impl@V<lambda_224f972154009ce07fce020ee97da390>@@V?$allocator@H@std@@XAEAUDrawArguments@ofxCvGui@@@std@@@std@@@std@@QEAA@AEAV?$allocator@H@1@@Z
	??$?0V?$allocator@H@std@@@?$_Wrap_alloc@V?$allocator@V?$_Func_impl@V<lambda_224f972154009ce07fce020ee97da390>@@V?$allocator@H@std@@XAEAUDrawArguments@ofxCvGui@@@std@@@std@@@std@@QEAA@AEBV?$allocator@H@1@@Z
	??$?0V?$allocator@H@std@@@?$_Wrap_alloc@V?$allocator@V?$_Func_impl@V<lambda_3f0c0cc2dc2c270df32f5410d7922b45>@@V?$allocator@H@std@@XAEAUInspectArguments@ofxCvGui@@@std@@@std@@@std@@QEAA@AEAV?$allocator@H@1@@Z
	??$?0V?$allocator@H@std@@@?$_Wrap_alloc@V?$allocator@V?$_Func_impl@V<lambda_3f0c0cc2dc2c270df32f5410d7922b45>@@V?$allocator@H@std@@XAEAUInspectArguments@ofxCvGui@@@std@@@std@@@std@@QEAA@AEBV?$allocator@H@1@@Z
	??$?0V?$allocator@H@std@@@?$_Wrap_alloc@V?$allocator@V?$_Func_impl@V<lambda_4c58b929085e86163cd52e877c9c6f45>@@V?$allocator@H@std@@XAEAV?$shared_ptr@VBase@Nodes@ofxRulr@@@3@@std@@@std@@@std@@QEAA@AEAV?$allocator@H@1@@Z
	??$?0V?$allocator@H@std@@@?$_Wrap_alloc@V?$allocator@V?$_Func_impl@V<lambda_4c58b929085e86163cd52e877c9c6f45>@@V?$allocator@H@std@@XAEAV?$shared_ptr@VBase@Nodes@ofxRulr@@@3@@std@@@std@@@std@@QEAA@AEBV?$allocator@H@1@@Z
	??$?0V?$allocator@H@std@@@?$_Wrap_alloc@V?$allocator@V?$_Func_impl@V<lambda_7d9f195a84659425a41697390fba70cd>@@V?$allocator@H@std@@W4Status@Indicator@Widgets@ofxCvGui@@$$V@std@@@std@@@std@@QEAA@AEAV?$allocator@H@1@@Z
	??$?0V?$allocator@H@std@@@?$_Wrap_alloc@V?$allocator@V?$_Func_impl@V<lambda_7d9f195a84659425a41697390fba70cd>@@V?$allocator@H@std@@W4Status@Indicator@Widgets@ofxCvGui@@$$V@std@@@std@@@std@@QEAA@AEBV?$allocator@H@1@@Z
	??$?0V?$allocator@H@std@@@?$_Wrap_alloc@V?$allocator@V?$_Func_impl@V<lambda_803b1ba7fe072d17e44d74762d6426f9>@@V?$allocator@H@std@@XAEAV?$shared_ptr@VBase@Nodes@ofxRulr@@@3@@std@@@std@@@std@@QEAA@AEAV?$allocator@H@1@@Z
	??$?0V?$allocator@H@std@@@?$_Wrap_alloc@V?$allocator@V?$_Func_impl@V<lambda_803b1ba7fe072d17e44d74762d6426f9>@@V?$allocator@H@std@@XAEAV?$shared_ptr@VBase@Nodes@ofxRulr@@@3@@std@@@std@@@std@@QEAA@AEBV?$allocator@H@1@@Z
	??$?0V?$allocator@H@std@@@?$_Wrap_alloc@V?$allocator@V?$_Func_impl@V<lambda_88e5fe8ae475e6db1ed58f507cc891a3>@@V?$allocator@H@std@@X$$V@std@@@std@@@std@@QEAA@AEAV?$allocator@H@1@@Z
	??$?0V?$allocator@H@std@@@?$_Wrap_alloc@V?$allocator@V?$_Func_impl@V<lambda_88e5fe8ae475e6db1ed58f507cc891a3>@@V?$allocator@H@std@@X$$V@std@@@std@@@std@@QEAA@AEBV?$allocator@H@1@@Z
	??$?0V?$allocator@H@std@@@?$_Wrap_alloc@V?$allocator@V?$_Func_impl@V<lambda_c18f35e87dc7db20c98795776406a3db>@@V?$allocator@H@std@@XAEAVMouseArguments@ofxCvGui@@@std@@@std@@@std@@QEAA@AEAV?$allocator@H@1@@Z
	??$?0V?$allocator@H@std@@@?$_Wrap_alloc@V?$allocator@V?$_Func_impl@V<lambda_c18f35e87dc7db20c98795776406a3db>@@V?$allocator@H@std@@XAEAVMouseArguments@ofxCvGui@@@std@@@std@@@std@@QEAA@AEBV?$allocator@H@1@@Z
	??$?0V?$allocator@H@std@@@?$_Wrap_alloc@V?$allocator@V?$_Func_impl@V<lambda_e77f8b25be01beabb990006c1ee13fb6>@@V?$allocator@H@std@@X$$V@std@@@std@@@std@@QEAA@AEAV?$allocator@H@1@@Z
	??$?0V?$allocator@H@std@@@?$_Wrap_alloc@V?$allocator@V?$_Func_impl@V<lambda_e77f8b25be01beabb990006c1ee13fb6>@@V?$allocator@H@std@@X$$V@std@@@std@@@std@@QEAA@AEBV?$allocator@H@1@@Z
	??$?0V?$allocator@H@std@@V<lambda_224f972154009ce07fce020ee97da390>@@@?$_Compressed_pair@V?$allocator@H@std@@V<lambda_224f972154009ce07fce020ee97da390>@@$00@std@@QEAA@U_One_then_variadic_args_t@1@$$QEAV?$allocator@H@1@$$QEAV<lambda_224f972154009ce07fce020ee97da390>@@@Z
	??$?0V?$allocator@H@std@@V<lambda_3f0c0cc2dc2c270df32f5410d7922b45>@@@?$_Compressed_pair@V?$allocator@H@std@@V<lambda_3f0c0cc2dc2c270df32f5410d7922b45>@@$00@std@@QEAA@U_One_then_variadic_args_t@1@$$QEAV?$allocator@H@1@$$QEAV<lambda_3f0c0cc2dc2c270df32f5410d7922b45>@@@Z
	??$?0V?$allocator@H@std@@V<lambda_4c58b929085e86163cd52e877c9c6f45>@@@?$_Compressed_pair@V?$allocator@H@std@@V<lambda_4c58b929085e86163cd52e877c9c6f45>@@$00@std@@QEAA@U_One_then_variadic_args_t@1@$$QEAV?$allocator@H@1@$$QEAV<lambda_4c58b929085e86163cd52e877c9c6f45>@@@Z
	??$?0V?$allocator@H@std@@V<lambda_7d9f195a84659425a41697390fba70cd>@@@?$_Compressed_pair@V?$allocator@H@std@@V<lambda_7d9f195a84659425a41697390fba70cd>@@$00@std@@QEAA@U_One_then_variadic_args_t@1@$$QEAV?$allocator@H@1@$$QEAV<lambda_7d9f195a84659425a41697390fba70cd>@@@Z
	??$?0V?$allocator@H@std@@V<lambda_803b1ba7fe072d17e44d74762d6426f9>@@@?$_Compressed_pair@V?$allocator@H@std@@V<lambda_803b1ba7fe072d17e44d74762d6426f9>@@$00@std@@QEAA@U_One_then_variadic_args_t@1@$$QEAV?$allocator@H@1@$$QEAV<lambda_803b1ba7fe072d17e44d74762d6426f9>@@@Z
	??$?0V?$allocator@H@std@@V<lambda_88e5fe8ae475e6db1ed58f507cc891a3>@@@?$_Compressed_pair@V?$allocator@H@std@@V<lambda_88e5fe8ae475e6db1ed58f507cc891a3>@@$00@std@@QEAA@U_One_then_variadic_args_t@1@$$QEAV?$allocator@H@1@$$QEAV<lambda_88e5fe8ae475e6db1ed58f507cc891a3>@@@Z
	??$?0V?$allocator@H@std@@V<lambda_c18f35e87dc7db20c98795776406a3db>@@@?$_Compressed_pair@V?$allocator@H@std@@V<lambda_c18f35e87dc7db20c98795776406a3db>@@$00@std@@QEAA@U_One_then_variadic_args_t@1@$$QEAV?$allocator@H@1@$$QEAV<lambda_c18f35e87dc7db20c98795776406a3db>@@@Z
	??$?0V?$allocator@H@std@@V<lambda_e77f8b25be01beabb990006c1ee13fb6>@@@?$_Compressed_pair@V?$allocator@H@std@@V<lambda_e77f8b25be01beabb990006c1ee13fb6>@@$00@std@@QEAA@U_One_then_variadic_args_t@1@$$QEAV?$allocator@H@1@$$QEAV<lambda_e77f8b25be01beabb990006c1ee13fb6>@@@Z
	??$?0V?$allocator@U?$pair@$$CBUIndex@?$ofxLiquidEvent@$$CBVValue@Json@@@@V?$function@$$A6AXAEBVValue@Json@@@Z@std@@@std@@@std@@@?$_Wrap_alloc@V?$allocator@U?$_Tree_node@U?$pair@$$CBUIndex@?$ofxLiquidEvent@$$CBVValue@Json@@@@V?$function@$$A6AXAEBVValue@Json@@@Z@std@@@std@@PEAX@std@@@std@@@std@@QEAA@AEBV?$allocator@U?$pair@$$CBUIndex@?$ofxLiquidEvent@$$CBVValue@Json@@@@V?$function@$$A6AXAEBVValue@Json@@@Z@std@@@std@@@1@@Z
	??$?0V?$allocator@U?$pair@$$CBUIndex@?$ofxLiquidEvent@H@@V?$function@$$A6AXXZ@std@@@std@@@std@@@?$_Wrap_alloc@V?$allocator@U?$_Tree_node@U?$pair@$$CBUIndex@?$ofxLiquidEvent@H@@V?$function@$$A6AXXZ@std@@@std@@PEAX@std@@@std@@@std@@QEAA@AEBV?$allocator@U?$pair@$$CBUIndex@?$ofxLiquidEvent@H@@V?$function@$$A6AXXZ@std@@@std@@@1@@Z
	??$?0V?$allocator@U?$pair@$$CBUIndex@?$ofxLiquidEvent@UInspectArguments@ofxCvGui@@@@V?$function@$$A6AXAEAUInspectArguments@ofxCvGui@@@Z@std@@@std@@@std@@@?$_Wrap_alloc@V?$allocator@U?$_Tree_node@U?$pair@$$CBUIndex@?$ofxLiquidEvent@UInspectArguments@ofxCvGui@@@@V?$function@$$A6AXAEAUInspectArguments@ofxCvGui@@@Z@std@@@std@@PEAX@std@@@std@@@std@@QEAA@AEBV?$allocator@U?$pair@$$CBUIndex@?$ofxLiquidEvent@UInspectArguments@ofxCvGui@@@@V?$function@$$A6AXAEAUInspectArguments@ofxCvGui@@@Z@std@@@std@@@1@@Z
	??$?0V?$allocator@U?$pair@$$CBUIndex@?$ofxLiquidEvent@V?$shared_ptr@VAbstractPin@Graph@ofxRulr@@@std@@@@V?$function@$$A6AXAEAV?$shared_ptr@VAbstractPin@Graph@ofxRulr@@@std@@@Z@std@@@std@@@std@@@?$_Wrap_alloc@V?$allocator@U?$_Tree_node@U?$pair@$$CBUIndex@?$ofxLiquidEvent@V?$shared_ptr@VAbstractPin@Graph@ofxRulr@@@std@@@@V?$function@$$A6AXAEAV?$shared_ptr@VAbstractPin@Graph@ofxRulr@@@std@@@Z@std@@@std@@PEAX@std@@@std@@@std@@QEAA@AEBV?$allocator@U?$pair@$$CBUIndex@?$ofxLiquidEvent@V?$shared_ptr@VAbstractPin@Graph@ofxRulr@@@std@@@@V?$function@$$A6AXAEAV?$shared_ptr@VAbstractPin@Graph@ofxRulr@@@std@@@Z@std@@@std@@@1@@Z
	??$?0V?$allocator@U?$pair@$$CBUIndex@?$ofxLiquidEvent@VValue@Json@@@@V?$function@$$A6AXAEAVValue@Json@@@Z@std@@@std@@@std@@@?$_Wrap_alloc@V?$allocator@U?$_Tree_node@U?$pair@$$CBUIndex@?$ofxLiquidEvent@VValue@Json@@@@V?$function@$$A6AXAEAVValue@Json@@@Z@std@@@std@@PEAX@std@@@std@@@std@@QEAA@AEBV?$allocator@U?$pair@$$CBUIndex@?$ofxLiquidEvent@VValue@Json@@@@V?$function@$$A6AXAEAVValue@Json@@@Z@std@@@std@@@1@@Z
	??$?0V?$allocator@V?$shared_ptr@VAbstractPin@Graph@ofxRulr@@@std@@@std@@$$V@?$_Compressed_pair@U?$_Wrap_alloc@V?$allocator@V?$shared_ptr@VAbstractPin@Graph@ofxRulr@@@std@@@std@@@std@@V?$_Vector_val@U?$_Simple_types@V?$shared_ptr@VAbstractPin@Graph@ofxRulr@@@std@@@std@@@2@$00@std@@QEAA@U_One_then_variadic_args_t@1@$$QEAV?$allocator@V?$shared_ptr@VAbstractPin@Graph@ofxRulr@@@std@@@1@@Z
	??$?0V?$ofColor_@E@@@?$_Ref_count_obj@V?$ofColor_@E@@@std@@QEAA@$$QEAV?$ofColor_@E@@@Z
	??$?0V?$shared_ptr@VAbstractPin@Graph@ofxRulr@@@std@@@?$allocator@U_Container_proxy@std@@@std@@QEAA@AEBV?$allocator@V?$shared_ptr@VAbstractPin@Graph@ofxRulr@@@std@@@1@@Z
	??$?0VAbstractPin@Graph@ofxRulr@@@?$shared_ptr@VAbstractPin@Graph@ofxRulr@@@std@@QEAA@AEBV?$weak_ptr@VAbstractPin@Graph@ofxRulr@@@1@_N@Z
	??$?0VAbstractPin@Graph@ofxRulr@@X@?$weak_ptr@VAbstractPin@Graph@ofxRulr@@@std@@QEAA@AEBV?$shared_ptr@VAbstractPin@Graph@ofxRulr@@@1@@Z
	??$?0VButton@Widgets@ofxCvGui@@@?$shared_ptr@VButton@Widgets@ofxCvGui@@@std@@QEAA@PEAVButton@Widgets@ofxCvGui@@@Z
	??$?0VButton@Widgets@ofxCvGui@@X@?$shared_ptr@VElement@ofxCvGui@@@std@@QEAA@AEBV?$shared_ptr@VButton@Widgets@ofxCvGui@@@1@@Z
	??$?0VElement@ofxCvGui@@@?$shared_ptr@VElement@ofxCvGui@@@std@@QEAA@AEBV?$weak_ptr@VElement@ofxCvGui@@@1@_N@Z
	??$?0VIndicator@Widgets@ofxCvGui@@@?$shared_ptr@VIndicator@Widgets@ofxCvGui@@@std@@QEAA@PEAVIndicator@Widgets@ofxCvGui@@@Z
	??$?0VIndicator@Widgets@ofxCvGui@@X@?$shared_ptr@VElement@ofxCvGui@@@std@@QEAA@AEBV?$shared_ptr@VIndicator@Widgets@ofxCvGui@@@1@@Z
	??$?0VSpacer@Widgets@ofxCvGui@@@?$shared_ptr@VSpacer@Widgets@ofxCvGui@@@std@@QEAA@PEAVSpacer@Widgets@ofxCvGui@@@Z
	??$?0VSpacer@Widgets@ofxCvGui@@X@?$shared_ptr@VElement@ofxCvGui@@@std@@QEAA@AEBV?$shared_ptr@VSpacer@Widgets@ofxCvGui@@@1@@Z
	??$?0VTitle@Widgets@ofxCvGui@@@?$shared_ptr@VTitle@Widgets@ofxCvGui@@@std@@QEAA@PEAVTitle@Widgets@ofxCvGui@@@Z
	??$?0VTitle@Widgets@ofxCvGui@@X@?$shared_ptr@VElement@ofxCvGui@@@std@@QEAA@AEBV?$shared_ptr@VTitle@Widgets@ofxCvGui@@@1@@Z
	??$?0VTitle@Widgets@ofxCvGui@@X@?$weak_ptr@VElement@ofxCvGui@@@std@@QEAA@AEBV?$shared_ptr@VTitle@Widgets@ofxCvGui@@@1@@Z
	??$?6$$BY08D@ofLog@@QEAAAEAV0@AEAY08$$CBD@Z
	??$?6$$BY0BN@D@ofLog@@QEAAAEAV0@AEAY0BN@$$CBD@Z
	??$?6$$BY0CG@D@ofLog@@QEAAAEAV0@AEAY0CG@$$CBD@Z
	??$?6DU?$char_traits@D@std@@VAbstractPin@Graph@ofxRulr@@@std@@YAAEAV?$basic_ostream@DU?$char_traits@D@std@@@0@AEAV10@AEBV?$shared_ptr@VAbstractPin@Graph@ofxRulr@@@0@@Z
	??$?6PEBD@ofLog@@QEAAAEAV0@AEBQEBD@Z
	??$?6V?$shared_ptr@VAbstractPin@Graph@ofxRulr@@@std@@@ofLog@@QEAAAEAV0@AEBV?$shared_ptr@VAbstractPin@Graph@ofxRulr@@@std@@@Z
	??$?8V?$_Tree_iterator@V?$_Tree_val@U?$_Tree_simple_types@U?$pair@$$CBUIndex@?$ofxLiquidEvent@H@@V?$function@$$A6AXXZ@std@@@std@@@std@@@std@@@std@@V01@@std@@YA_NAEBV?$reverse_iterator@V?$_Tree_iterator@V?$_Tree_val@U?$_Tree_simple_types@U?$pair@$$CBUIndex@?$ofxLiquidEvent@H@@V?$function@$$A6AXXZ@std@@@std@@@std@@@std@@@std@@@0@0@Z
	??$?8VAbstractPin@Graph@ofxRulr@@V012@@std@@YA_NAEBV?$shared_ptr@VAbstractPin@Graph@ofxRulr@@@0@0@Z
	??$?9V?$_Tree_iterator@V?$_Tree_val@U?$_Tree_simple_types@U?$pair@$$CBUIndex@?$ofxLiquidEvent@H@@V?$function@$$A6AXXZ@std@@@std@@@std@@@std@@@std@@V01@@std@@YA_NAEBV?$reverse_iterator@V?$_Tree_iterator@V?$_Tree_val@U?$_Tree_simple_types@U?$pair@$$CBUIndex@?$ofxLiquidEvent@H@@V?$function@$$A6AXXZ@std@@@std@@@std@@@std@@@std@@@0@0@Z
	??$?HDU?$char_traits@D@std@@V?$allocator@D@1@@std@@YA?AV?$basic_string@DU?$char_traits@D@std@@V?$allocator@D@2@@0@$$QEAV10@0@Z
	??$?HDU?$char_traits@D@std@@V?$allocator@D@1@@std@@YA?AV?$basic_string@DU?$char_traits@D@std@@V?$allocator@D@2@@0@$$QEAV10@PEBD@Z
	??$_Addressof@$$CBV<lambda_224f972154009ce07fce020ee97da390>@@@std@@YAPEBV<lambda_224f972154009ce07fce020ee97da390>@@AEBV1@U?$integral_constant@_N$0A@@0@@Z
	??$_Addressof@$$CBV<lambda_3f0c0cc2dc2c270df32f5410d7922b45>@@@std@@YAPEBV<lambda_3f0c0cc2dc2c270df32f5410d7922b45>@@AEBV1@U?$integral_constant@_N$0A@@0@@Z
	??$_Addressof@$$CBV<lambda_4c58b929085e86163cd52e877c9c6f45>@@@std@@YAPEBV<lambda_4c58b929085e86163cd52e877c9c6f45>@@AEBV1@U?$integral_constant@_N$0A@@0@@Z
	??$_Addressof@$$CBV<lambda_7d9f195a84659425a41697390fba70cd>@@@std@@YAPEBV<lambda_7d9f195a84659425a41697390fba70cd>@@AEBV1@U?$integral_constant@_N$0A@@0@@Z
	??$_Addressof@$$CBV<lambda_803b1ba7fe072d17e44d74762d6426f9>@@@std@@YAPEBV<lambda_803b1ba7fe072d17e44d74762d6426f9>@@AEBV1@U?$integral_constant@_N$0A@@0@@Z
	??$_Addressof@$$CBV<lambda_88e5fe8ae475e6db1ed58f507cc891a3>@@@std@@YAPEBV<lambda_88e5fe8ae475e6db1ed58f507cc891a3>@@AEBV1@U?$integral_constant@_N$0A@@0@@Z
	??$_Addressof@$$CBV<lambda_c18f35e87dc7db20c98795776406a3db>@@@std@@YAPEBV<lambda_c18f35e87dc7db20c98795776406a3db>@@AEBV1@U?$integral_constant@_N$0A@@0@@Z
	??$_Addressof@$$CBV<lambda_e77f8b25be01beabb990006c1ee13fb6>@@@std@@YAPEBV<lambda_e77f8b25be01beabb990006c1ee13fb6>@@AEBV1@U?$integral_constant@_N$0A@@0@@Z
	??$_Addressof@$$CBV?$shared_ptr@VAbstractPin@Graph@ofxRulr@@@std@@@std@@YAPEBV?$shared_ptr@VAbstractPin@Graph@ofxRulr@@@0@AEBV10@U?$integral_constant@_N$0A@@0@@Z
	??$_Addressof@PEAU?$_Tree_node@U?$pair@$$CBUIndex@?$ofxLiquidEvent@$$CBVValue@Json@@@@V?$function@$$A6AXAEBVValue@Json@@@Z@std@@@std@@PEAX@std@@@std@@YAPEAPEAU?$_Tree_node@U?$pair@$$CBUIndex@?$ofxLiquidEvent@$$CBVValue@Json@@@@V?$function@$$A6AXAEBVValue@Json@@@Z@std@@@std@@PEAX@0@AEAPEAU10@U?$integral_constant@_N$0A@@0@@Z
	??$_Addressof@PEAU?$_Tree_node@U?$pair@$$CBUIndex@?$ofxLiquidEvent@H@@V?$function@$$A6AXXZ@std@@@std@@PEAX@std@@@std@@YAPEAPEAU?$_Tree_node@U?$pair@$$CBUIndex@?$ofxLiquidEvent@H@@V?$function@$$A6AXXZ@std@@@std@@PEAX@0@AEAPEAU10@U?$integral_constant@_N$0A@@0@@Z
	??$_Addressof@PEAU?$_Tree_node@U?$pair@$$CBUIndex@?$ofxLiquidEvent@UDrawArguments@ofxCvGui@@@@V?$function@$$A6AXAEAUDrawArguments@ofxCvGui@@@Z@std@@@std@@PEAX@std@@@std@@YAPEAPEAU?$_Tree_node@U?$pair@$$CBUIndex@?$ofxLiquidEvent@UDrawArguments@ofxCvGui@@@@V?$function@$$A6AXAEAUDrawArguments@ofxCvGui@@@Z@std@@@std@@PEAX@0@AEAPEAU10@U?$integral_constant@_N$0A@@0@@Z
	??$_Addressof@PEAU?$_Tree_node@U?$pair@$$CBUIndex@?$ofxLiquidEvent@UInspectArguments@ofxCvGui@@@@V?$function@$$A6AXAEAUInspectArguments@ofxCvGui@@@Z@std@@@std@@PEAX@std@@@std@@YAPEAPEAU?$_Tree_node@U?$pair@$$CBUIndex@?$ofxLiquidEvent@UInspectArguments@ofxCvGui@@@@V?$function@$$A6AXAEAUInspectArguments@ofxCvGui@@@Z@std@@@std@@PEAX@0@AEAPEAU10@U?$integral_constant@_N$0A@@0@@Z
	??$_Addressof@PEAU?$_Tree_node@U?$pair@$$CBUIndex@?$ofxLiquidEvent@V?$shared_ptr@VAbstractPin@Graph@ofxRulr@@@std@@@@V?$function@$$A6AXAEAV?$shared_ptr@VAbstractPin@Graph@ofxRulr@@@std@@@Z@std@@@std@@PEAX@std@@@std@@YAPEAPEAU?$_Tree_node@U?$pair@$$CBUIndex@?$ofxLiquidEvent@V?$shared_ptr@VAbstractPin@Graph@ofxRulr@@@std@@@@V?$function@$$A6AXAEAV?$shared_ptr@VAbstractPin@Graph@ofxRulr@@@std@@@Z@std@@@std@@PEAX@0@AEAPEAU10@U?$integral_constant@_N$0A@@0@@Z
	??$_Addressof@PEAU?$_Tree_node@U?$pair@$$CBUIndex@?$ofxLiquidEvent@V?$shared_ptr@VBase@Nodes@ofxRulr@@@std@@@@V?$function@$$A6AXAEAV?$shared_ptr@VBase@Nodes@ofxRulr@@@std@@@Z@std@@@std@@PEAX@std@@@std@@YAPEAPEAU?$_Tree_node@U?$pair@$$CBUIndex@?$ofxLiquidEvent@V?$shared_ptr@VBase@Nodes@ofxRulr@@@std@@@@V?$function@$$A6AXAEAV?$shared_ptr@VBase@Nodes@ofxRulr@@@std@@@Z@std@@@std@@PEAX@0@AEAPEAU10@U?$integral_constant@_N$0A@@0@@Z
	??$_Addressof@PEAU?$_Tree_node@U?$pair@$$CBUIndex@?$ofxLiquidEvent@VMouseArguments@ofxCvGui@@@@V?$function@$$A6AXAEAVMouseArguments@ofxCvGui@@@Z@std@@@std@@PEAX@std@@@std@@YAPEAPEAU?$_Tree_node@U?$pair@$$CBUIndex@?$ofxLiquidEvent@VMouseArguments@ofxCvGui@@@@V?$function@$$A6AXAEAVMouseArguments@ofxCvGui@@@Z@std@@@std@@PEAX@0@AEAPEAU10@U?$integral_constant@_N$0A@@0@@Z
	??$_Addressof@PEAU?$_Tree_node@U?$pair@$$CBUIndex@?$ofxLiquidEvent@VValue@Json@@@@V?$function@$$A6AXAEAVValue@Json@@@Z@std@@@std@@PEAX@std@@@std@@YAPEAPEAU?$_Tree_node@U?$pair@$$CBUIndex@?$ofxLiquidEvent@VValue@Json@@@@V?$function@$$A6AXAEAVValue@Json@@@Z@std@@@std@@PEAX@0@AEAPEAU10@U?$integral_constant@_N$0A@@0@@Z
	??$_Addressof@U?$pair@$$CBUIndex@?$ofxLiquidEvent@$$CBVValue@Json@@@@V?$function@$$A6AXAEBVValue@Json@@@Z@std@@@std@@@std@@YAPEAU?$pair@$$CBUIndex@?$ofxLiquidEvent@$$CBVValue@Json@@@@V?$function@$$A6AXAEBVValue@Json@@@Z@std@@@0@AEAU10@U?$integral_constant@_N$0A@@0@@Z
	??$_Addressof@U?$pair@$$CBUIndex@?$ofxLiquidEvent@H@@V?$function@$$A6AXXZ@std@@@std@@@std@@YAPEAU?$pair@$$CBUIndex@?$ofxLiquidEvent@H@@V?$function@$$A6AXXZ@std@@@0@AEAU10@U?$integral_constant@_N$0A@@0@@Z
	??$_Addressof@U?$pair@$$CBUIndex@?$ofxLiquidEvent@UDrawArguments@ofxCvGui@@@@V?$function@$$A6AXAEAUDrawArguments@ofxCvGui@@@Z@std@@@std@@@std@@YAPEAU?$pair@$$CBUIndex@?$ofxLiquidEvent@UDrawArguments@ofxCvGui@@@@V?$function@$$A6AXAEAUDrawArguments@ofxCvGui@@@Z@std@@@0@AEAU10@U?$integral_constant@_N$0A@@0@@Z
	??$_Addressof@U?$pair@$$CBUIndex@?$ofxLiquidEvent@UInspectArguments@ofxCvGui@@@@V?$function@$$A6AXAEAUInspectArguments@ofxCvGui@@@Z@std@@@std@@@std@@YAPEAU?$pair@$$CBUIndex@?$ofxLiquidEvent@UInspectArguments@ofxCvGui@@@@V?$function@$$A6AXAEAUInspectArguments@ofxCvGui@@@Z@std@@@0@AEAU10@U?$integral_constant@_N$0A@@0@@Z
	??$_Addressof@U?$pair@$$CBUIndex@?$ofxLiquidEvent@V?$shared_ptr@VAbstractPin@Graph@ofxRulr@@@std@@@@V?$function@$$A6AXAEAV?$shared_ptr@VAbstractPin@Graph@ofxRulr@@@std@@@Z@std@@@std@@@std@@YAPEAU?$pair@$$CBUIndex@?$ofxLiquidEvent@V?$shared_ptr@VAbstractPin@Graph@ofxRulr@@@std@@@@V?$function@$$A6AXAEAV?$shared_ptr@VAbstractPin@Graph@ofxRulr@@@std@@@Z@std@@@0@AEAU10@U?$integral_constant@_N$0A@@0@@Z
	??$_Addressof@U?$pair@$$CBUIndex@?$ofxLiquidEvent@V?$shared_ptr@VBase@Nodes@ofxRulr@@@std@@@@V?$function@$$A6AXAEAV?$shared_ptr@VBase@Nodes@ofxRulr@@@std@@@Z@std@@@std@@@std@@YAPEAU?$pair@$$CBUIndex@?$ofxLiquidEvent@V?$shared_ptr@VBase@Nodes@ofxRulr@@@std@@@@V?$function@$$A6AXAEAV?$shared_ptr@VBase@Nodes@ofxRulr@@@std@@@Z@std@@@0@AEAU10@U?$integral_constant@_N$0A@@0@@Z
	??$_Addressof@U?$pair@$$CBUIndex@?$ofxLiquidEvent@VMouseArguments@ofxCvGui@@@@V?$function@$$A6AXAEAVMouseArguments@ofxCvGui@@@Z@std@@@std@@@std@@YAPEAU?$pair@$$CBUIndex@?$ofxLiquidEvent@VMouseArguments@ofxCvGui@@@@V?$function@$$A6AXAEAVMouseArguments@ofxCvGui@@@Z@std@@@0@AEAU10@U?$integral_constant@_N$0A@@0@@Z
	??$_Addressof@U?$pair@$$CBUIndex@?$ofxLiquidEvent@VValue@Json@@@@V?$function@$$A6AXAEAVValue@Json@@@Z@std@@@std@@@std@@YAPEAU?$pair@$$CBUIndex@?$ofxLiquidEvent@VValue@Json@@@@V?$function@$$A6AXAEAVValue@Json@@@Z@std@@@0@AEAU10@U?$integral_constant@_N$0A@@0@@Z
	??$_Addressof@V?$shared_ptr@VAbstractPin@Graph@ofxRulr@@@std@@@std@@YAPEAV?$shared_ptr@VAbstractPin@Graph@ofxRulr@@@0@AEAV10@U?$integral_constant@_N$0A@@0@@Z
	??$_Buynode@U?$pair@UIndex@?$ofxLiquidEvent@UDrawArguments@ofxCvGui@@@@V?$function@$$A6AXAEAUDrawArguments@ofxCvGui@@@Z@std@@@std@@@?$_Tree_comp_alloc@V?$_Tmap_traits@UIndex@?$ofxLiquidEvent@UDrawArguments@ofxCvGui@@@@V?$function@$$A6AXAEAUDrawArguments@ofxCvGui@@@Z@std@@U?$less@UIndex@?$ofxLiquidEvent@UDrawArguments@ofxCvGui@@@@@4@V?$allocator@U?$pair@$$CBUIndex@?$ofxLiquidEvent@UDrawArguments@ofxCvGui@@@@V?$function@$$A6AXAEAUDrawArguments@ofxCvGui@@@Z@std@@@std@@@4@$0A@@std@@@std@@QEAAPEAU?$_Tree_node@U?$pair@$$CBUIndex@?$ofxLiquidEvent@UDrawArguments@ofxCvGui@@@@V?$function@$$A6AXAEAUDrawArguments@ofxCvGui@@@Z@std@@@std@@PEAX@1@$$QEAU?$pair@UIndex@?$ofxLiquidEvent@UDrawArguments@ofxCvGui@@@@V?$function@$$A6AXAEAUDrawArguments@ofxCvGui@@@Z@std@@@1@@Z
	??$_Buynode@U?$pair@UIndex@?$ofxLiquidEvent@UInspectArguments@ofxCvGui@@@@V?$function@$$A6AXAEAUInspectArguments@ofxCvGui@@@Z@std@@@std@@@?$_Tree_comp_alloc@V?$_Tmap_traits@UIndex@?$ofxLiquidEvent@UInspectArguments@ofxCvGui@@@@V?$function@$$A6AXAEAUInspectArguments@ofxCvGui@@@Z@std@@U?$less@UIndex@?$ofxLiquidEvent@UInspectArguments@ofxCvGui@@@@@4@V?$allocator@U?$pair@$$CBUIndex@?$ofxLiquidEvent@UInspectArguments@ofxCvGui@@@@V?$function@$$A6AXAEAUInspectArguments@ofxCvGui@@@Z@std@@@std@@@4@$0A@@std@@@std@@QEAAPEAU?$_Tree_node@U?$pair@$$CBUIndex@?$ofxLiquidEvent@UInspectArguments@ofxCvGui@@@@V?$function@$$A6AXAEAUInspectArguments@ofxCvGui@@@Z@std@@@std@@PEAX@1@$$QEAU?$pair@UIndex@?$ofxLiquidEvent@UInspectArguments@ofxCvGui@@@@V?$function@$$A6AXAEAUInspectArguments@ofxCvGui@@@Z@std@@@1@@Z
	??$_Buynode@U?$pair@UIndex@?$ofxLiquidEvent@V?$shared_ptr@VBase@Nodes@ofxRulr@@@std@@@@V?$function@$$A6AXAEAV?$shared_ptr@VBase@Nodes@ofxRulr@@@std@@@Z@std@@@std@@@?$_Tree_comp_alloc@V?$_Tmap_traits@UIndex@?$ofxLiquidEvent@V?$shared_ptr@VBase@Nodes@ofxRulr@@@std@@@@V?$function@$$A6AXAEAV?$shared_ptr@VBase@Nodes@ofxRulr@@@std@@@Z@std@@U?$less@UIndex@?$ofxLiquidEvent@V?$shared_ptr@VBase@Nodes@ofxRulr@@@std@@@@@4@V?$allocator@U?$pair@$$CBUIndex@?$ofxLiquidEvent@V?$shared_ptr@VBase@Nodes@ofxRulr@@@std@@@@V?$function@$$A6AXAEAV?$shared_ptr@VBase@Nodes@ofxRulr@@@std@@@Z@std@@@std@@@4@$0A@@std@@@std@@QEAAPEAU?$_Tree_node@U?$pair@$$CBUIndex@?$ofxLiquidEvent@V?$shared_ptr@VBase@Nodes@ofxRulr@@@std@@@@V?$function@$$A6AXAEAV?$shared_ptr@VBase@Nodes@ofxRulr@@@std@@@Z@std@@@std@@PEAX@1@$$QEAU?$pair@UIndex@?$ofxLiquidEvent@V?$shared_ptr@VBase@Nodes@ofxRulr@@@std@@@@V?$function@$$A6AXAEAV?$shared_ptr@VBase@Nodes@ofxRulr@@@std@@@Z@std@@@1@@Z
	??$_Buynode@U?$pair@UIndex@?$ofxLiquidEvent@VMouseArguments@ofxCvGui@@@@V?$function@$$A6AXAEAVMouseArguments@ofxCvGui@@@Z@std@@@std@@@?$_Tree_comp_alloc@V?$_Tmap_traits@UIndex@?$ofxLiquidEvent@VMouseArguments@ofxCvGui@@@@V?$function@$$A6AXAEAVMouseArguments@ofxCvGui@@@Z@std@@U?$less@UIndex@?$ofxLiquidEvent@VMouseArguments@ofxCvGui@@@@@4@V?$allocator@U?$pair@$$CBUIndex@?$ofxLiquidEvent@VMouseArguments@ofxCvGui@@@@V?$function@$$A6AXAEAVMouseArguments@ofxCvGui@@@Z@std@@@std@@@4@$0A@@std@@@std@@QEAAPEAU?$_Tree_node@U?$pair@$$CBUIndex@?$ofxLiquidEvent@VMouseArguments@ofxCvGui@@@@V?$function@$$A6AXAEAVMouseArguments@ofxCvGui@@@Z@std@@@std@@PEAX@1@$$QEAU?$pair@UIndex@?$ofxLiquidEvent@VMouseArguments@ofxCvGui@@@@V?$function@$$A6AXAEAVMouseArguments@ofxCvGui@@@Z@std@@@1@@Z
	??$_Buynode_if_nil@AEAU?$pair@$$CBUIndex@?$ofxLiquidEvent@UDrawArguments@ofxCvGui@@@@V?$function@$$A6AXAEAUDrawArguments@ofxCvGui@@@Z@std@@@std@@@?$_Tree@V?$_Tmap_traits@UIndex@?$ofxLiquidEvent@UDrawArguments@ofxCvGui@@@@V?$function@$$A6AXAEAUDrawArguments@ofxCvGui@@@Z@std@@U?$less@UIndex@?$ofxLiquidEvent@UDrawArguments@ofxCvGui@@@@@4@V?$allocator@U?$pair@$$CBUIndex@?$ofxLiquidEvent@UDrawArguments@ofxCvGui@@@@V?$function@$$A6AXAEAUDrawArguments@ofxCvGui@@@Z@std@@@std@@@4@$0A@@std@@@std@@IEAAPEAU?$_Tree_node@U?$pair@$$CBUIndex@?$ofxLiquidEvent@UDrawArguments@ofxCvGui@@@@V?$function@$$A6AXAEAUDrawArguments@ofxCvGui@@@Z@std@@@std@@PEAX@1@PEAU21@AEAU?$pair@$$CBUIndex@?$ofxLiquidEvent@UDrawArguments@ofxCvGui@@@@V?$function@$$A6AXAEAUDrawArguments@ofxCvGui@@@Z@std@@@1@@Z
	??$_Buynode_if_nil@AEAU?$pair@$$CBUIndex@?$ofxLiquidEvent@UInspectArguments@ofxCvGui@@@@V?$function@$$A6AXAEAUInspectArguments@ofxCvGui@@@Z@std@@@std@@@?$_Tree@V?$_Tmap_traits@UIndex@?$ofxLiquidEvent@UInspectArguments@ofxCvGui@@@@V?$function@$$A6AXAEAUInspectArguments@ofxCvGui@@@Z@std@@U?$less@UIndex@?$ofxLiquidEvent@UInspectArguments@ofxCvGui@@@@@4@V?$allocator@U?$pair@$$CBUIndex@?$ofxLiquidEvent@UInspectArguments@ofxCvGui@@@@V?$function@$$A6AXAEAUInspectArguments@ofxCvGui@@@Z@std@@@std@@@4@$0A@@std@@@std@@IEAAPEAU?$_Tree_node@U?$pair@$$CBUIndex@?$ofxLiquidEvent@UInspectArguments@ofxCvGui@@@@V?$function@$$A6AXAEAUInspectArguments@ofxCvGui@@@Z@std@@@std@@PEAX@1@PEAU21@AEAU?$pair@$$CBUIndex@?$ofxLiquidEvent@UInspectArguments@ofxCvGui@@@@V?$function@$$A6AXAEAUInspectArguments@ofxCvGui@@@Z@std@@@1@@Z
	??$_Buynode_if_nil@AEAU?$pair@$$CBUIndex@?$ofxLiquidEvent@V?$shared_ptr@VBase@Nodes@ofxRulr@@@std@@@@V?$function@$$A6AXAEAV?$shared_ptr@VBase@Nodes@ofxRulr@@@std@@@Z@std@@@std@@@?$_Tree@V?$_Tmap_traits@UIndex@?$ofxLiquidEvent@V?$shared_ptr@VBase@Nodes@ofxRulr@@@std@@@@V?$function@$$A6AXAEAV?$shared_ptr@VBase@Nodes@ofxRulr@@@std@@@Z@std@@U?$less@UIndex@?$ofxLiquidEvent@V?$shared_ptr@VBase@Nodes@ofxRulr@@@std@@@@@4@V?$allocator@U?$pair@$$CBUIndex@?$ofxLiquidEvent@V?$shared_ptr@VBase@Nodes@ofxRulr@@@std@@@@V?$function@$$A6AXAEAV?$shared_ptr@VBase@Nodes@ofxRulr@@@std@@@Z@std@@@std@@@4@$0A@@std@@@std@@IEAAPEAU?$_Tree_node@U?$pair@$$CBUIndex@?$ofxLiquidEvent@V?$shared_ptr@VBase@Nodes@ofxRulr@@@std@@@@V?$function@$$A6AXAEAV?$shared_ptr@VBase@Nodes@ofxRulr@@@std@@@Z@std@@@std@@PEAX@1@PEAU21@AEAU?$pair@$$CBUIndex@?$ofxLiquidEvent@V?$shared_ptr@VBase@Nodes@ofxRulr@@@std@@@@V?$function@$$A6AXAEAV?$shared_ptr@VBase@Nodes@ofxRulr@@@std@@@Z@std@@@1@@Z
	??$_Buynode_if_nil@AEAU?$pair@$$CBUIndex@?$ofxLiquidEvent@VMouseArguments@ofxCvGui@@@@V?$function@$$A6AXAEAVMouseArguments@ofxCvGui@@@Z@std@@@std@@@?$_Tree@V?$_Tmap_traits@UIndex@?$ofxLiquidEvent@VMouseArguments@ofxCvGui@@@@V?$function@$$A6AXAEAVMouseArguments@ofxCvGui@@@Z@std@@U?$less@UIndex@?$ofxLiquidEvent@VMouseArguments@ofxCvGui@@@@@4@V?$allocator@U?$pair@$$CBUIndex@?$ofxLiquidEvent@VMouseArguments@ofxCvGui@@@@V?$function@$$A6AXAEAVMouseArguments@ofxCvGui@@@Z@std@@@std@@@4@$0A@@std@@@std@@IEAAPEAU?$_Tree_node@U?$pair@$$CBUIndex@?$ofxLiquidEvent@VMouseArguments@ofxCvGui@@@@V?$function@$$A6AXAEAVMouseArguments@ofxCvGui@@@Z@std@@@std@@PEAX@1@PEAU21@AEAU?$pair@$$CBUIndex@?$ofxLiquidEvent@VMouseArguments@ofxCvGui@@@@V?$function@$$A6AXAEAVMouseArguments@ofxCvGui@@@Z@std@@@1@@Z
	??$_Call@AEAV<lambda_224f972154009ce07fce020ee97da390>@@AEAUDrawArguments@ofxCvGui@@@_Invoker_functor@std@@SAXAEAV<lambda_224f972154009ce07fce020ee97da390>@@AEAUDrawArguments@ofxCvGui@@@Z
	??$_Call@AEAV<lambda_3f0c0cc2dc2c270df32f5410d7922b45>@@AEAUInspectArguments@ofxCvGui@@@_Invoker_functor@std@@SAXAEAV<lambda_3f0c0cc2dc2c270df32f5410d7922b45>@@AEAUInspectArguments@ofxCvGui@@@Z
	??$_Call@AEAV<lambda_4c58b929085e86163cd52e877c9c6f45>@@AEAV?$shared_ptr@VBase@Nodes@ofxRulr@@@std@@@_Invoker_functor@std@@SAXAEAV<lambda_4c58b929085e86163cd52e877c9c6f45>@@AEAV?$shared_ptr@VBase@Nodes@ofxRulr@@@1@@Z
	??$_Call@AEAV<lambda_7d9f195a84659425a41697390fba70cd>@@$$V@_Invoker_functor@std@@SA?AW4Status@Indicator@Widgets@ofxCvGui@@AEAV<lambda_7d9f195a84659425a41697390fba70cd>@@@Z
	??$_Call@AEAV<lambda_803b1ba7fe072d17e44d74762d6426f9>@@AEAV?$shared_ptr@VBase@Nodes@ofxRulr@@@std@@@_Invoker_functor@std@@SAXAEAV<lambda_803b1ba7fe072d17e44d74762d6426f9>@@AEAV?$shared_ptr@VBase@Nodes@ofxRulr@@@1@@Z
	??$_Call@AEAV<lambda_88e5fe8ae475e6db1ed58f507cc891a3>@@$$V@_Invoker_functor@std@@SAXAEAV<lambda_88e5fe8ae475e6db1ed58f507cc891a3>@@@Z
	??$_Call@AEAV<lambda_c18f35e87dc7db20c98795776406a3db>@@AEAVMouseArguments@ofxCvGui@@@_Invoker_functor@std@@SAXAEAV<lambda_c18f35e87dc7db20c98795776406a3db>@@AEAVMouseArguments@ofxCvGui@@@Z
	??$_Call@AEAV<lambda_e77f8b25be01beabb990006c1ee13fb6>@@$$V@_Invoker_functor@std@@SAXAEAV<lambda_e77f8b25be01beabb990006c1ee13fb6>@@@Z
	??$_Clone@X@?$_Func_impl@V<lambda_224f972154009ce07fce020ee97da390>@@V?$allocator@H@std@@XAEAUDrawArguments@ofxCvGui@@@std@@AEBAPEAV?$_Func_base@XAEAUDrawArguments@ofxCvGui@@@1@PEAXU?$integral_constant@_N$0A@@1@@Z
	??$_Clone@X@?$_Func_impl@V<lambda_3f0c0cc2dc2c270df32f5410d7922b45>@@V?$allocator@H@std@@XAEAUInspectArguments@ofxCvGui@@@std@@AEBAPEAV?$_Func_base@XAEAUInspectArguments@ofxCvGui@@@1@PEAXU?$integral_constant@_N$0A@@1@@Z
	??$_Clone@X@?$_Func_impl@V<lambda_4c58b929085e86163cd52e877c9c6f45>@@V?$allocator@H@std@@XAEAV?$shared_ptr@VBase@Nodes@ofxRulr@@@3@@std@@AEBAPEAV?$_Func_base@XAEAV?$shared_ptr@VBase@Nodes@ofxRulr@@@std@@@1@PEAXU?$integral_constant@_N$0A@@1@@Z
	??$_Clone@X@?$_Func_impl@V<lambda_7d9f195a84659425a41697390fba70cd>@@V?$allocator@H@std@@W4Status@Indicator@Widgets@ofxCvGui@@$$V@std@@AEBAPEAV?$_Func_base@W4Status@Indicator@Widgets@ofxCvGui@@$$V@1@PEAXU?$integral_constant@_N$0A@@1@@Z
	??$_Clone@X@?$_Func_impl@V<lambda_803b1ba7fe072d17e44d74762d6426f9>@@V?$allocator@H@std@@XAEAV?$shared_ptr@VBase@Nodes@ofxRulr@@@3@@std@@AEBAPEAV?$_Func_base@XAEAV?$shared_ptr@VBase@Nodes@ofxRulr@@@std@@@1@PEAXU?$integral_constant@_N$0A@@1@@Z
	??$_Clone@X@?$_Func_impl@V<lambda_88e5fe8ae475e6db1ed58f507cc891a3>@@V?$allocator@H@std@@X$$V@std@@AEBAPEAV?$_Func_base@X$$V@1@PEAXU?$integral_constant@_N$0A@@1@@Z
	??$_Clone@X@?$_Func_impl@V<lambda_c18f35e87dc7db20c98795776406a3db>@@V?$allocator@H@std@@XAEAVMouseArguments@ofxCvGui@@@std@@AEBAPEAV?$_Func_base@XAEAVMouseArguments@ofxCvGui@@@1@PEAXU?$integral_constant@_N$0A@@1@@Z
	??$_Clone@X@?$_Func_impl@V<lambda_e77f8b25be01beabb990006c1ee13fb6>@@V?$allocator@H@std@@X$$V@std@@AEBAPEAV?$_Func_base@X$$V@1@PEAXU?$integral_constant@_N$0A@@1@@Z
	??$_Debug_lt_pred@U?$less@UIndex@?$ofxLiquidEvent@UDrawArguments@ofxCvGui@@@@@std@@AEBUIndex@?$ofxLiquidEvent@UDrawArguments@ofxCvGui@@@@AEBU34@@std@@YA_NU?$less@UIndex@?$ofxLiquidEvent@UDrawArguments@ofxCvGui@@@@@0@AEBUIndex@?$ofxLiquidEvent@UDrawArguments@ofxCvGui@@@@1PEB_WI@Z
	??$_Debug_lt_pred@U?$less@UIndex@?$ofxLiquidEvent@UInspectArguments@ofxCvGui@@@@@std@@AEBUIndex@?$ofxLiquidEvent@UInspectArguments@ofxCvGui@@@@AEBU34@@std@@YA_NU?$less@UIndex@?$ofxLiquidEvent@UInspectArguments@ofxCvGui@@@@@0@AEBUIndex@?$ofxLiquidEvent@UInspectArguments@ofxCvGui@@@@1PEB_WI@Z
	??$_Debug_lt_pred@U?$less@UIndex@?$ofxLiquidEvent@V?$shared_ptr@VBase@Nodes@ofxRulr@@@std@@@@@std@@AEBUIndex@?$ofxLiquidEvent@V?$shared_ptr@VBase@Nodes@ofxRulr@@@std@@@@AEBU34@@std@@YA_NU?$less@UIndex@?$ofxLiquidEvent@V?$shared_ptr@VBase@Nodes@ofxRulr@@@std@@@@@0@AEBUIndex@?$ofxLiquidEvent@V?$shared_ptr@VBase@Nodes@ofxRulr@@@std@@@@1PEB_WI@Z
	??$_Debug_lt_pred@U?$less@UIndex@?$ofxLiquidEvent@VMouseArguments@ofxCvGui@@@@@std@@AEBUIndex@?$ofxLiquidEvent@VMouseArguments@ofxCvGui@@@@AEBU34@@std@@YA_NU?$less@UIndex@?$ofxLiquidEvent@VMouseArguments@ofxCvGui@@@@@0@AEBUIndex@?$ofxLiquidEvent@VMouseArguments@ofxCvGui@@@@1PEB_WI@Z
	??$_Debug_pointer@$$CBV?$shared_ptr@VAbstractPin@Graph@ofxRulr@@@std@@@std@@YAXPEBV?$shared_ptr@VAbstractPin@Graph@ofxRulr@@@0@PEB_WI@Z
	??$_Debug_pointer@V?$_Vector_iterator@V?$_Vector_val@U?$_Simple_types@V?$shared_ptr@VAbstractPin@Graph@ofxRulr@@@std@@@std@@@std@@@std@@@std@@YAXAEAV?$_Vector_iterator@V?$_Vector_val@U?$_Simple_types@V?$shared_ptr@VAbstractPin@Graph@ofxRulr@@@std@@@std@@@std@@@0@PEB_WI@Z
	??$_Debug_pointer@V?$shared_ptr@VAbstractPin@Graph@ofxRulr@@@std@@@std@@YAXPEAV?$shared_ptr@VAbstractPin@Graph@ofxRulr@@@0@PEB_WI@Z
	??$_Debug_range2@V?$_Vector_iterator@V?$_Vector_val@U?$_Simple_types@V?$shared_ptr@VAbstractPin@Graph@ofxRulr@@@std@@@std@@@std@@@std@@@std@@YAXV?$_Vector_iterator@V?$_Vector_val@U?$_Simple_types@V?$shared_ptr@VAbstractPin@Graph@ofxRulr@@@std@@@std@@@std@@@0@0PEB_WIUrandom_access_iterator_tag@0@@Z
	??$_Debug_range@V?$_Vector_iterator@V?$_Vector_val@U?$_Simple_types@V?$shared_ptr@VAbstractPin@Graph@ofxRulr@@@std@@@std@@@std@@@std@@@std@@YAXV?$_Vector_iterator@V?$_Vector_val@U?$_Simple_types@V?$shared_ptr@VAbstractPin@Graph@ofxRulr@@@std@@@std@@@std@@@0@0PEB_WI@Z
	??$_Debug_range_ptr2@PEAV?$shared_ptr@VAbstractPin@Graph@ofxRulr@@@std@@PEAV12@@std@@YAXPEAV?$shared_ptr@VAbstractPin@Graph@ofxRulr@@@0@0AEAPEAV10@PEB_WIUrandom_access_iterator_tag@0@@Z
	??$_Debug_range_ptr2@PEBV?$shared_ptr@VAbstractPin@Graph@ofxRulr@@@std@@PEAV12@@std@@YAXPEBV?$shared_ptr@VAbstractPin@Graph@ofxRulr@@@0@0AEAPEAV10@PEB_WIUrandom_access_iterator_tag@0@@Z
	??$_Debug_range_ptr@PEAV?$shared_ptr@VAbstractPin@Graph@ofxRulr@@@std@@PEAV12@@std@@YAXPEAV?$shared_ptr@VAbstractPin@Graph@ofxRulr@@@0@0AEAPEAV10@PEB_WI@Z
	??$_Debug_range_ptr@PEBV?$shared_ptr@VAbstractPin@Graph@ofxRulr@@@std@@PEAV12@@std@@YAXPEBV?$shared_ptr@VAbstractPin@Graph@ofxRulr@@@0@0AEAPEAV10@PEB_WI@Z
	??$_Destroy_range@U?$_Wrap_alloc@V?$allocator@V?$shared_ptr@VAbstractPin@Graph@ofxRulr@@@std@@@std@@@std@@@std@@YAXPEAV?$shared_ptr@VAbstractPin@Graph@ofxRulr@@@0@0AEAU?$_Wrap_alloc@V?$allocator@V?$shared_ptr@VAbstractPin@Graph@ofxRulr@@@std@@@std@@@0@@Z
	??$_Destroy_range@U?$_Wrap_alloc@V?$allocator@V?$shared_ptr@VAbstractPin@Graph@ofxRulr@@@std@@@std@@@std@@@std@@YAXPEAV?$shared_ptr@VAbstractPin@Graph@ofxRulr@@@0@0AEAU?$_Wrap_alloc@V?$allocator@V?$shared_ptr@VAbstractPin@Graph@ofxRulr@@@std@@@std@@@0@U_Nonscalar_ptr_iterator_tag@0@@Z
	??$_Find@PEAV?$shared_ptr@VAbstractPin@Graph@ofxRulr@@@std@@V12@@std@@YAPEAV?$shared_ptr@VAbstractPin@Graph@ofxRulr@@@0@PEAV10@0AEBV10@@Z
	??$_Find@PEAV?$shared_ptr@VAbstractPin@Graph@ofxRulr@@@std@@V12@@std@@YAPEAV?$shared_ptr@VAbstractPin@Graph@ofxRulr@@@0@PEAV10@0AEBV10@U?$integral_constant@_N$0A@@0@@Z
	??$_Insert_at@AEAU?$pair@$$CBUIndex@?$ofxLiquidEvent@UDrawArguments@ofxCvGui@@@@V?$function@$$A6AXAEAUDrawArguments@ofxCvGui@@@Z@std@@@std@@PEAU?$_Tree_node@U?$pair@$$CBUIndex@?$ofxLiquidEvent@UDrawArguments@ofxCvGui@@@@V?$function@$$A6AXAEAUDrawArguments@ofxCvGui@@@Z@std@@@std@@PEAX@2@@?$_Tree@V?$_Tmap_traits@UIndex@?$ofxLiquidEvent@UDrawArguments@ofxCvGui@@@@V?$function@$$A6AXAEAUDrawArguments@ofxCvGui@@@Z@std@@U?$less@UIndex@?$ofxLiquidEvent@UDrawArguments@ofxCvGui@@@@@4@V?$allocator@U?$pair@$$CBUIndex@?$ofxLiquidEvent@UDrawArguments@ofxCvGui@@@@V?$function@$$A6AXAEAUDrawArguments@ofxCvGui@@@Z@std@@@std@@@4@$0A@@std@@@std@@IEAA?AV?$_Tree_iterator@V?$_Tree_val@U?$_Tree_simple_types@U?$pair@$$CBUIndex@?$ofxLiquidEvent@UDrawArguments@ofxCvGui@@@@V?$function@$$A6AXAEAUDrawArguments@ofxCvGui@@@Z@std@@@std@@@std@@@std@@@1@_NPEAU?$_Tree_node@U?$pair@$$CBUIndex@?$ofxLiquidEvent@UDrawArguments@ofxCvGui@@@@V?$function@$$A6AXAEAUDrawArguments@ofxCvGui@@@Z@std@@@std@@PEAX@1@AEAU?$pair@$$CBUIndex@?$ofxLiquidEvent@UDrawArguments@ofxCvGui@@@@V?$function@$$A6AXAEAUDrawArguments@ofxCvGui@@@Z@std@@@1@1@Z
	??$_Insert_at@AEAU?$pair@$$CBUIndex@?$ofxLiquidEvent@UInspectArguments@ofxCvGui@@@@V?$function@$$A6AXAEAUInspectArguments@ofxCvGui@@@Z@std@@@std@@PEAU?$_Tree_node@U?$pair@$$CBUIndex@?$ofxLiquidEvent@UInspectArguments@ofxCvGui@@@@V?$function@$$A6AXAEAUInspectArguments@ofxCvGui@@@Z@std@@@std@@PEAX@2@@?$_Tree@V?$_Tmap_traits@UIndex@?$ofxLiquidEvent@UInspectArguments@ofxCvGui@@@@V?$function@$$A6AXAEAUInspectArguments@ofxCvGui@@@Z@std@@U?$less@UIndex@?$ofxLiquidEvent@UInspectArguments@ofxCvGui@@@@@4@V?$allocator@U?$pair@$$CBUIndex@?$ofxLiquidEvent@UInspectArguments@ofxCvGui@@@@V?$function@$$A6AXAEAUInspectArguments@ofxCvGui@@@Z@std@@@std@@@4@$0A@@std@@@std@@IEAA?AV?$_Tree_iterator@V?$_Tree_val@U?$_Tree_simple_types@U?$pair@$$CBUIndex@?$ofxLiquidEvent@UInspectArguments@ofxCvGui@@@@V?$function@$$A6AXAEAUInspectArguments@ofxCvGui@@@Z@std@@@std@@@std@@@std@@@1@_NPEAU?$_Tree_node@U?$pair@$$CBUIndex@?$ofxLiquidEvent@UInspectArguments@ofxCvGui@@@@V?$function@$$A6AXAEAUInspectArguments@ofxCvGui@@@Z@std@@@std@@PEAX@1@AEAU?$pair@$$CBUIndex@?$ofxLiquidEvent@UInspectArguments@ofxCvGui@@@@V?$function@$$A6AXAEAUInspectArguments@ofxCvGui@@@Z@std@@@1@1@Z
	??$_Insert_at@AEAU?$pair@$$CBUIndex@?$ofxLiquidEvent@V?$shared_ptr@VBase@Nodes@ofxRulr@@@std@@@@V?$function@$$A6AXAEAV?$shared_ptr@VBase@Nodes@ofxRulr@@@std@@@Z@std@@@std@@PEAU?$_Tree_node@U?$pair@$$CBUIndex@?$ofxLiquidEvent@V?$shared_ptr@VBase@Nodes@ofxRulr@@@std@@@@V?$function@$$A6AXAEAV?$shared_ptr@VBase@Nodes@ofxRulr@@@std@@@Z@std@@@std@@PEAX@2@@?$_Tree@V?$_Tmap_traits@UIndex@?$ofxLiquidEvent@V?$shared_ptr@VBase@Nodes@ofxRulr@@@std@@@@V?$function@$$A6AXAEAV?$shared_ptr@VBase@Nodes@ofxRulr@@@std@@@Z@std@@U?$less@UIndex@?$ofxLiquidEvent@V?$shared_ptr@VBase@Nodes@ofxRulr@@@std@@@@@4@V?$allocator@U?$pair@$$CBUIndex@?$ofxLiquidEvent@V?$shared_ptr@VBase@Nodes@ofxRulr@@@std@@@@V?$function@$$A6AXAEAV?$shared_ptr@VBase@Nodes@ofxRulr@@@std@@@Z@std@@@std@@@4@$0A@@std@@@std@@IEAA?AV?$_Tree_iterator@V?$_Tree_val@U?$_Tree_simple_types@U?$pair@$$CBUIndex@?$ofxLiquidEvent@V?$shared_ptr@VBase@Nodes@ofxRulr@@@std@@@@V?$function@$$A6AXAEAV?$shared_ptr@VBase@Nodes@ofxRulr@@@std@@@Z@std@@@std@@@std@@@std@@@1@_NPEAU?$_Tree_node@U?$pair@$$CBUIndex@?$ofxLiquidEvent@V?$shared_ptr@VBase@Nodes@ofxRulr@@@std@@@@V?$function@$$A6AXAEAV?$shared_ptr@VBase@Nodes@ofxRulr@@@std@@@Z@std@@@std@@PEAX@1@AEAU?$pair@$$CBUIndex@?$ofxLiquidEvent@V?$shared_ptr@VBase@Nodes@ofxRulr@@@std@@@@V?$function@$$A6AXAEAV?$shared_ptr@VBase@Nodes@ofxRulr@@@std@@@Z@std@@@1@1@Z
	??$_Insert_at@AEAU?$pair@$$CBUIndex@?$ofxLiquidEvent@VMouseArguments@ofxCvGui@@@@V?$function@$$A6AXAEAVMouseArguments@ofxCvGui@@@Z@std@@@std@@PEAU?$_Tree_node@U?$pair@$$CBUIndex@?$ofxLiquidEvent@VMouseArguments@ofxCvGui@@@@V?$function@$$A6AXAEAVMouseArguments@ofxCvGui@@@Z@std@@@std@@PEAX@2@@?$_Tree@V?$_Tmap_traits@UIndex@?$ofxLiquidEvent@VMouseArguments@ofxCvGui@@@@V?$function@$$A6AXAEAVMouseArguments@ofxCvGui@@@Z@std@@U?$less@UIndex@?$ofxLiquidEvent@VMouseArguments@ofxCvGui@@@@@4@V?$allocator@U?$pair@$$CBUIndex@?$ofxLiquidEvent@VMouseArguments@ofxCvGui@@@@V?$function@$$A6AXAEAVMouseArguments@ofxCvGui@@@Z@std@@@std@@@4@$0A@@std@@@std@@IEAA?AV?$_Tree_iterator@V?$_Tree_val@U?$_Tree_simple_types@U?$pair@$$CBUIndex@?$ofxLiquidEvent@VMouseArguments@ofxCvGui@@@@V?$function@$$A6AXAEAVMouseArguments@ofxCvGui@@@Z@std@@@std@@@std@@@std@@@1@_NPEAU?$_Tree_node@U?$pair@$$CBUIndex@?$ofxLiquidEvent@VMouseArguments@ofxCvGui@@@@V?$function@$$A6AXAEAVMouseArguments@ofxCvGui@@@Z@std@@@std@@PEAX@1@AEAU?$pair@$$CBUIndex@?$ofxLiquidEvent@VMouseArguments@ofxCvGui@@@@V?$function@$$A6AXAEAVMouseArguments@ofxCvGui@@@Z@std@@@1@1@Z
	??$_Insert_nohint@AEAU?$pair@$$CBUIndex@?$ofxLiquidEvent@UDrawArguments@ofxCvGui@@@@V?$function@$$A6AXAEAUDrawArguments@ofxCvGui@@@Z@std@@@std@@PEAU?$_Tree_node@U?$pair@$$CBUIndex@?$ofxLiquidEvent@UDrawArguments@ofxCvGui@@@@V?$function@$$A6AXAEAUDrawArguments@ofxCvGui@@@Z@std@@@std@@PEAX@2@@?$_Tree@V?$_Tmap_traits@UIndex@?$ofxLiquidEvent@UDrawArguments@ofxCvGui@@@@V?$function@$$A6AXAEAUDrawArguments@ofxCvGui@@@Z@std@@U?$less@UIndex@?$ofxLiquidEvent@UDrawArguments@ofxCvGui@@@@@4@V?$allocator@U?$pair@$$CBUIndex@?$ofxLiquidEvent@UDrawArguments@ofxCvGui@@@@V?$function@$$A6AXAEAUDrawArguments@ofxCvGui@@@Z@std@@@std@@@4@$0A@@std@@@std@@IEAA?AU?$pair@V?$_Tree_iterator@V?$_Tree_val@U?$_Tree_simple_types@U?$pair@$$CBUIndex@?$ofxLiquidEvent@UDrawArguments@ofxCvGui@@@@V?$function@$$A6AXAEAUDrawArguments@ofxCvGui@@@Z@std@@@std@@@std@@@std@@@std@@_N@1@_NAEAU?$pair@$$CBUIndex@?$ofxLiquidEvent@UDrawArguments@ofxCvGui@@@@V?$function@$$A6AXAEAUDrawArguments@ofxCvGui@@@Z@std@@@1@PEAU?$_Tree_node@U?$pair@$$CBUIndex@?$ofxLiquidEvent@UDrawArguments@ofxCvGui@@@@V?$function@$$A6AXAEAUDrawArguments@ofxCvGui@@@Z@std@@@std@@PEAX@1@@Z
	??$_Insert_nohint@AEAU?$pair@$$CBUIndex@?$ofxLiquidEvent@UInspectArguments@ofxCvGui@@@@V?$function@$$A6AXAEAUInspectArguments@ofxCvGui@@@Z@std@@@std@@PEAU?$_Tree_node@U?$pair@$$CBUIndex@?$ofxLiquidEvent@UInspectArguments@ofxCvGui@@@@V?$function@$$A6AXAEAUInspectArguments@ofxCvGui@@@Z@std@@@std@@PEAX@2@@?$_Tree@V?$_Tmap_traits@UIndex@?$ofxLiquidEvent@UInspectArguments@ofxCvGui@@@@V?$function@$$A6AXAEAUInspectArguments@ofxCvGui@@@Z@std@@U?$less@UIndex@?$ofxLiquidEvent@UInspectArguments@ofxCvGui@@@@@4@V?$allocator@U?$pair@$$CBUIndex@?$ofxLiquidEvent@UInspectArguments@ofxCvGui@@@@V?$function@$$A6AXAEAUInspectArguments@ofxCvGui@@@Z@std@@@std@@@4@$0A@@std@@@std@@IEAA?AU?$pair@V?$_Tree_iterator@V?$_Tree_val@U?$_Tree_simple_types@U?$pair@$$CBUIndex@?$ofxLiquidEvent@UInspectArguments@ofxCvGui@@@@V?$function@$$A6AXAEAUInspectArguments@ofxCvGui@@@Z@std@@@std@@@std@@@std@@@std@@_N@1@_NAEAU?$pair@$$CBUIndex@?$ofxLiquidEvent@UInspectArguments@ofxCvGui@@@@V?$function@$$A6AXAEAUInspectArguments@ofxCvGui@@@Z@std@@@1@PEAU?$_Tree_node@U?$pair@$$CBUIndex@?$ofxLiquidEvent@UInspectArguments@ofxCvGui@@@@V?$function@$$A6AXAEAUInspectArguments@ofxCvGui@@@Z@std@@@std@@PEAX@1@@Z
	??$_Insert_nohint@AEAU?$pair@$$CBUIndex@?$ofxLiquidEvent@V?$shared_ptr@VBase@Nodes@ofxRulr@@@std@@@@V?$function@$$A6AXAEAV?$shared_ptr@VBase@Nodes@ofxRulr@@@std@@@Z@std@@@std@@PEAU?$_Tree_node@U?$pair@$$CBUIndex@?$ofxLiquidEvent@V?$shared_ptr@VBase@Nodes@ofxRulr@@@std@@@@V?$function@$$A6AXAEAV?$shared_ptr@VBase@Nodes@ofxRulr@@@std@@@Z@std@@@std@@PEAX@2@@?$_Tree@V?$_Tmap_traits@UIndex@?$ofxLiquidEvent@V?$shared_ptr@VBase@Nodes@ofxRulr@@@std@@@@V?$function@$$A6AXAEAV?$shared_ptr@VBase@Nodes@ofxRulr@@@std@@@Z@std@@U?$less@UIndex@?$ofxLiquidEvent@V?$shared_ptr@VBase@Nodes@ofxRulr@@@std@@@@@4@V?$allocator@U?$pair@$$CBUIndex@?$ofxLiquidEvent@V?$shared_ptr@VBase@Nodes@ofxRulr@@@std@@@@V?$function@$$A6AXAEAV?$shared_ptr@VBase@Nodes@ofxRulr@@@std@@@Z@std@@@std@@@4@$0A@@std@@@std@@IEAA?AU?$pair@V?$_Tree_iterator@V?$_Tree_val@U?$_Tree_simple_types@U?$pair@$$CBUIndex@?$ofxLiquidEvent@V?$shared_ptr@VBase@Nodes@ofxRulr@@@std@@@@V?$function@$$A6AXAEAV?$shared_ptr@VBase@Nodes@ofxRulr@@@std@@@Z@std@@@std@@@std@@@std@@@std@@_N@1@_NAEAU?$pair@$$CBUIndex@?$ofxLiquidEvent@V?$shared_ptr@VBase@Nodes@ofxRulr@@@std@@@@V?$function@$$A6AXAEAV?$shared_ptr@VBase@Nodes@ofxRulr@@@std@@@Z@std@@@1@PEAU?$_Tree_node@U?$pair@$$CBUIndex@?$ofxLiquidEvent@V?$shared_ptr@VBase@Nodes@ofxRulr@@@std@@@@V?$function@$$A6AXAEAV?$shared_ptr@VBase@Nodes@ofxRulr@@@std@@@Z@std@@@std@@PEAX@1@@Z
	??$_Insert_nohint@AEAU?$pair@$$CBUIndex@?$ofxLiquidEvent@VMouseArguments@ofxCvGui@@@@V?$function@$$A6AXAEAVMouseArguments@ofxCvGui@@@Z@std@@@std@@PEAU?$_Tree_node@U?$pair@$$CBUIndex@?$ofxLiquidEvent@VMouseArguments@ofxCvGui@@@@V?$function@$$A6AXAEAVMouseArguments@ofxCvGui@@@Z@std@@@std@@PEAX@2@@?$_Tree@V?$_Tmap_traits@UIndex@?$ofxLiquidEvent@VMouseArguments@ofxCvGui@@@@V?$function@$$A6AXAEAVMouseArguments@ofxCvGui@@@Z@std@@U?$less@UIndex@?$ofxLiquidEvent@VMouseArguments@ofxCvGui@@@@@4@V?$allocator@U?$pair@$$CBUIndex@?$ofxLiquidEvent@VMouseArguments@ofxCvGui@@@@V?$function@$$A6AXAEAVMouseArguments@ofxCvGui@@@Z@std@@@std@@@4@$0A@@std@@@std@@IEAA?AU?$pair@V?$_Tree_iterator@V?$_Tree_val@U?$_Tree_simple_types@U?$pair@$$CBUIndex@?$ofxLiquidEvent@VMouseArguments@ofxCvGui@@@@V?$function@$$A6AXAEAVMouseArguments@ofxCvGui@@@Z@std@@@std@@@std@@@std@@@std@@_N@1@_NAEAU?$pair@$$CBUIndex@?$ofxLiquidEvent@VMouseArguments@ofxCvGui@@@@V?$function@$$A6AXAEAVMouseArguments@ofxCvGui@@@Z@std@@@1@PEAU?$_Tree_node@U?$pair@$$CBUIndex@?$ofxLiquidEvent@VMouseArguments@ofxCvGui@@@@V?$function@$$A6AXAEAVMouseArguments@ofxCvGui@@@Z@std@@@std@@PEAX@1@@Z
	??$_Invoke_ret@W4Status@Indicator@Widgets@ofxCvGui@@AEAV<lambda_7d9f195a84659425a41697390fba70cd>@@@std@@YA?AW4Status@Indicator@Widgets@ofxCvGui@@U?$_Forced@W4Status@Indicator@Widgets@ofxCvGui@@$0A@@0@AEAV<lambda_7d9f195a84659425a41697390fba70cd>@@@Z
	??$_Invoke_ret@XAEAV<lambda_224f972154009ce07fce020ee97da390>@@AEAUDrawArguments@ofxCvGui@@@std@@YAXU?$_Forced@X$00@0@AEAV<lambda_224f972154009ce07fce020ee97da390>@@AEAUDrawArguments@ofxCvGui@@@Z
	??$_Invoke_ret@XAEAV<lambda_3f0c0cc2dc2c270df32f5410d7922b45>@@AEAUInspectArguments@ofxCvGui@@@std@@YAXU?$_Forced@X$00@0@AEAV<lambda_3f0c0cc2dc2c270df32f5410d7922b45>@@AEAUInspectArguments@ofxCvGui@@@Z
	??$_Invoke_ret@XAEAV<lambda_4c58b929085e86163cd52e877c9c6f45>@@AEAV?$shared_ptr@VBase@Nodes@ofxRulr@@@std@@@std@@YAXU?$_Forced@X$00@0@AEAV<lambda_4c58b929085e86163cd52e877c9c6f45>@@AEAV?$shared_ptr@VBase@Nodes@ofxRulr@@@0@@Z
	??$_Invoke_ret@XAEAV<lambda_803b1ba7fe072d17e44d74762d6426f9>@@AEAV?$shared_ptr@VBase@Nodes@ofxRulr@@@std@@@std@@YAXU?$_Forced@X$00@0@AEAV<lambda_803b1ba7fe072d17e44d74762d6426f9>@@AEAV?$shared_ptr@VBase@Nodes@ofxRulr@@@0@@Z
	??$_Invoke_ret@XAEAV<lambda_88e5fe8ae475e6db1ed58f507cc891a3>@@@std@@YAXU?$_Forced@X$00@0@AEAV<lambda_88e5fe8ae475e6db1ed58f507cc891a3>@@@Z
	??$_Invoke_ret@XAEAV<lambda_c18f35e87dc7db20c98795776406a3db>@@AEAVMouseArguments@ofxCvGui@@@std@@YAXU?$_Forced@X$00@0@AEAV<lambda_c18f35e87dc7db20c98795776406a3db>@@AEAVMouseArguments@ofxCvGui@@@Z
	??$_Invoke_ret@XAEAV<lambda_e77f8b25be01beabb990006c1ee13fb6>@@@std@@YAXU?$_Forced@X$00@0@AEAV<lambda_e77f8b25be01beabb990006c1ee13fb6>@@@Z
	??$_Iter_cat@PEAV?$shared_ptr@VAbstractPin@Graph@ofxRulr@@@std@@@std@@YA?AUrandom_access_iterator_tag@0@AEBQEAV?$shared_ptr@VAbstractPin@Graph@ofxRulr@@@0@@Z
	??$_Iter_cat@PEBV?$shared_ptr@VAbstractPin@Graph@ofxRulr@@@std@@@std@@YA?AUrandom_access_iterator_tag@0@AEBQEBV?$shared_ptr@VAbstractPin@Graph@ofxRulr@@@0@@Z
	??$_Iter_cat@V?$_Vector_iterator@V?$_Vector_val@U?$_Simple_types@V?$shared_ptr@VAbstractPin@Graph@ofxRulr@@@std@@@std@@@std@@@std@@@std@@YA?AUrandom_access_iterator_tag@0@AEBV?$_Vector_iterator@V?$_Vector_val@U?$_Simple_types@V?$shared_ptr@VAbstractPin@Graph@ofxRulr@@@std@@@std@@@std@@@0@@Z
	??$_Kfn@$$CBUIndex@?$ofxLiquidEvent@UDrawArguments@ofxCvGui@@@@V?$function@$$A6AXAEAUDrawArguments@ofxCvGui@@@Z@std@@@?$_Tmap_traits@UIndex@?$ofxLiquidEvent@UDrawArguments@ofxCvGui@@@@V?$function@$$A6AXAEAUDrawArguments@ofxCvGui@@@Z@std@@U?$less@UIndex@?$ofxLiquidEvent@UDrawArguments@ofxCvGui@@@@@4@V?$allocator@U?$pair@$$CBUIndex@?$ofxLiquidEvent@UDrawArguments@ofxCvGui@@@@V?$function@$$A6AXAEAUDrawArguments@ofxCvGui@@@Z@std@@@std@@@4@$0A@@std@@SAAEBUIndex@?$ofxLiquidEvent@UDrawArguments@ofxCvGui@@@@AEBU?$pair@$$CBUIndex@?$ofxLiquidEvent@UDrawArguments@ofxCvGui@@@@V?$function@$$A6AXAEAUDrawArguments@ofxCvGui@@@Z@std@@@1@@Z
	??$_Kfn@$$CBUIndex@?$ofxLiquidEvent@UInspectArguments@ofxCvGui@@@@V?$function@$$A6AXAEAUInspectArguments@ofxCvGui@@@Z@std@@@?$_Tmap_traits@UIndex@?$ofxLiquidEvent@UInspectArguments@ofxCvGui@@@@V?$function@$$A6AXAEAUInspectArguments@ofxCvGui@@@Z@std@@U?$less@UIndex@?$ofxLiquidEvent@UInspectArguments@ofxCvGui@@@@@4@V?$allocator@U?$pair@$$CBUIndex@?$ofxLiquidEvent@UInspectArguments@ofxCvGui@@@@V?$function@$$A6AXAEAUInspectArguments@ofxCvGui@@@Z@std@@@std@@@4@$0A@@std@@SAAEBUIndex@?$ofxLiquidEvent@UInspectArguments@ofxCvGui@@@@AEBU?$pair@$$CBUIndex@?$ofxLiquidEvent@UInspectArguments@ofxCvGui@@@@V?$function@$$A6AXAEAUInspectArguments@ofxCvGui@@@Z@std@@@1@@Z
	??$_Kfn@$$CBUIndex@?$ofxLiquidEvent@V?$shared_ptr@VBase@Nodes@ofxRulr@@@std@@@@V?$function@$$A6AXAEAV?$shared_ptr@VBase@Nodes@ofxRulr@@@std@@@Z@std@@@?$_Tmap_traits@UIndex@?$ofxLiquidEvent@V?$shared_ptr@VBase@Nodes@ofxRulr@@@std@@@@V?$function@$$A6AXAEAV?$shared_ptr@VBase@Nodes@ofxRulr@@@std@@@Z@std@@U?$less@UIndex@?$ofxLiquidEvent@V?$shared_ptr@VBase@Nodes@ofxRulr@@@std@@@@@4@V?$allocator@U?$pair@$$CBUIndex@?$ofxLiquidEvent@V?$shared_ptr@VBase@Nodes@ofxRulr@@@std@@@@V?$function@$$A6AXAEAV?$shared_ptr@VBase@Nodes@ofxRulr@@@std@@@Z@std@@@std@@@4@$0A@@std@@SAAEBUIndex@?$ofxLiquidEvent@V?$shared_ptr@VBase@Nodes@ofxRulr@@@std@@@@AEBU?$pair@$$CBUIndex@?$ofxLiquidEvent@V?$shared_ptr@VBase@Nodes@ofxRulr@@@std@@@@V?$function@$$A6AXAEAV?$shared_ptr@VBase@Nodes@ofxRulr@@@std@@@Z@std@@@1@@Z
	??$_Kfn@$$CBUIndex@?$ofxLiquidEvent@VMouseArguments@ofxCvGui@@@@V?$function@$$A6AXAEAVMouseArguments@ofxCvGui@@@Z@std@@@?$_Tmap_traits@UIndex@?$ofxLiquidEvent@VMouseArguments@ofxCvGui@@@@V?$function@$$A6AXAEAVMouseArguments@ofxCvGui@@@Z@std@@U?$less@UIndex@?$ofxLiquidEvent@VMouseArguments@ofxCvGui@@@@@4@V?$allocator@U?$pair@$$CBUIndex@?$ofxLiquidEvent@VMouseArguments@ofxCvGui@@@@V?$function@$$A6AXAEAVMouseArguments@ofxCvGui@@@Z@std@@@std@@@4@$0A@@std@@SAAEBUIndex@?$ofxLiquidEvent@VMouseArguments@ofxCvGui@@@@AEBU?$pair@$$CBUIndex@?$ofxLiquidEvent@VMouseArguments@ofxCvGui@@@@V?$function@$$A6AXAEAVMouseArguments@ofxCvGui@@@Z@std@@@1@@Z
	??$_Lbound@UIndex@?$ofxLiquidEvent@UDrawArguments@ofxCvGui@@@@@?$_Tree@V?$_Tmap_traits@UIndex@?$ofxLiquidEvent@UDrawArguments@ofxCvGui@@@@V?$function@$$A6AXAEAUDrawArguments@ofxCvGui@@@Z@std@@U?$less@UIndex@?$ofxLiquidEvent@UDrawArguments@ofxCvGui@@@@@4@V?$allocator@U?$pair@$$CBUIndex@?$ofxLiquidEvent@UDrawArguments@ofxCvGui@@@@V?$function@$$A6AXAEAUDrawArguments@ofxCvGui@@@Z@std@@@std@@@4@$0A@@std@@@std@@IEBAPEAU?$_Tree_node@U?$pair@$$CBUIndex@?$ofxLiquidEvent@UDrawArguments@ofxCvGui@@@@V?$function@$$A6AXAEAUDrawArguments@ofxCvGui@@@Z@std@@@std@@PEAX@1@AEBUIndex@?$ofxLiquidEvent@UDrawArguments@ofxCvGui@@@@@Z
	??$_Lbound@UIndex@?$ofxLiquidEvent@UInspectArguments@ofxCvGui@@@@@?$_Tree@V?$_Tmap_traits@UIndex@?$ofxLiquidEvent@UInspectArguments@ofxCvGui@@@@V?$function@$$A6AXAEAUInspectArguments@ofxCvGui@@@Z@std@@U?$less@UIndex@?$ofxLiquidEvent@UInspectArguments@ofxCvGui@@@@@4@V?$allocator@U?$pair@$$CBUIndex@?$ofxLiquidEvent@UInspectArguments@ofxCvGui@@@@V?$function@$$A6AXAEAUInspectArguments@ofxCvGui@@@Z@std@@@std@@@4@$0A@@std@@@std@@IEBAPEAU?$_Tree_node@U?$pair@$$CBUIndex@?$ofxLiquidEvent@UInspectArguments@ofxCvGui@@@@V?$function@$$A6AXAEAUInspectArguments@ofxCvGui@@@Z@std@@@std@@PEAX@1@AEBUIndex@?$ofxLiquidEvent@UInspectArguments@ofxCvGui@@@@@Z
	??$_Lbound@UIndex@?$ofxLiquidEvent@V?$shared_ptr@VBase@Nodes@ofxRulr@@@std@@@@@?$_Tree@V?$_Tmap_traits@UIndex@?$ofxLiquidEvent@V?$shared_ptr@VBase@Nodes@ofxRulr@@@std@@@@V?$function@$$A6AXAEAV?$shared_ptr@VBase@Nodes@ofxRulr@@@std@@@Z@std@@U?$less@UIndex@?$ofxLiquidEvent@V?$shared_ptr@VBase@Nodes@ofxRulr@@@std@@@@@4@V?$allocator@U?$pair@$$CBUIndex@?$ofxLiquidEvent@V?$shared_ptr@VBase@Nodes@ofxRulr@@@std@@@@V?$function@$$A6AXAEAV?$shared_ptr@VBase@Nodes@ofxRulr@@@std@@@Z@std@@@std@@@4@$0A@@std@@@std@@IEBAPEAU?$_Tree_node@U?$pair@$$CBUIndex@?$ofxLiquidEvent@V?$shared_ptr@VBase@Nodes@ofxRulr@@@std@@@@V?$function@$$A6AXAEAV?$shared_ptr@VBase@Nodes@ofxRulr@@@std@@@Z@std@@@std@@PEAX@1@AEBUIndex@?$ofxLiquidEvent@V?$shared_ptr@VBase@Nodes@ofxRulr@@@std@@@@@Z
	??$_Lbound@UIndex@?$ofxLiquidEvent@VMouseArguments@ofxCvGui@@@@@?$_Tree@V?$_Tmap_traits@UIndex@?$ofxLiquidEvent@VMouseArguments@ofxCvGui@@@@V?$function@$$A6AXAEAVMouseArguments@ofxCvGui@@@Z@std@@U?$less@UIndex@?$ofxLiquidEvent@VMouseArguments@ofxCvGui@@@@@4@V?$allocator@U?$pair@$$CBUIndex@?$ofxLiquidEvent@VMouseArguments@ofxCvGui@@@@V?$function@$$A6AXAEAVMouseArguments@ofxCvGui@@@Z@std@@@std@@@4@$0A@@std@@@std@@IEBAPEAU?$_Tree_node@U?$pair@$$CBUIndex@?$ofxLiquidEvent@VMouseArguments@ofxCvGui@@@@V?$function@$$A6AXAEAVMouseArguments@ofxCvGui@@@Z@std@@@std@@PEAX@1@AEBUIndex@?$ofxLiquidEvent@VMouseArguments@ofxCvGui@@@@@Z
	??$_Move@AEAPEAV?$ofColor_@E@@@std@@YA$$QEAPEAV?$ofColor_@E@@AEAPEAV1@@Z
	??$_Move@AEAPEAVAbstractPin@Graph@ofxRulr@@@std@@YA$$QEAPEAVAbstractPin@Graph@ofxRulr@@AEAPEAV123@@Z
	??$_Move@AEAPEAVGraphics@Nodes@ofxRulr@@@std@@YA$$QEAPEAVGraphics@Nodes@ofxRulr@@AEAPEAV123@@Z
	??$_Move@PEAV?$shared_ptr@VAbstractPin@Graph@ofxRulr@@@std@@PEAV12@@std@@YAPEAV?$shared_ptr@VAbstractPin@Graph@ofxRulr@@@0@PEAV10@00@Z
	??$_Move@PEAV?$shared_ptr@VAbstractPin@Graph@ofxRulr@@@std@@PEAV12@@std@@YAPEAV?$shared_ptr@VAbstractPin@Graph@ofxRulr@@@0@PEAV10@00U_Nonscalar_ptr_iterator_tag@0@@Z
	??$_Ptr_cat@V?$shared_ptr@VAbstractPin@Graph@ofxRulr@@@std@@V12@@std@@YA?AU_Nonscalar_ptr_iterator_tag@0@PEAV?$shared_ptr@VAbstractPin@Graph@ofxRulr@@@0@0@Z
	??$_Ptr_cat@V?$shared_ptr@VAbstractPin@Graph@ofxRulr@@@std@@V12@@std@@YA?AU_Nonscalar_ptr_iterator_tag@0@PEBV?$shared_ptr@VAbstractPin@Graph@ofxRulr@@@0@PEAV20@@Z
	??$_Rechecked@PEAV?$shared_ptr@VAbstractPin@Graph@ofxRulr@@@std@@PEAV12@@std@@YAAEAPEAV?$shared_ptr@VAbstractPin@Graph@ofxRulr@@@0@AEAPEAV10@PEAV10@@Z
	??$_Rechecked@V?$_Vector_val@U?$_Simple_types@V?$shared_ptr@VAbstractPin@Graph@ofxRulr@@@std@@@std@@@std@@@std@@YAAEAV?$_Vector_iterator@V?$_Vector_val@U?$_Simple_types@V?$shared_ptr@VAbstractPin@Graph@ofxRulr@@@std@@@std@@@std@@@0@AEAV10@PEAV?$shared_ptr@VAbstractPin@Graph@ofxRulr@@@0@@Z
	??$_Reset@V<lambda_224f972154009ce07fce020ee97da390>@@@?$_Func_class@XAEAUDrawArguments@ofxCvGui@@@std@@IEAAX$$QEAV<lambda_224f972154009ce07fce020ee97da390>@@@Z
	??$_Reset@V<lambda_3f0c0cc2dc2c270df32f5410d7922b45>@@@?$_Func_class@XAEAUInspectArguments@ofxCvGui@@@std@@IEAAX$$QEAV<lambda_3f0c0cc2dc2c270df32f5410d7922b45>@@@Z
	??$_Reset@V<lambda_4c58b929085e86163cd52e877c9c6f45>@@@?$_Func_class@XAEAV?$shared_ptr@VBase@Nodes@ofxRulr@@@std@@@std@@IEAAX$$QEAV<lambda_4c58b929085e86163cd52e877c9c6f45>@@@Z
	??$_Reset@V<lambda_7d9f195a84659425a41697390fba70cd>@@@?$_Func_class@W4Status@Indicator@Widgets@ofxCvGui@@$$V@std@@IEAAX$$QEAV<lambda_7d9f195a84659425a41697390fba70cd>@@@Z
	??$_Reset@V<lambda_803b1ba7fe072d17e44d74762d6426f9>@@@?$_Func_class@XAEAV?$shared_ptr@VBase@Nodes@ofxRulr@@@std@@@std@@IEAAX$$QEAV<lambda_803b1ba7fe072d17e44d74762d6426f9>@@@Z
	??$_Reset@V<lambda_88e5fe8ae475e6db1ed58f507cc891a3>@@@?$_Func_class@X$$V@std@@IEAAX$$QEAV<lambda_88e5fe8ae475e6db1ed58f507cc891a3>@@@Z
	??$_Reset@V<lambda_c18f35e87dc7db20c98795776406a3db>@@@?$_Func_class@XAEAVMouseArguments@ofxCvGui@@@std@@IEAAX$$QEAV<lambda_c18f35e87dc7db20c98795776406a3db>@@@Z
	??$_Reset@V<lambda_e77f8b25be01beabb990006c1ee13fb6>@@@?$_Func_class@X$$V@std@@IEAAX$$QEAV<lambda_e77f8b25be01beabb990006c1ee13fb6>@@@Z
	??$_Reset@VAbstractPin@Graph@ofxRulr@@@?$_Ptr_base@VAbstractPin@Graph@ofxRulr@@@std@@QEAAXAEBV01@@Z
	??$_Reset@VAbstractPin@Graph@ofxRulr@@@?$_Ptr_base@VAbstractPin@Graph@ofxRulr@@@std@@QEAAXAEBV01@_N@Z
	??$_Reset@VButton@Widgets@ofxCvGui@@@?$_Ptr_base@VElement@ofxCvGui@@@std@@QEAAXAEBV?$_Ptr_base@VButton@Widgets@ofxCvGui@@@1@@Z
	??$_Reset@VElement@ofxCvGui@@@?$_Ptr_base@VElement@ofxCvGui@@@std@@QEAAXAEBV01@_N@Z
	??$_Reset@VGraphics@Nodes@ofxRulr@@@?$_Ptr_base@VGraphics@Nodes@ofxRulr@@@std@@QEAAXAEBV01@@Z
	??$_Reset@VIndicator@Widgets@ofxCvGui@@@?$_Ptr_base@VElement@ofxCvGui@@@std@@QEAAXAEBV?$_Ptr_base@VIndicator@Widgets@ofxCvGui@@@1@@Z
	??$_Reset@VInspector@Panels@ofxCvGui@@@?$_Ptr_base@VInspector@Panels@ofxCvGui@@@std@@QEAAXAEBV01@@Z
	??$_Reset@VSpacer@Widgets@ofxCvGui@@@?$_Ptr_base@VElement@ofxCvGui@@@std@@QEAAXAEBV?$_Ptr_base@VSpacer@Widgets@ofxCvGui@@@1@@Z
	??$_Reset@VTitle@Widgets@ofxCvGui@@@?$_Ptr_base@VElement@ofxCvGui@@@std@@QEAAXAEBV?$_Ptr_base@VTitle@Widgets@ofxCvGui@@@1@@Z
	??$_Reset_alloc@V<lambda_224f972154009ce07fce020ee97da390>@@V?$allocator@H@std@@@?$_Func_class@XAEAUDrawArguments@ofxCvGui@@@std@@IEAAX$$QEAV<lambda_224f972154009ce07fce020ee97da390>@@AEBV?$allocator@H@1@@Z
	??$_Reset_alloc@V<lambda_3f0c0cc2dc2c270df32f5410d7922b45>@@V?$allocator@H@std@@@?$_Func_class@XAEAUInspectArguments@ofxCvGui@@@std@@IEAAX$$QEAV<lambda_3f0c0cc2dc2c270df32f5410d7922b45>@@AEBV?$allocator@H@1@@Z
	??$_Reset_alloc@V<lambda_4c58b929085e86163cd52e877c9c6f45>@@V?$allocator@H@std@@@?$_Func_class@XAEAV?$shared_ptr@VBase@Nodes@ofxRulr@@@std@@@std@@IEAAX$$QEAV<lambda_4c58b929085e86163cd52e877c9c6f45>@@AEBV?$allocator@H@1@@Z
	??$_Reset_alloc@V<lambda_7d9f195a84659425a41697390fba70cd>@@V?$allocator@H@std@@@?$_Func_class@W4Status@Indicator@Widgets@ofxCvGui@@$$V@std@@IEAAX$$QEAV<lambda_7d9f195a84659425a41697390fba70cd>@@AEBV?$allocator@H@1@@Z
	??$_Reset_alloc@V<lambda_803b1ba7fe072d17e44d74762d6426f9>@@V?$allocator@H@std@@@?$_Func_class@XAEAV?$shared_ptr@VBase@Nodes@ofxRulr@@@std@@@std@@IEAAX$$QEAV<lambda_803b1ba7fe072d17e44d74762d6426f9>@@AEBV?$allocator@H@1@@Z
	??$_Reset_alloc@V<lambda_88e5fe8ae475e6db1ed58f507cc891a3>@@V?$allocator@H@std@@@?$_Func_class@X$$V@std@@IEAAX$$QEAV<lambda_88e5fe8ae475e6db1ed58f507cc891a3>@@AEBV?$allocator@H@1@@Z
	??$_Reset_alloc@V<lambda_c18f35e87dc7db20c98795776406a3db>@@V?$allocator@H@std@@@?$_Func_class@XAEAVMouseArguments@ofxCvGui@@@std@@IEAAX$$QEAV<lambda_c18f35e87dc7db20c98795776406a3db>@@AEBV?$allocator@H@1@@Z
	??$_Reset_alloc@V<lambda_e77f8b25be01beabb990006c1ee13fb6>@@V?$allocator@H@std@@@?$_Func_class@X$$V@std@@IEAAX$$QEAV<lambda_e77f8b25be01beabb990006c1ee13fb6>@@AEBV?$allocator@H@1@@Z
	??$_Reset_impl@V<lambda_224f972154009ce07fce020ee97da390>@@V?$allocator@H@std@@V?$_Func_impl@V<lambda_224f972154009ce07fce020ee97da390>@@V?$allocator@H@std@@XAEAUDrawArguments@ofxCvGui@@@3@U?$_Wrap_alloc@V?$allocator@V?$_Func_impl@V<lambda_224f972154009ce07fce020ee97da390>@@V?$allocator@H@std@@XAEAUDrawArguments@ofxCvGui@@@std@@@std@@@3@@?$_Func_class@XAEAUDrawArguments@ofxCvGui@@@std@@IEAAX$$QEAV<lambda_224f972154009ce07fce020ee97da390>@@AEBV?$allocator@H@1@PEAV?$_Func_impl@V<lambda_224f972154009ce07fce020ee97da390>@@V?$allocator@H@std@@XAEAUDrawArguments@ofxCvGui@@@1@AEAU?$_Wrap_alloc@V?$allocator@V?$_Func_impl@V<lambda_224f972154009ce07fce020ee97da390>@@V?$allocator@H@std@@XAEAUDrawArguments@ofxCvGui@@@std@@@std@@@1@U?$integral_constant@_N$0A@@1@@Z
	??$_Reset_impl@V<lambda_3f0c0cc2dc2c270df32f5410d7922b45>@@V?$allocator@H@std@@V?$_Func_impl@V<lambda_3f0c0cc2dc2c270df32f5410d7922b45>@@V?$allocator@H@std@@XAEAUInspectArguments@ofxCvGui@@@3@U?$_Wrap_alloc@V?$allocator@V?$_Func_impl@V<lambda_3f0c0cc2dc2c270df32f5410d7922b45>@@V?$allocator@H@std@@XAEAUInspectArguments@ofxCvGui@@@std@@@std@@@3@@?$_Func_class@XAEAUInspectArguments@ofxCvGui@@@std@@IEAAX$$QEAV<lambda_3f0c0cc2dc2c270df32f5410d7922b45>@@AEBV?$allocator@H@1@PEAV?$_Func_impl@V<lambda_3f0c0cc2dc2c270df32f5410d7922b45>@@V?$allocator@H@std@@XAEAUInspectArguments@ofxCvGui@@@1@AEAU?$_Wrap_alloc@V?$allocator@V?$_Func_impl@V<lambda_3f0c0cc2dc2c270df32f5410d7922b45>@@V?$allocator@H@std@@XAEAUInspectArguments@ofxCvGui@@@std@@@std@@@1@U?$integral_constant@_N$0A@@1@@Z
	??$_Reset_impl@V<lambda_4c58b929085e86163cd52e877c9c6f45>@@V?$allocator@H@std@@V?$_Func_impl@V<lambda_4c58b929085e86163cd52e877c9c6f45>@@V?$allocator@H@std@@XAEAV?$shared_ptr@VBase@Nodes@ofxRulr@@@3@@3@U?$_Wrap_alloc@V?$allocator@V?$_Func_impl@V<lambda_4c58b929085e86163cd52e877c9c6f45>@@V?$allocator@H@std@@XAEAV?$shared_ptr@VBase@Nodes@ofxRulr@@@3@@std@@@std@@@3@@?$_Func_class@XAEAV?$shared_ptr@VBase@Nodes@ofxRulr@@@std@@@std@@IEAAX$$QEAV<lambda_4c58b929085e86163cd52e877c9c6f45>@@AEBV?$allocator@H@1@PEAV?$_Func_impl@V<lambda_4c58b929085e86163cd52e877c9c6f45>@@V?$allocator@H@std@@XAEAV?$shared_ptr@VBase@Nodes@ofxRulr@@@3@@1@AEAU?$_Wrap_alloc@V?$allocator@V?$_Func_impl@V<lambda_4c58b929085e86163cd52e877c9c6f45>@@V?$allocator@H@std@@XAEAV?$shared_ptr@VBase@Nodes@ofxRulr@@@3@@std@@@std@@@1@U?$integral_constant@_N$0A@@1@@Z
	??$_Reset_impl@V<lambda_7d9f195a84659425a41697390fba70cd>@@V?$allocator@H@std@@V?$_Func_impl@V<lambda_7d9f195a84659425a41697390fba70cd>@@V?$allocator@H@std@@W4Status@Indicator@Widgets@ofxCvGui@@$$V@3@U?$_Wrap_alloc@V?$allocator@V?$_Func_impl@V<lambda_7d9f195a84659425a41697390fba70cd>@@V?$allocator@H@std@@W4Status@Indicator@Widgets@ofxCvGui@@$$V@std@@@std@@@3@@?$_Func_class@W4Status@Indicator@Widgets@ofxCvGui@@$$V@std@@IEAAX$$QEAV<lambda_7d9f195a84659425a41697390fba70cd>@@AEBV?$allocator@H@1@PEAV?$_Func_impl@V<lambda_7d9f195a84659425a41697390fba70cd>@@V?$allocator@H@std@@W4Status@Indicator@Widgets@ofxCvGui@@$$V@1@AEAU?$_Wrap_alloc@V?$allocator@V?$_Func_impl@V<lambda_7d9f195a84659425a41697390fba70cd>@@V?$allocator@H@std@@W4Status@Indicator@Widgets@ofxCvGui@@$$V@std@@@std@@@1@U?$integral_constant@_N$0A@@1@@Z
	??$_Reset_impl@V<lambda_803b1ba7fe072d17e44d74762d6426f9>@@V?$allocator@H@std@@V?$_Func_impl@V<lambda_803b1ba7fe072d17e44d74762d6426f9>@@V?$allocator@H@std@@XAEAV?$shared_ptr@VBase@Nodes@ofxRulr@@@3@@3@U?$_Wrap_alloc@V?$allocator@V?$_Func_impl@V<lambda_803b1ba7fe072d17e44d74762d6426f9>@@V?$allocator@H@std@@XAEAV?$shared_ptr@VBase@Nodes@ofxRulr@@@3@@std@@@std@@@3@@?$_Func_class@XAEAV?$shared_ptr@VBase@Nodes@ofxRulr@@@std@@@std@@IEAAX$$QEAV<lambda_803b1ba7fe072d17e44d74762d6426f9>@@AEBV?$allocator@H@1@PEAV?$_Func_impl@V<lambda_803b1ba7fe072d17e44d74762d6426f9>@@V?$allocator@H@std@@XAEAV?$shared_ptr@VBase@Nodes@ofxRulr@@@3@@1@AEAU?$_Wrap_alloc@V?$allocator@V?$_Func_impl@V<lambda_803b1ba7fe072d17e44d74762d6426f9>@@V?$allocator@H@std@@XAEAV?$shared_ptr@VBase@Nodes@ofxRulr@@@3@@std@@@std@@@1@U?$integral_constant@_N$0A@@1@@Z
	??$_Reset_impl@V<lambda_88e5fe8ae475e6db1ed58f507cc891a3>@@V?$allocator@H@std@@V?$_Func_impl@V<lambda_88e5fe8ae475e6db1ed58f507cc891a3>@@V?$allocator@H@std@@X$$V@3@U?$_Wrap_alloc@V?$allocator@V?$_Func_impl@V<lambda_88e5fe8ae475e6db1ed58f507cc891a3>@@V?$allocator@H@std@@X$$V@std@@@std@@@3@@?$_Func_class@X$$V@std@@IEAAX$$QEAV<lambda_88e5fe8ae475e6db1ed58f507cc891a3>@@AEBV?$allocator@H@1@PEAV?$_Func_impl@V<lambda_88e5fe8ae475e6db1ed58f507cc891a3>@@V?$allocator@H@std@@X$$V@1@AEAU?$_Wrap_alloc@V?$allocator@V?$_Func_impl@V<lambda_88e5fe8ae475e6db1ed58f507cc891a3>@@V?$allocator@H@std@@X$$V@std@@@std@@@1@U?$integral_constant@_N$0A@@1@@Z
	??$_Reset_impl@V<lambda_c18f35e87dc7db20c98795776406a3db>@@V?$allocator@H@std@@V?$_Func_impl@V<lambda_c18f35e87dc7db20c98795776406a3db>@@V?$allocator@H@std@@XAEAVMouseArguments@ofxCvGui@@@3@U?$_Wrap_alloc@V?$allocator@V?$_Func_impl@V<lambda_c18f35e87dc7db20c98795776406a3db>@@V?$allocator@H@std@@XAEAVMouseArguments@ofxCvGui@@@std@@@std@@@3@@?$_Func_class@XAEAVMouseArguments@ofxCvGui@@@std@@IEAAX$$QEAV<lambda_c18f35e87dc7db20c98795776406a3db>@@AEBV?$allocator@H@1@PEAV?$_Func_impl@V<lambda_c18f35e87dc7db20c98795776406a3db>@@V?$allocator@H@std@@XAEAVMouseArguments@ofxCvGui@@@1@AEAU?$_Wrap_alloc@V?$allocator@V?$_Func_impl@V<lambda_c18f35e87dc7db20c98795776406a3db>@@V?$allocator@H@std@@XAEAVMouseArguments@ofxCvGui@@@std@@@std@@@1@U?$integral_constant@_N$0A@@1@@Z
	??$_Reset_impl@V<lambda_e77f8b25be01beabb990006c1ee13fb6>@@V?$allocator@H@std@@V?$_Func_impl@V<lambda_e77f8b25be01beabb990006c1ee13fb6>@@V?$allocator@H@std@@X$$V@3@U?$_Wrap_alloc@V?$allocator@V?$_Func_impl@V<lambda_e77f8b25be01beabb990006c1ee13fb6>@@V?$allocator@H@std@@X$$V@std@@@std@@@3@@?$_Func_class@X$$V@std@@IEAAX$$QEAV<lambda_e77f8b25be01beabb990006c1ee13fb6>@@AEBV?$allocator@H@1@PEAV?$_Func_impl@V<lambda_e77f8b25be01beabb990006c1ee13fb6>@@V?$allocator@H@std@@X$$V@1@AEAU?$_Wrap_alloc@V?$allocator@V?$_Func_impl@V<lambda_e77f8b25be01beabb990006c1ee13fb6>@@V?$allocator@H@std@@X$$V@std@@@std@@@1@U?$integral_constant@_N$0A@@1@@Z
	??$_Resetp0@V?$ofColor_@E@@@?$shared_ptr@V?$ofColor_@E@@@std@@QEAAXPEAV?$ofColor_@E@@PEAV_Ref_count_base@1@@Z
	??$_Resetp0@VButton@Widgets@ofxCvGui@@@?$shared_ptr@VButton@Widgets@ofxCvGui@@@std@@QEAAXPEAVButton@Widgets@ofxCvGui@@PEAV_Ref_count_base@1@@Z
	??$_Resetp0@VGraphics@Nodes@ofxRulr@@@?$shared_ptr@VGraphics@Nodes@ofxRulr@@@std@@QEAAXPEAVGraphics@Nodes@ofxRulr@@PEAV_Ref_count_base@1@@Z
	??$_Resetp0@VIndicator@Widgets@ofxCvGui@@@?$shared_ptr@VIndicator@Widgets@ofxCvGui@@@std@@QEAAXPEAVIndicator@Widgets@ofxCvGui@@PEAV_Ref_count_base@1@@Z
	??$_Resetp0@VSpacer@Widgets@ofxCvGui@@@?$shared_ptr@VSpacer@Widgets@ofxCvGui@@@std@@QEAAXPEAVSpacer@Widgets@ofxCvGui@@PEAV_Ref_count_base@1@@Z
	??$_Resetp0@VTitle@Widgets@ofxCvGui@@@?$shared_ptr@VTitle@Widgets@ofxCvGui@@@std@@QEAAXPEAVTitle@Widgets@ofxCvGui@@PEAV_Ref_count_base@1@@Z
	??$_Resetp@VButton@Widgets@ofxCvGui@@@?$shared_ptr@VButton@Widgets@ofxCvGui@@@std@@AEAAXPEAVButton@Widgets@ofxCvGui@@@Z
	??$_Resetp@VIndicator@Widgets@ofxCvGui@@@?$shared_ptr@VIndicator@Widgets@ofxCvGui@@@std@@AEAAXPEAVIndicator@Widgets@ofxCvGui@@@Z
	??$_Resetp@VSpacer@Widgets@ofxCvGui@@@?$shared_ptr@VSpacer@Widgets@ofxCvGui@@@std@@AEAAXPEAVSpacer@Widgets@ofxCvGui@@@Z
	??$_Resetp@VTitle@Widgets@ofxCvGui@@@?$shared_ptr@VTitle@Widgets@ofxCvGui@@@std@@AEAAXPEAVTitle@Widgets@ofxCvGui@@@Z
	??$_Resetw@VAbstractPin@Graph@ofxRulr@@@?$_Ptr_base@VAbstractPin@Graph@ofxRulr@@@std@@QEAAXAEBV01@@Z
	??$_Resetw@VAbstractPin@Graph@ofxRulr@@@?$_Ptr_base@VAbstractPin@Graph@ofxRulr@@@std@@QEAAXPEAVAbstractPin@Graph@ofxRulr@@PEAV_Ref_count_base@1@@Z
	??$_Resetw@VElement@ofxCvGui@@@?$_Ptr_base@VElement@ofxCvGui@@@std@@QEAAXAEBV01@@Z
	??$_Resetw@VElement@ofxCvGui@@@?$_Ptr_base@VElement@ofxCvGui@@@std@@QEAAXPEAVElement@ofxCvGui@@PEAV_Ref_count_base@1@@Z
	??$_Resetw@VTitle@Widgets@ofxCvGui@@@?$_Ptr_base@VElement@ofxCvGui@@@std@@QEAAXAEBV?$_Ptr_base@VTitle@Widgets@ofxCvGui@@@1@@Z
	??$_Resetw@VTitle@Widgets@ofxCvGui@@@?$_Ptr_base@VElement@ofxCvGui@@@std@@QEAAXPEAVTitle@Widgets@ofxCvGui@@PEAV_Ref_count_base@1@@Z
	??$_Test_callable@V<lambda_224f972154009ce07fce020ee97da390>@@@std@@YA_NAEBV<lambda_224f972154009ce07fce020ee97da390>@@@Z
	??$_Test_callable@V<lambda_224f972154009ce07fce020ee97da390>@@@std@@YA_NAEBV<lambda_224f972154009ce07fce020ee97da390>@@U?$integral_constant@_N$0A@@0@@Z
	??$_Test_callable@V<lambda_3f0c0cc2dc2c270df32f5410d7922b45>@@@std@@YA_NAEBV<lambda_3f0c0cc2dc2c270df32f5410d7922b45>@@@Z
	??$_Test_callable@V<lambda_3f0c0cc2dc2c270df32f5410d7922b45>@@@std@@YA_NAEBV<lambda_3f0c0cc2dc2c270df32f5410d7922b45>@@U?$integral_constant@_N$0A@@0@@Z
	??$_Test_callable@V<lambda_4c58b929085e86163cd52e877c9c6f45>@@@std@@YA_NAEBV<lambda_4c58b929085e86163cd52e877c9c6f45>@@@Z
	??$_Test_callable@V<lambda_4c58b929085e86163cd52e877c9c6f45>@@@std@@YA_NAEBV<lambda_4c58b929085e86163cd52e877c9c6f45>@@U?$integral_constant@_N$0A@@0@@Z
	??$_Test_callable@V<lambda_7d9f195a84659425a41697390fba70cd>@@@std@@YA_NAEBV<lambda_7d9f195a84659425a41697390fba70cd>@@@Z
	??$_Test_callable@V<lambda_7d9f195a84659425a41697390fba70cd>@@@std@@YA_NAEBV<lambda_7d9f195a84659425a41697390fba70cd>@@U?$integral_constant@_N$0A@@0@@Z
	??$_Test_callable@V<lambda_803b1ba7fe072d17e44d74762d6426f9>@@@std@@YA_NAEBV<lambda_803b1ba7fe072d17e44d74762d6426f9>@@@Z
	??$_Test_callable@V<lambda_803b1ba7fe072d17e44d74762d6426f9>@@@std@@YA_NAEBV<lambda_803b1ba7fe072d17e44d74762d6426f9>@@U?$integral_constant@_N$0A@@0@@Z
	??$_Test_callable@V<lambda_88e5fe8ae475e6db1ed58f507cc891a3>@@@std@@YA_NAEBV<lambda_88e5fe8ae475e6db1ed58f507cc891a3>@@@Z
	??$_Test_callable@V<lambda_88e5fe8ae475e6db1ed58f507cc891a3>@@@std@@YA_NAEBV<lambda_88e5fe8ae475e6db1ed58f507cc891a3>@@U?$integral_constant@_N$0A@@0@@Z
	??$_Test_callable@V<lambda_c18f35e87dc7db20c98795776406a3db>@@@std@@YA_NAEBV<lambda_c18f35e87dc7db20c98795776406a3db>@@@Z
	??$_Test_callable@V<lambda_c18f35e87dc7db20c98795776406a3db>@@@std@@YA_NAEBV<lambda_c18f35e87dc7db20c98795776406a3db>@@U?$integral_constant@_N$0A@@0@@Z
	??$_Test_callable@V<lambda_e77f8b25be01beabb990006c1ee13fb6>@@@std@@YA_NAEBV<lambda_e77f8b25be01beabb990006c1ee13fb6>@@@Z
	??$_Test_callable@V<lambda_e77f8b25be01beabb990006c1ee13fb6>@@@std@@YA_NAEBV<lambda_e77f8b25be01beabb990006c1ee13fb6>@@U?$integral_constant@_N$0A@@0@@Z
	??$_Ucopy@V?$_Vector_const_iterator@V?$_Vector_val@U?$_Simple_types@V?$shared_ptr@VAbstractPin@Graph@ofxRulr@@@std@@@std@@@std@@@std@@@?$vector@V?$shared_ptr@VAbstractPin@Graph@ofxRulr@@@std@@V?$allocator@V?$shared_ptr@VAbstractPin@Graph@ofxRulr@@@std@@@2@@std@@IEAAPEAV?$shared_ptr@VAbstractPin@Graph@ofxRulr@@@1@V?$_Vector_const_iterator@V?$_Vector_val@U?$_Simple_types@V?$shared_ptr@VAbstractPin@Graph@ofxRulr@@@std@@@std@@@std@@@1@0PEAV21@@Z
	??$_Umove@PEAV?$shared_ptr@VAbstractPin@Graph@ofxRulr@@@std@@@?$vector@V?$shared_ptr@VAbstractPin@Graph@ofxRulr@@@std@@V?$allocator@V?$shared_ptr@VAbstractPin@Graph@ofxRulr@@@std@@@2@@std@@IEAAPEAV?$shared_ptr@VAbstractPin@Graph@ofxRulr@@@1@PEAV21@00@Z
	??$_Unchecked@PEAV?$shared_ptr@VAbstractPin@Graph@ofxRulr@@@std@@@std@@YAPEAV?$shared_ptr@VAbstractPin@Graph@ofxRulr@@@0@PEAV10@@Z
	??$_Unchecked@V?$_Vector_val@U?$_Simple_types@V?$shared_ptr@VAbstractPin@Graph@ofxRulr@@@std@@@std@@@std@@@std@@YAPEAV?$shared_ptr@VAbstractPin@Graph@ofxRulr@@@0@V?$_Vector_iterator@V?$_Vector_val@U?$_Simple_types@V?$shared_ptr@VAbstractPin@Graph@ofxRulr@@@std@@@std@@@std@@@0@@Z
	??$_Unchecked@V?$_Vector_val@U?$_Simple_types@V?$shared_ptr@VAbstractPin@Graph@ofxRulr@@@std@@@std@@@std@@@std@@YAPEBV?$shared_ptr@VAbstractPin@Graph@ofxRulr@@@0@V?$_Vector_const_iterator@V?$_Vector_val@U?$_Simple_types@V?$shared_ptr@VAbstractPin@Graph@ofxRulr@@@std@@@std@@@std@@@0@@Z
	??$_Uninit_copy@PEBV?$shared_ptr@VAbstractPin@Graph@ofxRulr@@@std@@PEAV12@U?$_Wrap_alloc@V?$allocator@V?$shared_ptr@VAbstractPin@Graph@ofxRulr@@@std@@@std@@@2@@std@@YAPEAV?$shared_ptr@VAbstractPin@Graph@ofxRulr@@@0@PEBV10@0PEAV10@AEAU?$_Wrap_alloc@V?$allocator@V?$shared_ptr@VAbstractPin@Graph@ofxRulr@@@std@@@std@@@0@@Z
	??$_Uninit_copy@PEBV?$shared_ptr@VAbstractPin@Graph@ofxRulr@@@std@@PEAV12@V?$allocator@V?$shared_ptr@VAbstractPin@Graph@ofxRulr@@@std@@@2@@std@@YAPEAV?$shared_ptr@VAbstractPin@Graph@ofxRulr@@@0@PEBV10@0PEAV10@AEAU?$_Wrap_alloc@V?$allocator@V?$shared_ptr@VAbstractPin@Graph@ofxRulr@@@std@@@std@@@0@U_Nonscalar_ptr_iterator_tag@0@@Z
	??$_Uninit_move@PEAV?$shared_ptr@VAbstractPin@Graph@ofxRulr@@@std@@PEAV12@U?$_Wrap_alloc@V?$allocator@V?$shared_ptr@VAbstractPin@Graph@ofxRulr@@@std@@@std@@@2@@std@@YAPEAV?$shared_ptr@VAbstractPin@Graph@ofxRulr@@@0@PEAV10@00AEAU?$_Wrap_alloc@V?$allocator@V?$shared_ptr@VAbstractPin@Graph@ofxRulr@@@std@@@std@@@0@@Z
	??$_Uninit_move@PEAV?$shared_ptr@VAbstractPin@Graph@ofxRulr@@@std@@PEAV12@V?$allocator@V?$shared_ptr@VAbstractPin@Graph@ofxRulr@@@std@@@2@V12@@std@@YAPEAV?$shared_ptr@VAbstractPin@Graph@ofxRulr@@@0@PEAV10@00AEAU?$_Wrap_alloc@V?$allocator@V?$shared_ptr@VAbstractPin@Graph@ofxRulr@@@std@@@std@@@0@0U_Nonscalar_ptr_iterator_tag@0@@Z
	??$_Uninitialized_copy@V?$_Vector_const_iterator@V?$_Vector_val@U?$_Simple_types@V?$shared_ptr@VAbstractPin@Graph@ofxRulr@@@std@@@std@@@std@@@std@@PEAV?$shared_ptr@VAbstractPin@Graph@ofxRulr@@@2@U?$_Wrap_alloc@V?$allocator@V?$shared_ptr@VAbstractPin@Graph@ofxRulr@@@std@@@std@@@2@@std@@YAPEAV?$shared_ptr@VAbstractPin@Graph@ofxRulr@@@0@V?$_Vector_const_iterator@V?$_Vector_val@U?$_Simple_types@V?$shared_ptr@VAbstractPin@Graph@ofxRulr@@@std@@@std@@@std@@@0@0PEAV10@AEAU?$_Wrap_alloc@V?$allocator@V?$shared_ptr@VAbstractPin@Graph@ofxRulr@@@std@@@std@@@0@@Z
	??$_Uninitialized_move@PEAV?$shared_ptr@VAbstractPin@Graph@ofxRulr@@@std@@PEAV12@U?$_Wrap_alloc@V?$allocator@V?$shared_ptr@VAbstractPin@Graph@ofxRulr@@@std@@@std@@@2@@std@@YAPEAV?$shared_ptr@VAbstractPin@Graph@ofxRulr@@@0@PEAV10@00AEAU?$_Wrap_alloc@V?$allocator@V?$shared_ptr@VAbstractPin@Graph@ofxRulr@@@std@@@std@@@0@@Z
	??$_Val_type@PEAV?$shared_ptr@VAbstractPin@Graph@ofxRulr@@@std@@@std@@YAPEAV?$shared_ptr@VAbstractPin@Graph@ofxRulr@@@0@PEAV10@@Z
	??$add@VButton@Widgets@ofxCvGui@@U?$enable_if@$00X@std@@@Scroll@Panels@ofxCvGui@@QEAA?AV?$shared_ptr@VButton@Widgets@ofxCvGui@@@std@@PEAVButton@Widgets@2@@Z
	??$add@VIndicator@Widgets@ofxCvGui@@U?$enable_if@$00X@std@@@Scroll@Panels@ofxCvGui@@QEAA?AV?$shared_ptr@VIndicator@Widgets@ofxCvGui@@@std@@PEAVIndicator@Widgets@2@@Z
	??$add@VSpacer@Widgets@ofxCvGui@@U?$enable_if@$00X@std@@@Scroll@Panels@ofxCvGui@@QEAA?AV?$shared_ptr@VSpacer@Widgets@ofxCvGui@@@std@@PEAVSpacer@Widgets@2@@Z
	??$add@VTitle@Widgets@ofxCvGui@@U?$enable_if@$00X@std@@@Scroll@Panels@ofxCvGui@@QEAA?AV?$shared_ptr@VTitle@Widgets@ofxCvGui@@@std@@PEAVTitle@Widgets@2@@Z
	??$addressof@$$CBV<lambda_224f972154009ce07fce020ee97da390>@@@std@@YAPEBV<lambda_224f972154009ce07fce020ee97da390>@@AEBV1@@Z
	??$addressof@$$CBV<lambda_3f0c0cc2dc2c270df32f5410d7922b45>@@@std@@YAPEBV<lambda_3f0c0cc2dc2c270df32f5410d7922b45>@@AEBV1@@Z
	??$addressof@$$CBV<lambda_4c58b929085e86163cd52e877c9c6f45>@@@std@@YAPEBV<lambda_4c58b929085e86163cd52e877c9c6f45>@@AEBV1@@Z
	??$addressof@$$CBV<lambda_7d9f195a84659425a41697390fba70cd>@@@std@@YAPEBV<lambda_7d9f195a84659425a41697390fba70cd>@@AEBV1@@Z
	??$addressof@$$CBV<lambda_803b1ba7fe072d17e44d74762d6426f9>@@@std@@YAPEBV<lambda_803b1ba7fe072d17e44d74762d6426f9>@@AEBV1@@Z
	??$addressof@$$CBV<lambda_88e5fe8ae475e6db1ed58f507cc891a3>@@@std@@YAPEBV<lambda_88e5fe8ae475e6db1ed58f507cc891a3>@@AEBV1@@Z
	??$addressof@$$CBV<lambda_c18f35e87dc7db20c98795776406a3db>@@@std@@YAPEBV<lambda_c18f35e87dc7db20c98795776406a3db>@@AEBV1@@Z
	??$addressof@$$CBV<lambda_e77f8b25be01beabb990006c1ee13fb6>@@@std@@YAPEBV<lambda_e77f8b25be01beabb990006c1ee13fb6>@@AEBV1@@Z
	??$addressof@$$CBV?$shared_ptr@VAbstractPin@Graph@ofxRulr@@@std@@@std@@YAPEBV?$shared_ptr@VAbstractPin@Graph@ofxRulr@@@0@AEBV10@@Z
	??$addressof@PEAU?$_Tree_node@U?$pair@$$CBUIndex@?$ofxLiquidEvent@$$CBVValue@Json@@@@V?$function@$$A6AXAEBVValue@Json@@@Z@std@@@std@@PEAX@std@@@std@@YAPEAPEAU?$_Tree_node@U?$pair@$$CBUIndex@?$ofxLiquidEvent@$$CBVValue@Json@@@@V?$function@$$A6AXAEBVValue@Json@@@Z@std@@@std@@PEAX@0@AEAPEAU10@@Z
	??$addressof@PEAU?$_Tree_node@U?$pair@$$CBUIndex@?$ofxLiquidEvent@H@@V?$function@$$A6AXXZ@std@@@std@@PEAX@std@@@std@@YAPEAPEAU?$_Tree_node@U?$pair@$$CBUIndex@?$ofxLiquidEvent@H@@V?$function@$$A6AXXZ@std@@@std@@PEAX@0@AEAPEAU10@@Z
	??$addressof@PEAU?$_Tree_node@U?$pair@$$CBUIndex@?$ofxLiquidEvent@UDrawArguments@ofxCvGui@@@@V?$function@$$A6AXAEAUDrawArguments@ofxCvGui@@@Z@std@@@std@@PEAX@std@@@std@@YAPEAPEAU?$_Tree_node@U?$pair@$$CBUIndex@?$ofxLiquidEvent@UDrawArguments@ofxCvGui@@@@V?$function@$$A6AXAEAUDrawArguments@ofxCvGui@@@Z@std@@@std@@PEAX@0@AEAPEAU10@@Z
	??$addressof@PEAU?$_Tree_node@U?$pair@$$CBUIndex@?$ofxLiquidEvent@UInspectArguments@ofxCvGui@@@@V?$function@$$A6AXAEAUInspectArguments@ofxCvGui@@@Z@std@@@std@@PEAX@std@@@std@@YAPEAPEAU?$_Tree_node@U?$pair@$$CBUIndex@?$ofxLiquidEvent@UInspectArguments@ofxCvGui@@@@V?$function@$$A6AXAEAUInspectArguments@ofxCvGui@@@Z@std@@@std@@PEAX@0@AEAPEAU10@@Z
	??$addressof@PEAU?$_Tree_node@U?$pair@$$CBUIndex@?$ofxLiquidEvent@V?$shared_ptr@VAbstractPin@Graph@ofxRulr@@@std@@@@V?$function@$$A6AXAEAV?$shared_ptr@VAbstractPin@Graph@ofxRulr@@@std@@@Z@std@@@std@@PEAX@std@@@std@@YAPEAPEAU?$_Tree_node@U?$pair@$$CBUIndex@?$ofxLiquidEvent@V?$shared_ptr@VAbstractPin@Graph@ofxRulr@@@std@@@@V?$function@$$A6AXAEAV?$shared_ptr@VAbstractPin@Graph@ofxRulr@@@std@@@Z@std@@@std@@PEAX@0@AEAPEAU10@@Z
	??$addressof@PEAU?$_Tree_node@U?$pair@$$CBUIndex@?$ofxLiquidEvent@V?$shared_ptr@VBase@Nodes@ofxRulr@@@std@@@@V?$function@$$A6AXAEAV?$shared_ptr@VBase@Nodes@ofxRulr@@@std@@@Z@std@@@std@@PEAX@std@@@std@@YAPEAPEAU?$_Tree_node@U?$pair@$$CBUIndex@?$ofxLiquidEvent@V?$shared_ptr@VBase@Nodes@ofxRulr@@@std@@@@V?$function@$$A6AXAEAV?$shared_ptr@VBase@Nodes@ofxRulr@@@std@@@Z@std@@@std@@PEAX@0@AEAPEAU10@@Z
	??$addressof@PEAU?$_Tree_node@U?$pair@$$CBUIndex@?$ofxLiquidEvent@VMouseArguments@ofxCvGui@@@@V?$function@$$A6AXAEAVMouseArguments@ofxCvGui@@@Z@std@@@std@@PEAX@std@@@std@@YAPEAPEAU?$_Tree_node@U?$pair@$$CBUIndex@?$ofxLiquidEvent@VMouseArguments@ofxCvGui@@@@V?$function@$$A6AXAEAVMouseArguments@ofxCvGui@@@Z@std@@@std@@PEAX@0@AEAPEAU10@@Z
	??$addressof@PEAU?$_Tree_node@U?$pair@$$CBUIndex@?$ofxLiquidEvent@VValue@Json@@@@V?$function@$$A6AXAEAVValue@Json@@@Z@std@@@std@@PEAX@std@@@std@@YAPEAPEAU?$_Tree_node@U?$pair@$$CBUIndex@?$ofxLiquidEvent@VValue@Json@@@@V?$function@$$A6AXAEAVValue@Json@@@Z@std@@@std@@PEAX@0@AEAPEAU10@@Z
	??$addressof@U?$pair@$$CBUIndex@?$ofxLiquidEvent@$$CBVValue@Json@@@@V?$function@$$A6AXAEBVValue@Json@@@Z@std@@@std@@@std@@YAPEAU?$pair@$$CBUIndex@?$ofxLiquidEvent@$$CBVValue@Json@@@@V?$function@$$A6AXAEBVValue@Json@@@Z@std@@@0@AEAU10@@Z
	??$addressof@U?$pair@$$CBUIndex@?$ofxLiquidEvent@H@@V?$function@$$A6AXXZ@std@@@std@@@std@@YAPEAU?$pair@$$CBUIndex@?$ofxLiquidEvent@H@@V?$function@$$A6AXXZ@std@@@0@AEAU10@@Z
	??$addressof@U?$pair@$$CBUIndex@?$ofxLiquidEvent@UDrawArguments@ofxCvGui@@@@V?$function@$$A6AXAEAUDrawArguments@ofxCvGui@@@Z@std@@@std@@@std@@YAPEAU?$pair@$$CBUIndex@?$ofxLiquidEvent@UDrawArguments@ofxCvGui@@@@V?$function@$$A6AXAEAUDrawArguments@ofxCvGui@@@Z@std@@@0@AEAU10@@Z
	??$addressof@U?$pair@$$CBUIndex@?$ofxLiquidEvent@UInspectArguments@ofxCvGui@@@@V?$function@$$A6AXAEAUInspectArguments@ofxCvGui@@@Z@std@@@std@@@std@@YAPEAU?$pair@$$CBUIndex@?$ofxLiquidEvent@UInspectArguments@ofxCvGui@@@@V?$function@$$A6AXAEAUInspectArguments@ofxCvGui@@@Z@std@@@0@AEAU10@@Z
	??$addressof@U?$pair@$$CBUIndex@?$ofxLiquidEvent@V?$shared_ptr@VAbstractPin@Graph@ofxRulr@@@std@@@@V?$function@$$A6AXAEAV?$shared_ptr@VAbstractPin@Graph@ofxRulr@@@std@@@Z@std@@@std@@@std@@YAPEAU?$pair@$$CBUIndex@?$ofxLiquidEvent@V?$shared_ptr@VAbstractPin@Graph@ofxRulr@@@std@@@@V?$function@$$A6AXAEAV?$shared_ptr@VAbstractPin@Graph@ofxRulr@@@std@@@Z@std@@@0@AEAU10@@Z
	??$addressof@U?$pair@$$CBUIndex@?$ofxLiquidEvent@V?$shared_ptr@VBase@Nodes@ofxRulr@@@std@@@@V?$function@$$A6AXAEAV?$shared_ptr@VBase@Nodes@ofxRulr@@@std@@@Z@std@@@std@@@std@@YAPEAU?$pair@$$CBUIndex@?$ofxLiquidEvent@V?$shared_ptr@VBase@Nodes@ofxRulr@@@std@@@@V?$function@$$A6AXAEAV?$shared_ptr@VBase@Nodes@ofxRulr@@@std@@@Z@std@@@0@AEAU10@@Z
	??$addressof@U?$pair@$$CBUIndex@?$ofxLiquidEvent@VMouseArguments@ofxCvGui@@@@V?$function@$$A6AXAEAVMouseArguments@ofxCvGui@@@Z@std@@@std@@@std@@YAPEAU?$pair@$$CBUIndex@?$ofxLiquidEvent@VMouseArguments@ofxCvGui@@@@V?$function@$$A6AXAEAVMouseArguments@ofxCvGui@@@Z@std@@@0@AEAU10@@Z
	??$addressof@U?$pair@$$CBUIndex@?$ofxLiquidEvent@VValue@Json@@@@V?$function@$$A6AXAEAVValue@Json@@@Z@std@@@std@@@std@@YAPEAU?$pair@$$CBUIndex@?$ofxLiquidEvent@VValue@Json@@@@V?$function@$$A6AXAEAVValue@Json@@@Z@std@@@0@AEAU10@@Z
	??$addressof@V?$shared_ptr@VAbstractPin@Graph@ofxRulr@@@std@@@std@@YAPEAV?$shared_ptr@VAbstractPin@Graph@ofxRulr@@@0@AEAV10@@Z
	??$construct@PEAU?$_Tree_node@U?$pair@$$CBUIndex@?$ofxLiquidEvent@$$CBVValue@Json@@@@V?$function@$$A6AXAEBVValue@Json@@@Z@std@@@std@@PEAX@std@@AEAPEAU12@@?$_Wrap_alloc@V?$allocator@U?$_Tree_node@U?$pair@$$CBUIndex@?$ofxLiquidEvent@$$CBVValue@Json@@@@V?$function@$$A6AXAEBVValue@Json@@@Z@std@@@std@@PEAX@std@@@std@@@std@@QEAAXPEAPEAU?$_Tree_node@U?$pair@$$CBUIndex@?$ofxLiquidEvent@$$CBVValue@Json@@@@V?$function@$$A6AXAEBVValue@Json@@@Z@std@@@std@@PEAX@1@AEAPEAU21@@Z
	??$construct@PEAU?$_Tree_node@U?$pair@$$CBUIndex@?$ofxLiquidEvent@$$CBVValue@Json@@@@V?$function@$$A6AXAEBVValue@Json@@@Z@std@@@std@@PEAX@std@@AEAPEAU12@@?$allocator@U?$_Tree_node@U?$pair@$$CBUIndex@?$ofxLiquidEvent@$$CBVValue@Json@@@@V?$function@$$A6AXAEBVValue@Json@@@Z@std@@@std@@PEAX@std@@@std@@QEAAXPEAPEAU?$_Tree_node@U?$pair@$$CBUIndex@?$ofxLiquidEvent@$$CBVValue@Json@@@@V?$function@$$A6AXAEBVValue@Json@@@Z@std@@@std@@PEAX@1@AEAPEAU21@@Z
	??$construct@PEAU?$_Tree_node@U?$pair@$$CBUIndex@?$ofxLiquidEvent@$$CBVValue@Json@@@@V?$function@$$A6AXAEBVValue@Json@@@Z@std@@@std@@PEAX@std@@AEAPEAU12@@?$allocator_traits@V?$allocator@U?$_Tree_node@U?$pair@$$CBUIndex@?$ofxLiquidEvent@$$CBVValue@Json@@@@V?$function@$$A6AXAEBVValue@Json@@@Z@std@@@std@@PEAX@std@@@std@@@std@@SAXAEAV?$allocator@U?$_Tree_node@U?$pair@$$CBUIndex@?$ofxLiquidEvent@$$CBVValue@Json@@@@V?$function@$$A6AXAEBVValue@Json@@@Z@std@@@std@@PEAX@std@@@1@PEAPEAU?$_Tree_node@U?$pair@$$CBUIndex@?$ofxLiquidEvent@$$CBVValue@Json@@@@V?$function@$$A6AXAEBVValue@Json@@@Z@std@@@std@@PEAX@1@AEAPEAU31@@Z
	??$construct@PEAU?$_Tree_node@U?$pair@$$CBUIndex@?$ofxLiquidEvent@H@@V?$function@$$A6AXXZ@std@@@std@@PEAX@std@@AEAPEAU12@@?$_Wrap_alloc@V?$allocator@U?$_Tree_node@U?$pair@$$CBUIndex@?$ofxLiquidEvent@H@@V?$function@$$A6AXXZ@std@@@std@@PEAX@std@@@std@@@std@@QEAAXPEAPEAU?$_Tree_node@U?$pair@$$CBUIndex@?$ofxLiquidEvent@H@@V?$function@$$A6AXXZ@std@@@std@@PEAX@1@AEAPEAU21@@Z
	??$construct@PEAU?$_Tree_node@U?$pair@$$CBUIndex@?$ofxLiquidEvent@H@@V?$function@$$A6AXXZ@std@@@std@@PEAX@std@@AEAPEAU12@@?$allocator@U?$_Tree_node@U?$pair@$$CBUIndex@?$ofxLiquidEvent@H@@V?$function@$$A6AXXZ@std@@@std@@PEAX@std@@@std@@QEAAXPEAPEAU?$_Tree_node@U?$pair@$$CBUIndex@?$ofxLiquidEvent@H@@V?$function@$$A6AXXZ@std@@@std@@PEAX@1@AEAPEAU21@@Z
	??$construct@PEAU?$_Tree_node@U?$pair@$$CBUIndex@?$ofxLiquidEvent@H@@V?$function@$$A6AXXZ@std@@@std@@PEAX@std@@AEAPEAU12@@?$allocator_traits@V?$allocator@U?$_Tree_node@U?$pair@$$CBUIndex@?$ofxLiquidEvent@H@@V?$function@$$A6AXXZ@std@@@std@@PEAX@std@@@std@@@std@@SAXAEAV?$allocator@U?$_Tree_node@U?$pair@$$CBUIndex@?$ofxLiquidEvent@H@@V?$function@$$A6AXXZ@std@@@std@@PEAX@std@@@1@PEAPEAU?$_Tree_node@U?$pair@$$CBUIndex@?$ofxLiquidEvent@H@@V?$function@$$A6AXXZ@std@@@std@@PEAX@1@AEAPEAU31@@Z
	??$construct@PEAU?$_Tree_node@U?$pair@$$CBUIndex@?$ofxLiquidEvent@UDrawArguments@ofxCvGui@@@@V?$function@$$A6AXAEAUDrawArguments@ofxCvGui@@@Z@std@@@std@@PEAX@std@@AEAPEAU12@@?$_Wrap_alloc@V?$allocator@U?$_Tree_node@U?$pair@$$CBUIndex@?$ofxLiquidEvent@UDrawArguments@ofxCvGui@@@@V?$function@$$A6AXAEAUDrawArguments@ofxCvGui@@@Z@std@@@std@@PEAX@std@@@std@@@std@@QEAAXPEAPEAU?$_Tree_node@U?$pair@$$CBUIndex@?$ofxLiquidEvent@UDrawArguments@ofxCvGui@@@@V?$function@$$A6AXAEAUDrawArguments@ofxCvGui@@@Z@std@@@std@@PEAX@1@AEAPEAU21@@Z
	??$construct@PEAU?$_Tree_node@U?$pair@$$CBUIndex@?$ofxLiquidEvent@UDrawArguments@ofxCvGui@@@@V?$function@$$A6AXAEAUDrawArguments@ofxCvGui@@@Z@std@@@std@@PEAX@std@@AEAPEAU12@@?$allocator@U?$_Tree_node@U?$pair@$$CBUIndex@?$ofxLiquidEvent@UDrawArguments@ofxCvGui@@@@V?$function@$$A6AXAEAUDrawArguments@ofxCvGui@@@Z@std@@@std@@PEAX@std@@@std@@QEAAXPEAPEAU?$_Tree_node@U?$pair@$$CBUIndex@?$ofxLiquidEvent@UDrawArguments@ofxCvGui@@@@V?$function@$$A6AXAEAUDrawArguments@ofxCvGui@@@Z@std@@@std@@PEAX@1@AEAPEAU21@@Z
	??$construct@PEAU?$_Tree_node@U?$pair@$$CBUIndex@?$ofxLiquidEvent@UDrawArguments@ofxCvGui@@@@V?$function@$$A6AXAEAUDrawArguments@ofxCvGui@@@Z@std@@@std@@PEAX@std@@AEAPEAU12@@?$allocator_traits@V?$allocator@U?$_Tree_node@U?$pair@$$CBUIndex@?$ofxLiquidEvent@UDrawArguments@ofxCvGui@@@@V?$function@$$A6AXAEAUDrawArguments@ofxCvGui@@@Z@std@@@std@@PEAX@std@@@std@@@std@@SAXAEAV?$allocator@U?$_Tree_node@U?$pair@$$CBUIndex@?$ofxLiquidEvent@UDrawArguments@ofxCvGui@@@@V?$function@$$A6AXAEAUDrawArguments@ofxCvGui@@@Z@std@@@std@@PEAX@std@@@1@PEAPEAU?$_Tree_node@U?$pair@$$CBUIndex@?$ofxLiquidEvent@UDrawArguments@ofxCvGui@@@@V?$function@$$A6AXAEAUDrawArguments@ofxCvGui@@@Z@std@@@std@@PEAX@1@AEAPEAU31@@Z
	??$construct@PEAU?$_Tree_node@U?$pair@$$CBUIndex@?$ofxLiquidEvent@UInspectArguments@ofxCvGui@@@@V?$function@$$A6AXAEAUInspectArguments@ofxCvGui@@@Z@std@@@std@@PEAX@std@@AEAPEAU12@@?$_Wrap_alloc@V?$allocator@U?$_Tree_node@U?$pair@$$CBUIndex@?$ofxLiquidEvent@UInspectArguments@ofxCvGui@@@@V?$function@$$A6AXAEAUInspectArguments@ofxCvGui@@@Z@std@@@std@@PEAX@std@@@std@@@std@@QEAAXPEAPEAU?$_Tree_node@U?$pair@$$CBUIndex@?$ofxLiquidEvent@UInspectArguments@ofxCvGui@@@@V?$function@$$A6AXAEAUInspectArguments@ofxCvGui@@@Z@std@@@std@@PEAX@1@AEAPEAU21@@Z
	??$construct@PEAU?$_Tree_node@U?$pair@$$CBUIndex@?$ofxLiquidEvent@UInspectArguments@ofxCvGui@@@@V?$function@$$A6AXAEAUInspectArguments@ofxCvGui@@@Z@std@@@std@@PEAX@std@@AEAPEAU12@@?$allocator@U?$_Tree_node@U?$pair@$$CBUIndex@?$ofxLiquidEvent@UInspectArguments@ofxCvGui@@@@V?$function@$$A6AXAEAUInspectArguments@ofxCvGui@@@Z@std@@@std@@PEAX@std@@@std@@QEAAXPEAPEAU?$_Tree_node@U?$pair@$$CBUIndex@?$ofxLiquidEvent@UInspectArguments@ofxCvGui@@@@V?$function@$$A6AXAEAUInspectArguments@ofxCvGui@@@Z@std@@@std@@PEAX@1@AEAPEAU21@@Z
	??$construct@PEAU?$_Tree_node@U?$pair@$$CBUIndex@?$ofxLiquidEvent@UInspectArguments@ofxCvGui@@@@V?$function@$$A6AXAEAUInspectArguments@ofxCvGui@@@Z@std@@@std@@PEAX@std@@AEAPEAU12@@?$allocator_traits@V?$allocator@U?$_Tree_node@U?$pair@$$CBUIndex@?$ofxLiquidEvent@UInspectArguments@ofxCvGui@@@@V?$function@$$A6AXAEAUInspectArguments@ofxCvGui@@@Z@std@@@std@@PEAX@std@@@std@@@std@@SAXAEAV?$allocator@U?$_Tree_node@U?$pair@$$CBUIndex@?$ofxLiquidEvent@UInspectArguments@ofxCvGui@@@@V?$function@$$A6AXAEAUInspectArguments@ofxCvGui@@@Z@std@@@std@@PEAX@std@@@1@PEAPEAU?$_Tree_node@U?$pair@$$CBUIndex@?$ofxLiquidEvent@UInspectArguments@ofxCvGui@@@@V?$function@$$A6AXAEAUInspectArguments@ofxCvGui@@@Z@std@@@std@@PEAX@1@AEAPEAU31@@Z
	??$construct@PEAU?$_Tree_node@U?$pair@$$CBUIndex@?$ofxLiquidEvent@V?$shared_ptr@VAbstractPin@Graph@ofxRulr@@@std@@@@V?$function@$$A6AXAEAV?$shared_ptr@VAbstractPin@Graph@ofxRulr@@@std@@@Z@std@@@std@@PEAX@std@@AEAPEAU12@@?$_Wrap_alloc@V?$allocator@U?$_Tree_node@U?$pair@$$CBUIndex@?$ofxLiquidEvent@V?$shared_ptr@VAbstractPin@Graph@ofxRulr@@@std@@@@V?$function@$$A6AXAEAV?$shared_ptr@VAbstractPin@Graph@ofxRulr@@@std@@@Z@std@@@std@@PEAX@std@@@std@@@std@@QEAAXPEAPEAU?$_Tree_node@U?$pair@$$CBUIndex@?$ofxLiquidEvent@V?$shared_ptr@VAbstractPin@Graph@ofxRulr@@@std@@@@V?$function@$$A6AXAEAV?$shared_ptr@VAbstractPin@Graph@ofxRulr@@@std@@@Z@std@@@std@@PEAX@1@AEAPEAU21@@Z
	??$construct@PEAU?$_Tree_node@U?$pair@$$CBUIndex@?$ofxLiquidEvent@V?$shared_ptr@VAbstractPin@Graph@ofxRulr@@@std@@@@V?$function@$$A6AXAEAV?$shared_ptr@VAbstractPin@Graph@ofxRulr@@@std@@@Z@std@@@std@@PEAX@std@@AEAPEAU12@@?$allocator@U?$_Tree_node@U?$pair@$$CBUIndex@?$ofxLiquidEvent@V?$shared_ptr@VAbstractPin@Graph@ofxRulr@@@std@@@@V?$function@$$A6AXAEAV?$shared_ptr@VAbstractPin@Graph@ofxRulr@@@std@@@Z@std@@@std@@PEAX@std@@@std@@QEAAXPEAPEAU?$_Tree_node@U?$pair@$$CBUIndex@?$ofxLiquidEvent@V?$shared_ptr@VAbstractPin@Graph@ofxRulr@@@std@@@@V?$function@$$A6AXAEAV?$shared_ptr@VAbstractPin@Graph@ofxRulr@@@std@@@Z@std@@@std@@PEAX@1@AEAPEAU21@@Z
	??$construct@PEAU?$_Tree_node@U?$pair@$$CBUIndex@?$ofxLiquidEvent@V?$shared_ptr@VAbstractPin@Graph@ofxRulr@@@std@@@@V?$function@$$A6AXAEAV?$shared_ptr@VAbstractPin@Graph@ofxRulr@@@std@@@Z@std@@@std@@PEAX@std@@AEAPEAU12@@?$allocator_traits@V?$allocator@U?$_Tree_node@U?$pair@$$CBUIndex@?$ofxLiquidEvent@V?$shared_ptr@VAbstractPin@Graph@ofxRulr@@@std@@@@V?$function@$$A6AXAEAV?$shared_ptr@VAbstractPin@Graph@ofxRulr@@@std@@@Z@std@@@std@@PEAX@std@@@std@@@std@@SAXAEAV?$allocator@U?$_Tree_node@U?$pair@$$CBUIndex@?$ofxLiquidEvent@V?$shared_ptr@VAbstractPin@Graph@ofxRulr@@@std@@@@V?$function@$$A6AXAEAV?$shared_ptr@VAbstractPin@Graph@ofxRulr@@@std@@@Z@std@@@std@@PEAX@std@@@1@PEAPEAU?$_Tree_node@U?$pair@$$CBUIndex@?$ofxLiquidEvent@V?$shared_ptr@VAbstractPin@Graph@ofxRulr@@@std@@@@V?$function@$$A6AXAEAV?$shared_ptr@VAbstractPin@Graph@ofxRulr@@@std@@@Z@std@@@std@@PEAX@1@AEAPEAU31@@Z
	??$construct@PEAU?$_Tree_node@U?$pair@$$CBUIndex@?$ofxLiquidEvent@V?$shared_ptr@VBase@Nodes@ofxRulr@@@std@@@@V?$function@$$A6AXAEAV?$shared_ptr@VBase@Nodes@ofxRulr@@@std@@@Z@std@@@std@@PEAX@std@@AEAPEAU12@@?$_Wrap_alloc@V?$allocator@U?$_Tree_node@U?$pair@$$CBUIndex@?$ofxLiquidEvent@V?$shared_ptr@VBase@Nodes@ofxRulr@@@std@@@@V?$function@$$A6AXAEAV?$shared_ptr@VBase@Nodes@ofxRulr@@@std@@@Z@std@@@std@@PEAX@std@@@std@@@std@@QEAAXPEAPEAU?$_Tree_node@U?$pair@$$CBUIndex@?$ofxLiquidEvent@V?$shared_ptr@VBase@Nodes@ofxRulr@@@std@@@@V?$function@$$A6AXAEAV?$shared_ptr@VBase@Nodes@ofxRulr@@@std@@@Z@std@@@std@@PEAX@1@AEAPEAU21@@Z
	??$construct@PEAU?$_Tree_node@U?$pair@$$CBUIndex@?$ofxLiquidEvent@V?$shared_ptr@VBase@Nodes@ofxRulr@@@std@@@@V?$function@$$A6AXAEAV?$shared_ptr@VBase@Nodes@ofxRulr@@@std@@@Z@std@@@std@@PEAX@std@@AEAPEAU12@@?$allocator@U?$_Tree_node@U?$pair@$$CBUIndex@?$ofxLiquidEvent@V?$shared_ptr@VBase@Nodes@ofxRulr@@@std@@@@V?$function@$$A6AXAEAV?$shared_ptr@VBase@Nodes@ofxRulr@@@std@@@Z@std@@@std@@PEAX@std@@@std@@QEAAXPEAPEAU?$_Tree_node@U?$pair@$$CBUIndex@?$ofxLiquidEvent@V?$shared_ptr@VBase@Nodes@ofxRulr@@@std@@@@V?$function@$$A6AXAEAV?$shared_ptr@VBase@Nodes@ofxRulr@@@std@@@Z@std@@@std@@PEAX@1@AEAPEAU21@@Z
	??$construct@PEAU?$_Tree_node@U?$pair@$$CBUIndex@?$ofxLiquidEvent@V?$shared_ptr@VBase@Nodes@ofxRulr@@@std@@@@V?$function@$$A6AXAEAV?$shared_ptr@VBase@Nodes@ofxRulr@@@std@@@Z@std@@@std@@PEAX@std@@AEAPEAU12@@?$allocator_traits@V?$allocator@U?$_Tree_node@U?$pair@$$CBUIndex@?$ofxLiquidEvent@V?$shared_ptr@VBase@Nodes@ofxRulr@@@std@@@@V?$function@$$A6AXAEAV?$shared_ptr@VBase@Nodes@ofxRulr@@@std@@@Z@std@@@std@@PEAX@std@@@std@@@std@@SAXAEAV?$allocator@U?$_Tree_node@U?$pair@$$CBUIndex@?$ofxLiquidEvent@V?$shared_ptr@VBase@Nodes@ofxRulr@@@std@@@@V?$function@$$A6AXAEAV?$shared_ptr@VBase@Nodes@ofxRulr@@@std@@@Z@std@@@std@@PEAX@std@@@1@PEAPEAU?$_Tree_node@U?$pair@$$CBUIndex@?$ofxLiquidEvent@V?$shared_ptr@VBase@Nodes@ofxRulr@@@std@@@@V?$function@$$A6AXAEAV?$shared_ptr@VBase@Nodes@ofxRulr@@@std@@@Z@std@@@std@@PEAX@1@AEAPEAU31@@Z
	??$construct@PEAU?$_Tree_node@U?$pair@$$CBUIndex@?$ofxLiquidEvent@VMouseArguments@ofxCvGui@@@@V?$function@$$A6AXAEAVMouseArguments@ofxCvGui@@@Z@std@@@std@@PEAX@std@@AEAPEAU12@@?$_Wrap_alloc@V?$allocator@U?$_Tree_node@U?$pair@$$CBUIndex@?$ofxLiquidEvent@VMouseArguments@ofxCvGui@@@@V?$function@$$A6AXAEAVMouseArguments@ofxCvGui@@@Z@std@@@std@@PEAX@std@@@std@@@std@@QEAAXPEAPEAU?$_Tree_node@U?$pair@$$CBUIndex@?$ofxLiquidEvent@VMouseArguments@ofxCvGui@@@@V?$function@$$A6AXAEAVMouseArguments@ofxCvGui@@@Z@std@@@std@@PEAX@1@AEAPEAU21@@Z
	??$construct@PEAU?$_Tree_node@U?$pair@$$CBUIndex@?$ofxLiquidEvent@VMouseArguments@ofxCvGui@@@@V?$function@$$A6AXAEAVMouseArguments@ofxCvGui@@@Z@std@@@std@@PEAX@std@@AEAPEAU12@@?$allocator@U?$_Tree_node@U?$pair@$$CBUIndex@?$ofxLiquidEvent@VMouseArguments@ofxCvGui@@@@V?$function@$$A6AXAEAVMouseArguments@ofxCvGui@@@Z@std@@@std@@PEAX@std@@@std@@QEAAXPEAPEAU?$_Tree_node@U?$pair@$$CBUIndex@?$ofxLiquidEvent@VMouseArguments@ofxCvGui@@@@V?$function@$$A6AXAEAVMouseArguments@ofxCvGui@@@Z@std@@@std@@PEAX@1@AEAPEAU21@@Z
	??$construct@PEAU?$_Tree_node@U?$pair@$$CBUIndex@?$ofxLiquidEvent@VMouseArguments@ofxCvGui@@@@V?$function@$$A6AXAEAVMouseArguments@ofxCvGui@@@Z@std@@@std@@PEAX@std@@AEAPEAU12@@?$allocator_traits@V?$allocator@U?$_Tree_node@U?$pair@$$CBUIndex@?$ofxLiquidEvent@VMouseArguments@ofxCvGui@@@@V?$function@$$A6AXAEAVMouseArguments@ofxCvGui@@@Z@std@@@std@@PEAX@std@@@std@@@std@@SAXAEAV?$allocator@U?$_Tree_node@U?$pair@$$CBUIndex@?$ofxLiquidEvent@VMouseArguments@ofxCvGui@@@@V?$function@$$A6AXAEAVMouseArguments@ofxCvGui@@@Z@std@@@std@@PEAX@std@@@1@PEAPEAU?$_Tree_node@U?$pair@$$CBUIndex@?$ofxLiquidEvent@VMouseArguments@ofxCvGui@@@@V?$function@$$A6AXAEAVMouseArguments@ofxCvGui@@@Z@std@@@std@@PEAX@1@AEAPEAU31@@Z
	??$construct@PEAU?$_Tree_node@U?$pair@$$CBUIndex@?$ofxLiquidEvent@VValue@Json@@@@V?$function@$$A6AXAEAVValue@Json@@@Z@std@@@std@@PEAX@std@@AEAPEAU12@@?$_Wrap_alloc@V?$allocator@U?$_Tree_node@U?$pair@$$CBUIndex@?$ofxLiquidEvent@VValue@Json@@@@V?$function@$$A6AXAEAVValue@Json@@@Z@std@@@std@@PEAX@std@@@std@@@std@@QEAAXPEAPEAU?$_Tree_node@U?$pair@$$CBUIndex@?$ofxLiquidEvent@VValue@Json@@@@V?$function@$$A6AXAEAVValue@Json@@@Z@std@@@std@@PEAX@1@AEAPEAU21@@Z
	??$construct@PEAU?$_Tree_node@U?$pair@$$CBUIndex@?$ofxLiquidEvent@VValue@Json@@@@V?$function@$$A6AXAEAVValue@Json@@@Z@std@@@std@@PEAX@std@@AEAPEAU12@@?$allocator@U?$_Tree_node@U?$pair@$$CBUIndex@?$ofxLiquidEvent@VValue@Json@@@@V?$function@$$A6AXAEAVValue@Json@@@Z@std@@@std@@PEAX@std@@@std@@QEAAXPEAPEAU?$_Tree_node@U?$pair@$$CBUIndex@?$ofxLiquidEvent@VValue@Json@@@@V?$function@$$A6AXAEAVValue@Json@@@Z@std@@@std@@PEAX@1@AEAPEAU21@@Z
	??$construct@PEAU?$_Tree_node@U?$pair@$$CBUIndex@?$ofxLiquidEvent@VValue@Json@@@@V?$function@$$A6AXAEAVValue@Json@@@Z@std@@@std@@PEAX@std@@AEAPEAU12@@?$allocator_traits@V?$allocator@U?$_Tree_node@U?$pair@$$CBUIndex@?$ofxLiquidEvent@VValue@Json@@@@V?$function@$$A6AXAEAVValue@Json@@@Z@std@@@std@@PEAX@std@@@std@@@std@@SAXAEAV?$allocator@U?$_Tree_node@U?$pair@$$CBUIndex@?$ofxLiquidEvent@VValue@Json@@@@V?$function@$$A6AXAEAVValue@Json@@@Z@std@@@std@@PEAX@std@@@1@PEAPEAU?$_Tree_node@U?$pair@$$CBUIndex@?$ofxLiquidEvent@VValue@Json@@@@V?$function@$$A6AXAEAVValue@Json@@@Z@std@@@std@@PEAX@1@AEAPEAU31@@Z
	??$construct@U?$pair@$$CBUIndex@?$ofxLiquidEvent@UDrawArguments@ofxCvGui@@@@V?$function@$$A6AXAEAUDrawArguments@ofxCvGui@@@Z@std@@@std@@U?$pair@UIndex@?$ofxLiquidEvent@UDrawArguments@ofxCvGui@@@@V?$function@$$A6AXAEAUDrawArguments@ofxCvGui@@@Z@std@@@2@@?$_Wrap_alloc@V?$allocator@U?$_Tree_node@U?$pair@$$CBUIndex@?$ofxLiquidEvent@UDrawArguments@ofxCvGui@@@@V?$function@$$A6AXAEAUDrawArguments@ofxCvGui@@@Z@std@@@std@@PEAX@std@@@std@@@std@@QEAAXPEAU?$pair@$$CBUIndex@?$ofxLiquidEvent@UDrawArguments@ofxCvGui@@@@V?$function@$$A6AXAEAUDrawArguments@ofxCvGui@@@Z@std@@@1@$$QEAU?$pair@UIndex@?$ofxLiquidEvent@UDrawArguments@ofxCvGui@@@@V?$function@$$A6AXAEAUDrawArguments@ofxCvGui@@@Z@std@@@1@@Z
	??$construct@U?$pair@$$CBUIndex@?$ofxLiquidEvent@UDrawArguments@ofxCvGui@@@@V?$function@$$A6AXAEAUDrawArguments@ofxCvGui@@@Z@std@@@std@@U?$pair@UIndex@?$ofxLiquidEvent@UDrawArguments@ofxCvGui@@@@V?$function@$$A6AXAEAUDrawArguments@ofxCvGui@@@Z@std@@@2@@?$allocator@U?$_Tree_node@U?$pair@$$CBUIndex@?$ofxLiquidEvent@UDrawArguments@ofxCvGui@@@@V?$function@$$A6AXAEAUDrawArguments@ofxCvGui@@@Z@std@@@std@@PEAX@std@@@std@@QEAAXPEAU?$pair@$$CBUIndex@?$ofxLiquidEvent@UDrawArguments@ofxCvGui@@@@V?$function@$$A6AXAEAUDrawArguments@ofxCvGui@@@Z@std@@@1@$$QEAU?$pair@UIndex@?$ofxLiquidEvent@UDrawArguments@ofxCvGui@@@@V?$function@$$A6AXAEAUDrawArguments@ofxCvGui@@@Z@std@@@1@@Z
	??$construct@U?$pair@$$CBUIndex@?$ofxLiquidEvent@UDrawArguments@ofxCvGui@@@@V?$function@$$A6AXAEAUDrawArguments@ofxCvGui@@@Z@std@@@std@@U?$pair@UIndex@?$ofxLiquidEvent@UDrawArguments@ofxCvGui@@@@V?$function@$$A6AXAEAUDrawArguments@ofxCvGui@@@Z@std@@@2@@?$allocator_traits@V?$allocator@U?$_Tree_node@U?$pair@$$CBUIndex@?$ofxLiquidEvent@UDrawArguments@ofxCvGui@@@@V?$function@$$A6AXAEAUDrawArguments@ofxCvGui@@@Z@std@@@std@@PEAX@std@@@std@@@std@@SAXAEAV?$allocator@U?$_Tree_node@U?$pair@$$CBUIndex@?$ofxLiquidEvent@UDrawArguments@ofxCvGui@@@@V?$function@$$A6AXAEAUDrawArguments@ofxCvGui@@@Z@std@@@std@@PEAX@std@@@1@PEAU?$pair@$$CBUIndex@?$ofxLiquidEvent@UDrawArguments@ofxCvGui@@@@V?$function@$$A6AXAEAUDrawArguments@ofxCvGui@@@Z@std@@@1@$$QEAU?$pair@UIndex@?$ofxLiquidEvent@UDrawArguments@ofxCvGui@@@@V?$function@$$A6AXAEAUDrawArguments@ofxCvGui@@@Z@std@@@1@@Z
	??$construct@U?$pair@$$CBUIndex@?$ofxLiquidEvent@UInspectArguments@ofxCvGui@@@@V?$function@$$A6AXAEAUInspectArguments@ofxCvGui@@@Z@std@@@std@@U?$pair@UIndex@?$ofxLiquidEvent@UInspectArguments@ofxCvGui@@@@V?$function@$$A6AXAEAUInspectArguments@ofxCvGui@@@Z@std@@@2@@?$_Wrap_alloc@V?$allocator@U?$_Tree_node@U?$pair@$$CBUIndex@?$ofxLiquidEvent@UInspectArguments@ofxCvGui@@@@V?$function@$$A6AXAEAUInspectArguments@ofxCvGui@@@Z@std@@@std@@PEAX@std@@@std@@@std@@QEAAXPEAU?$pair@$$CBUIndex@?$ofxLiquidEvent@UInspectArguments@ofxCvGui@@@@V?$function@$$A6AXAEAUInspectArguments@ofxCvGui@@@Z@std@@@1@$$QEAU?$pair@UIndex@?$ofxLiquidEvent@UInspectArguments@ofxCvGui@@@@V?$function@$$A6AXAEAUInspectArguments@ofxCvGui@@@Z@std@@@1@@Z
	??$construct@U?$pair@$$CBUIndex@?$ofxLiquidEvent@UInspectArguments@ofxCvGui@@@@V?$function@$$A6AXAEAUInspectArguments@ofxCvGui@@@Z@std@@@std@@U?$pair@UIndex@?$ofxLiquidEvent@UInspectArguments@ofxCvGui@@@@V?$function@$$A6AXAEAUInspectArguments@ofxCvGui@@@Z@std@@@2@@?$allocator@U?$_Tree_node@U?$pair@$$CBUIndex@?$ofxLiquidEvent@UInspectArguments@ofxCvGui@@@@V?$function@$$A6AXAEAUInspectArguments@ofxCvGui@@@Z@std@@@std@@PEAX@std@@@std@@QEAAXPEAU?$pair@$$CBUIndex@?$ofxLiquidEvent@UInspectArguments@ofxCvGui@@@@V?$function@$$A6AXAEAUInspectArguments@ofxCvGui@@@Z@std@@@1@$$QEAU?$pair@UIndex@?$ofxLiquidEvent@UInspectArguments@ofxCvGui@@@@V?$function@$$A6AXAEAUInspectArguments@ofxCvGui@@@Z@std@@@1@@Z
	??$construct@U?$pair@$$CBUIndex@?$ofxLiquidEvent@UInspectArguments@ofxCvGui@@@@V?$function@$$A6AXAEAUInspectArguments@ofxCvGui@@@Z@std@@@std@@U?$pair@UIndex@?$ofxLiquidEvent@UInspectArguments@ofxCvGui@@@@V?$function@$$A6AXAEAUInspectArguments@ofxCvGui@@@Z@std@@@2@@?$allocator_traits@V?$allocator@U?$_Tree_node@U?$pair@$$CBUIndex@?$ofxLiquidEvent@UInspectArguments@ofxCvGui@@@@V?$function@$$A6AXAEAUInspectArguments@ofxCvGui@@@Z@std@@@std@@PEAX@std@@@std@@@std@@SAXAEAV?$allocator@U?$_Tree_node@U?$pair@$$CBUIndex@?$ofxLiquidEvent@UInspectArguments@ofxCvGui@@@@V?$function@$$A6AXAEAUInspectArguments@ofxCvGui@@@Z@std@@@std@@PEAX@std@@@1@PEAU?$pair@$$CBUIndex@?$ofxLiquidEvent@UInspectArguments@ofxCvGui@@@@V?$function@$$A6AXAEAUInspectArguments@ofxCvGui@@@Z@std@@@1@$$QEAU?$pair@UIndex@?$ofxLiquidEvent@UInspectArguments@ofxCvGui@@@@V?$function@$$A6AXAEAUInspectArguments@ofxCvGui@@@Z@std@@@1@@Z
	??$construct@U?$pair@$$CBUIndex@?$ofxLiquidEvent@V?$shared_ptr@VBase@Nodes@ofxRulr@@@std@@@@V?$function@$$A6AXAEAV?$shared_ptr@VBase@Nodes@ofxRulr@@@std@@@Z@std@@@std@@U?$pair@UIndex@?$ofxLiquidEvent@V?$shared_ptr@VBase@Nodes@ofxRulr@@@std@@@@V?$function@$$A6AXAEAV?$shared_ptr@VBase@Nodes@ofxRulr@@@std@@@Z@std@@@2@@?$_Wrap_alloc@V?$allocator@U?$_Tree_node@U?$pair@$$CBUIndex@?$ofxLiquidEvent@V?$shared_ptr@VBase@Nodes@ofxRulr@@@std@@@@V?$function@$$A6AXAEAV?$shared_ptr@VBase@Nodes@ofxRulr@@@std@@@Z@std@@@std@@PEAX@std@@@std@@@std@@QEAAXPEAU?$pair@$$CBUIndex@?$ofxLiquidEvent@V?$shared_ptr@VBase@Nodes@ofxRulr@@@std@@@@V?$function@$$A6AXAEAV?$shared_ptr@VBase@Nodes@ofxRulr@@@std@@@Z@std@@@1@$$QEAU?$pair@UIndex@?$ofxLiquidEvent@V?$shared_ptr@VBase@Nodes@ofxRulr@@@std@@@@V?$function@$$A6AXAEAV?$shared_ptr@VBase@Nodes@ofxRulr@@@std@@@Z@std@@@1@@Z
	??$construct@U?$pair@$$CBUIndex@?$ofxLiquidEvent@V?$shared_ptr@VBase@Nodes@ofxRulr@@@std@@@@V?$function@$$A6AXAEAV?$shared_ptr@VBase@Nodes@ofxRulr@@@std@@@Z@std@@@std@@U?$pair@UIndex@?$ofxLiquidEvent@V?$shared_ptr@VBase@Nodes@ofxRulr@@@std@@@@V?$function@$$A6AXAEAV?$shared_ptr@VBase@Nodes@ofxRulr@@@std@@@Z@std@@@2@@?$allocator@U?$_Tree_node@U?$pair@$$CBUIndex@?$ofxLiquidEvent@V?$shared_ptr@VBase@Nodes@ofxRulr@@@std@@@@V?$function@$$A6AXAEAV?$shared_ptr@VBase@Nodes@ofxRulr@@@std@@@Z@std@@@std@@PEAX@std@@@std@@QEAAXPEAU?$pair@$$CBUIndex@?$ofxLiquidEvent@V?$shared_ptr@VBase@Nodes@ofxRulr@@@std@@@@V?$function@$$A6AXAEAV?$shared_ptr@VBase@Nodes@ofxRulr@@@std@@@Z@std@@@1@$$QEAU?$pair@UIndex@?$ofxLiquidEvent@V?$shared_ptr@VBase@Nodes@ofxRulr@@@std@@@@V?$function@$$A6AXAEAV?$shared_ptr@VBase@Nodes@ofxRulr@@@std@@@Z@std@@@1@@Z
	??$construct@U?$pair@$$CBUIndex@?$ofxLiquidEvent@V?$shared_ptr@VBase@Nodes@ofxRulr@@@std@@@@V?$function@$$A6AXAEAV?$shared_ptr@VBase@Nodes@ofxRulr@@@std@@@Z@std@@@std@@U?$pair@UIndex@?$ofxLiquidEvent@V?$shared_ptr@VBase@Nodes@ofxRulr@@@std@@@@V?$function@$$A6AXAEAV?$shared_ptr@VBase@Nodes@ofxRulr@@@std@@@Z@std@@@2@@?$allocator_traits@V?$allocator@U?$_Tree_node@U?$pair@$$CBUIndex@?$ofxLiquidEvent@V?$shared_ptr@VBase@Nodes@ofxRulr@@@std@@@@V?$function@$$A6AXAEAV?$shared_ptr@VBase@Nodes@ofxRulr@@@std@@@Z@std@@@std@@PEAX@std@@@std@@@std@@SAXAEAV?$allocator@U?$_Tree_node@U?$pair@$$CBUIndex@?$ofxLiquidEvent@V?$shared_ptr@VBase@Nodes@ofxRulr@@@std@@@@V?$function@$$A6AXAEAV?$shared_ptr@VBase@Nodes@ofxRulr@@@std@@@Z@std@@@std@@PEAX@std@@@1@PEAU?$pair@$$CBUIndex@?$ofxLiquidEvent@V?$shared_ptr@VBase@Nodes@ofxRulr@@@std@@@@V?$function@$$A6AXAEAV?$shared_ptr@VBase@Nodes@ofxRulr@@@std@@@Z@std@@@1@$$QEAU?$pair@UIndex@?$ofxLiquidEvent@V?$shared_ptr@VBase@Nodes@ofxRulr@@@std@@@@V?$function@$$A6AXAEAV?$shared_ptr@VBase@Nodes@ofxRulr@@@std@@@Z@std@@@1@@Z
	??$construct@U?$pair@$$CBUIndex@?$ofxLiquidEvent@VMouseArguments@ofxCvGui@@@@V?$function@$$A6AXAEAVMouseArguments@ofxCvGui@@@Z@std@@@std@@U?$pair@UIndex@?$ofxLiquidEvent@VMouseArguments@ofxCvGui@@@@V?$function@$$A6AXAEAVMouseArguments@ofxCvGui@@@Z@std@@@2@@?$_Wrap_alloc@V?$allocator@U?$_Tree_node@U?$pair@$$CBUIndex@?$ofxLiquidEvent@VMouseArguments@ofxCvGui@@@@V?$function@$$A6AXAEAVMouseArguments@ofxCvGui@@@Z@std@@@std@@PEAX@std@@@std@@@std@@QEAAXPEAU?$pair@$$CBUIndex@?$ofxLiquidEvent@VMouseArguments@ofxCvGui@@@@V?$function@$$A6AXAEAVMouseArguments@ofxCvGui@@@Z@std@@@1@$$QEAU?$pair@UIndex@?$ofxLiquidEvent@VMouseArguments@ofxCvGui@@@@V?$function@$$A6AXAEAVMouseArguments@ofxCvGui@@@Z@std@@@1@@Z
	??$construct@U?$pair@$$CBUIndex@?$ofxLiquidEvent@VMouseArguments@ofxCvGui@@@@V?$function@$$A6AXAEAVMouseArguments@ofxCvGui@@@Z@std@@@std@@U?$pair@UIndex@?$ofxLiquidEvent@VMouseArguments@ofxCvGui@@@@V?$function@$$A6AXAEAVMouseArguments@ofxCvGui@@@Z@std@@@2@@?$allocator@U?$_Tree_node@U?$pair@$$CBUIndex@?$ofxLiquidEvent@VMouseArguments@ofxCvGui@@@@V?$function@$$A6AXAEAVMouseArguments@ofxCvGui@@@Z@std@@@std@@PEAX@std@@@std@@QEAAXPEAU?$pair@$$CBUIndex@?$ofxLiquidEvent@VMouseArguments@ofxCvGui@@@@V?$function@$$A6AXAEAVMouseArguments@ofxCvGui@@@Z@std@@@1@$$QEAU?$pair@UIndex@?$ofxLiquidEvent@VMouseArguments@ofxCvGui@@@@V?$function@$$A6AXAEAVMouseArguments@ofxCvGui@@@Z@std@@@1@@Z
	??$construct@U?$pair@$$CBUIndex@?$ofxLiquidEvent@VMouseArguments@ofxCvGui@@@@V?$function@$$A6AXAEAVMouseArguments@ofxCvGui@@@Z@std@@@std@@U?$pair@UIndex@?$ofxLiquidEvent@VMouseArguments@ofxCvGui@@@@V?$function@$$A6AXAEAVMouseArguments@ofxCvGui@@@Z@std@@@2@@?$allocator_traits@V?$allocator@U?$_Tree_node@U?$pair@$$CBUIndex@?$ofxLiquidEvent@VMouseArguments@ofxCvGui@@@@V?$function@$$A6AXAEAVMouseArguments@ofxCvGui@@@Z@std@@@std@@PEAX@std@@@std@@@std@@SAXAEAV?$allocator@U?$_Tree_node@U?$pair@$$CBUIndex@?$ofxLiquidEvent@VMouseArguments@ofxCvGui@@@@V?$function@$$A6AXAEAVMouseArguments@ofxCvGui@@@Z@std@@@std@@PEAX@std@@@1@PEAU?$pair@$$CBUIndex@?$ofxLiquidEvent@VMouseArguments@ofxCvGui@@@@V?$function@$$A6AXAEAVMouseArguments@ofxCvGui@@@Z@std@@@1@$$QEAU?$pair@UIndex@?$ofxLiquidEvent@VMouseArguments@ofxCvGui@@@@V?$function@$$A6AXAEAVMouseArguments@ofxCvGui@@@Z@std@@@1@@Z
	??$construct@V?$_Func_impl@V<lambda_224f972154009ce07fce020ee97da390>@@V?$allocator@H@std@@XAEAUDrawArguments@ofxCvGui@@@std@@AEBV<lambda_224f972154009ce07fce020ee97da390>@@AEBV?$allocator@H@2@@?$_Wrap_alloc@V?$allocator@V?$_Func_impl@V<lambda_224f972154009ce07fce020ee97da390>@@V?$allocator@H@std@@XAEAUDrawArguments@ofxCvGui@@@std@@@std@@@std@@QEAAXPEAV?$_Func_impl@V<lambda_224f972154009ce07fce020ee97da390>@@V?$allocator@H@std@@XAEAUDrawArguments@ofxCvGui@@@1@AEBV<lambda_224f972154009ce07fce020ee97da390>@@AEBV?$allocator@H@1@@Z
	??$construct@V?$_Func_impl@V<lambda_224f972154009ce07fce020ee97da390>@@V?$allocator@H@std@@XAEAUDrawArguments@ofxCvGui@@@std@@AEBV<lambda_224f972154009ce07fce020ee97da390>@@AEBV?$allocator@H@2@@?$allocator@V?$_Func_impl@V<lambda_224f972154009ce07fce020ee97da390>@@V?$allocator@H@std@@XAEAUDrawArguments@ofxCvGui@@@std@@@std@@QEAAXPEAV?$_Func_impl@V<lambda_224f972154009ce07fce020ee97da390>@@V?$allocator@H@std@@XAEAUDrawArguments@ofxCvGui@@@1@AEBV<lambda_224f972154009ce07fce020ee97da390>@@AEBV?$allocator@H@1@@Z
	??$construct@V?$_Func_impl@V<lambda_224f972154009ce07fce020ee97da390>@@V?$allocator@H@std@@XAEAUDrawArguments@ofxCvGui@@@std@@AEBV<lambda_224f972154009ce07fce020ee97da390>@@AEBV?$allocator@H@2@@?$allocator_traits@V?$allocator@V?$_Func_impl@V<lambda_224f972154009ce07fce020ee97da390>@@V?$allocator@H@std@@XAEAUDrawArguments@ofxCvGui@@@std@@@std@@@std@@SAXAEAV?$allocator@V?$_Func_impl@V<lambda_224f972154009ce07fce020ee97da390>@@V?$allocator@H@std@@XAEAUDrawArguments@ofxCvGui@@@std@@@1@PEAV?$_Func_impl@V<lambda_224f972154009ce07fce020ee97da390>@@V?$allocator@H@std@@XAEAUDrawArguments@ofxCvGui@@@1@AEBV<lambda_224f972154009ce07fce020ee97da390>@@AEBV?$allocator@H@1@@Z
	??$construct@V?$_Func_impl@V<lambda_224f972154009ce07fce020ee97da390>@@V?$allocator@H@std@@XAEAUDrawArguments@ofxCvGui@@@std@@V<lambda_224f972154009ce07fce020ee97da390>@@AEBV?$allocator@H@2@@?$_Wrap_alloc@V?$allocator@V?$_Func_impl@V<lambda_224f972154009ce07fce020ee97da390>@@V?$allocator@H@std@@XAEAUDrawArguments@ofxCvGui@@@std@@@std@@@std@@QEAAXPEAV?$_Func_impl@V<lambda_224f972154009ce07fce020ee97da390>@@V?$allocator@H@std@@XAEAUDrawArguments@ofxCvGui@@@1@$$QEAV<lambda_224f972154009ce07fce020ee97da390>@@AEBV?$allocator@H@1@@Z
	??$construct@V?$_Func_impl@V<lambda_224f972154009ce07fce020ee97da390>@@V?$allocator@H@std@@XAEAUDrawArguments@ofxCvGui@@@std@@V<lambda_224f972154009ce07fce020ee97da390>@@AEBV?$allocator@H@2@@?$allocator@V?$_Func_impl@V<lambda_224f972154009ce07fce020ee97da390>@@V?$allocator@H@std@@XAEAUDrawArguments@ofxCvGui@@@std@@@std@@QEAAXPEAV?$_Func_impl@V<lambda_224f972154009ce07fce020ee97da390>@@V?$allocator@H@std@@XAEAUDrawArguments@ofxCvGui@@@1@$$QEAV<lambda_224f972154009ce07fce020ee97da390>@@AEBV?$allocator@H@1@@Z
	??$construct@V?$_Func_impl@V<lambda_224f972154009ce07fce020ee97da390>@@V?$allocator@H@std@@XAEAUDrawArguments@ofxCvGui@@@std@@V<lambda_224f972154009ce07fce020ee97da390>@@AEBV?$allocator@H@2@@?$allocator_traits@V?$allocator@V?$_Func_impl@V<lambda_224f972154009ce07fce020ee97da390>@@V?$allocator@H@std@@XAEAUDrawArguments@ofxCvGui@@@std@@@std@@@std@@SAXAEAV?$allocator@V?$_Func_impl@V<lambda_224f972154009ce07fce020ee97da390>@@V?$allocator@H@std@@XAEAUDrawArguments@ofxCvGui@@@std@@@1@PEAV?$_Func_impl@V<lambda_224f972154009ce07fce020ee97da390>@@V?$allocator@H@std@@XAEAUDrawArguments@ofxCvGui@@@1@$$QEAV<lambda_224f972154009ce07fce020ee97da390>@@AEBV?$allocator@H@1@@Z
	??$construct@V?$_Func_impl@V<lambda_224f972154009ce07fce020ee97da390>@@V?$allocator@H@std@@XAEAUDrawArguments@ofxCvGui@@@std@@V<lambda_224f972154009ce07fce020ee97da390>@@V?$allocator@H@2@@?$_Wrap_alloc@V?$allocator@V?$_Func_impl@V<lambda_224f972154009ce07fce020ee97da390>@@V?$allocator@H@std@@XAEAUDrawArguments@ofxCvGui@@@std@@@std@@@std@@QEAAXPEAV?$_Func_impl@V<lambda_224f972154009ce07fce020ee97da390>@@V?$allocator@H@std@@XAEAUDrawArguments@ofxCvGui@@@1@$$QEAV<lambda_224f972154009ce07fce020ee97da390>@@$$QEAV?$allocator@H@1@@Z
	??$construct@V?$_Func_impl@V<lambda_224f972154009ce07fce020ee97da390>@@V?$allocator@H@std@@XAEAUDrawArguments@ofxCvGui@@@std@@V<lambda_224f972154009ce07fce020ee97da390>@@V?$allocator@H@2@@?$allocator@V?$_Func_impl@V<lambda_224f972154009ce07fce020ee97da390>@@V?$allocator@H@std@@XAEAUDrawArguments@ofxCvGui@@@std@@@std@@QEAAXPEAV?$_Func_impl@V<lambda_224f972154009ce07fce020ee97da390>@@V?$allocator@H@std@@XAEAUDrawArguments@ofxCvGui@@@1@$$QEAV<lambda_224f972154009ce07fce020ee97da390>@@$$QEAV?$allocator@H@1@@Z
	??$construct@V?$_Func_impl@V<lambda_224f972154009ce07fce020ee97da390>@@V?$allocator@H@std@@XAEAUDrawArguments@ofxCvGui@@@std@@V<lambda_224f972154009ce07fce020ee97da390>@@V?$allocator@H@2@@?$allocator_traits@V?$allocator@V?$_Func_impl@V<lambda_224f972154009ce07fce020ee97da390>@@V?$allocator@H@std@@XAEAUDrawArguments@ofxCvGui@@@std@@@std@@@std@@SAXAEAV?$allocator@V?$_Func_impl@V<lambda_224f972154009ce07fce020ee97da390>@@V?$allocator@H@std@@XAEAUDrawArguments@ofxCvGui@@@std@@@1@PEAV?$_Func_impl@V<lambda_224f972154009ce07fce020ee97da390>@@V?$allocator@H@std@@XAEAUDrawArguments@ofxCvGui@@@1@$$QEAV<lambda_224f972154009ce07fce020ee97da390>@@$$QEAV?$allocator@H@1@@Z
	??$construct@V?$_Func_impl@V<lambda_3f0c0cc2dc2c270df32f5410d7922b45>@@V?$allocator@H@std@@XAEAUInspectArguments@ofxCvGui@@@std@@AEBV<lambda_3f0c0cc2dc2c270df32f5410d7922b45>@@AEBV?$allocator@H@2@@?$_Wrap_alloc@V?$allocator@V?$_Func_impl@V<lambda_3f0c0cc2dc2c270df32f5410d7922b45>@@V?$allocator@H@std@@XAEAUInspectArguments@ofxCvGui@@@std@@@std@@@std@@QEAAXPEAV?$_Func_impl@V<lambda_3f0c0cc2dc2c270df32f5410d7922b45>@@V?$allocator@H@std@@XAEAUInspectArguments@ofxCvGui@@@1@AEBV<lambda_3f0c0cc2dc2c270df32f5410d7922b45>@@AEBV?$allocator@H@1@@Z
	??$construct@V?$_Func_impl@V<lambda_3f0c0cc2dc2c270df32f5410d7922b45>@@V?$allocator@H@std@@XAEAUInspectArguments@ofxCvGui@@@std@@AEBV<lambda_3f0c0cc2dc2c270df32f5410d7922b45>@@AEBV?$allocator@H@2@@?$allocator@V?$_Func_impl@V<lambda_3f0c0cc2dc2c270df32f5410d7922b45>@@V?$allocator@H@std@@XAEAUInspectArguments@ofxCvGui@@@std@@@std@@QEAAXPEAV?$_Func_impl@V<lambda_3f0c0cc2dc2c270df32f5410d7922b45>@@V?$allocator@H@std@@XAEAUInspectArguments@ofxCvGui@@@1@AEBV<lambda_3f0c0cc2dc2c270df32f5410d7922b45>@@AEBV?$allocator@H@1@@Z
	??$construct@V?$_Func_impl@V<lambda_3f0c0cc2dc2c270df32f5410d7922b45>@@V?$allocator@H@std@@XAEAUInspectArguments@ofxCvGui@@@std@@AEBV<lambda_3f0c0cc2dc2c270df32f5410d7922b45>@@AEBV?$allocator@H@2@@?$allocator_traits@V?$allocator@V?$_Func_impl@V<lambda_3f0c0cc2dc2c270df32f5410d7922b45>@@V?$allocator@H@std@@XAEAUInspectArguments@ofxCvGui@@@std@@@std@@@std@@SAXAEAV?$allocator@V?$_Func_impl@V<lambda_3f0c0cc2dc2c270df32f5410d7922b45>@@V?$allocator@H@std@@XAEAUInspectArguments@ofxCvGui@@@std@@@1@PEAV?$_Func_impl@V<lambda_3f0c0cc2dc2c270df32f5410d7922b45>@@V?$allocator@H@std@@XAEAUInspectArguments@ofxCvGui@@@1@AEBV<lambda_3f0c0cc2dc2c270df32f5410d7922b45>@@AEBV?$allocator@H@1@@Z
	??$construct@V?$_Func_impl@V<lambda_3f0c0cc2dc2c270df32f5410d7922b45>@@V?$allocator@H@std@@XAEAUInspectArguments@ofxCvGui@@@std@@V<lambda_3f0c0cc2dc2c270df32f5410d7922b45>@@AEBV?$allocator@H@2@@?$_Wrap_alloc@V?$allocator@V?$_Func_impl@V<lambda_3f0c0cc2dc2c270df32f5410d7922b45>@@V?$allocator@H@std@@XAEAUInspectArguments@ofxCvGui@@@std@@@std@@@std@@QEAAXPEAV?$_Func_impl@V<lambda_3f0c0cc2dc2c270df32f5410d7922b45>@@V?$allocator@H@std@@XAEAUInspectArguments@ofxCvGui@@@1@$$QEAV<lambda_3f0c0cc2dc2c270df32f5410d7922b45>@@AEBV?$allocator@H@1@@Z
	??$construct@V?$_Func_impl@V<lambda_3f0c0cc2dc2c270df32f5410d7922b45>@@V?$allocator@H@std@@XAEAUInspectArguments@ofxCvGui@@@std@@V<lambda_3f0c0cc2dc2c270df32f5410d7922b45>@@AEBV?$allocator@H@2@@?$allocator@V?$_Func_impl@V<lambda_3f0c0cc2dc2c270df32f5410d7922b45>@@V?$allocator@H@std@@XAEAUInspectArguments@ofxCvGui@@@std@@@std@@QEAAXPEAV?$_Func_impl@V<lambda_3f0c0cc2dc2c270df32f5410d7922b45>@@V?$allocator@H@std@@XAEAUInspectArguments@ofxCvGui@@@1@$$QEAV<lambda_3f0c0cc2dc2c270df32f5410d7922b45>@@AEBV?$allocator@H@1@@Z
	??$construct@V?$_Func_impl@V<lambda_3f0c0cc2dc2c270df32f5410d7922b45>@@V?$allocator@H@std@@XAEAUInspectArguments@ofxCvGui@@@std@@V<lambda_3f0c0cc2dc2c270df32f5410d7922b45>@@AEBV?$allocator@H@2@@?$allocator_traits@V?$allocator@V?$_Func_impl@V<lambda_3f0c0cc2dc2c270df32f5410d7922b45>@@V?$allocator@H@std@@XAEAUInspectArguments@ofxCvGui@@@std@@@std@@@std@@SAXAEAV?$allocator@V?$_Func_impl@V<lambda_3f0c0cc2dc2c270df32f5410d7922b45>@@V?$allocator@H@std@@XAEAUInspectArguments@ofxCvGui@@@std@@@1@PEAV?$_Func_impl@V<lambda_3f0c0cc2dc2c270df32f5410d7922b45>@@V?$allocator@H@std@@XAEAUInspectArguments@ofxCvGui@@@1@$$QEAV<lambda_3f0c0cc2dc2c270df32f5410d7922b45>@@AEBV?$allocator@H@1@@Z
	??$construct@V?$_Func_impl@V<lambda_3f0c0cc2dc2c270df32f5410d7922b45>@@V?$allocator@H@std@@XAEAUInspectArguments@ofxCvGui@@@std@@V<lambda_3f0c0cc2dc2c270df32f5410d7922b45>@@V?$allocator@H@2@@?$_Wrap_alloc@V?$allocator@V?$_Func_impl@V<lambda_3f0c0cc2dc2c270df32f5410d7922b45>@@V?$allocator@H@std@@XAEAUInspectArguments@ofxCvGui@@@std@@@std@@@std@@QEAAXPEAV?$_Func_impl@V<lambda_3f0c0cc2dc2c270df32f5410d7922b45>@@V?$allocator@H@std@@XAEAUInspectArguments@ofxCvGui@@@1@$$QEAV<lambda_3f0c0cc2dc2c270df32f5410d7922b45>@@$$QEAV?$allocator@H@1@@Z
	??$construct@V?$_Func_impl@V<lambda_3f0c0cc2dc2c270df32f5410d7922b45>@@V?$allocator@H@std@@XAEAUInspectArguments@ofxCvGui@@@std@@V<lambda_3f0c0cc2dc2c270df32f5410d7922b45>@@V?$allocator@H@2@@?$allocator@V?$_Func_impl@V<lambda_3f0c0cc2dc2c270df32f5410d7922b45>@@V?$allocator@H@std@@XAEAUInspectArguments@ofxCvGui@@@std@@@std@@QEAAXPEAV?$_Func_impl@V<lambda_3f0c0cc2dc2c270df32f5410d7922b45>@@V?$allocator@H@std@@XAEAUInspectArguments@ofxCvGui@@@1@$$QEAV<lambda_3f0c0cc2dc2c270df32f5410d7922b45>@@$$QEAV?$allocator@H@1@@Z
	??$construct@V?$_Func_impl@V<lambda_3f0c0cc2dc2c270df32f5410d7922b45>@@V?$allocator@H@std@@XAEAUInspectArguments@ofxCvGui@@@std@@V<lambda_3f0c0cc2dc2c270df32f5410d7922b45>@@V?$allocator@H@2@@?$allocator_traits@V?$allocator@V?$_Func_impl@V<lambda_3f0c0cc2dc2c270df32f5410d7922b45>@@V?$allocator@H@std@@XAEAUInspectArguments@ofxCvGui@@@std@@@std@@@std@@SAXAEAV?$allocator@V?$_Func_impl@V<lambda_3f0c0cc2dc2c270df32f5410d7922b45>@@V?$allocator@H@std@@XAEAUInspectArguments@ofxCvGui@@@std@@@1@PEAV?$_Func_impl@V<lambda_3f0c0cc2dc2c270df32f5410d7922b45>@@V?$allocator@H@std@@XAEAUInspectArguments@ofxCvGui@@@1@$$QEAV<lambda_3f0c0cc2dc2c270df32f5410d7922b45>@@$$QEAV?$allocator@H@1@@Z
	??$construct@V?$_Func_impl@V<lambda_4c58b929085e86163cd52e877c9c6f45>@@V?$allocator@H@std@@XAEAV?$shared_ptr@VBase@Nodes@ofxRulr@@@3@@std@@AEBV<lambda_4c58b929085e86163cd52e877c9c6f45>@@AEBV?$allocator@H@2@@?$_Wrap_alloc@V?$allocator@V?$_Func_impl@V<lambda_4c58b929085e86163cd52e877c9c6f45>@@V?$allocator@H@std@@XAEAV?$shared_ptr@VBase@Nodes@ofxRulr@@@3@@std@@@std@@@std@@QEAAXPEAV?$_Func_impl@V<lambda_4c58b929085e86163cd52e877c9c6f45>@@V?$allocator@H@std@@XAEAV?$shared_ptr@VBase@Nodes@ofxRulr@@@3@@1@AEBV<lambda_4c58b929085e86163cd52e877c9c6f45>@@AEBV?$allocator@H@1@@Z
	??$construct@V?$_Func_impl@V<lambda_4c58b929085e86163cd52e877c9c6f45>@@V?$allocator@H@std@@XAEAV?$shared_ptr@VBase@Nodes@ofxRulr@@@3@@std@@AEBV<lambda_4c58b929085e86163cd52e877c9c6f45>@@AEBV?$allocator@H@2@@?$allocator@V?$_Func_impl@V<lambda_4c58b929085e86163cd52e877c9c6f45>@@V?$allocator@H@std@@XAEAV?$shared_ptr@VBase@Nodes@ofxRulr@@@3@@std@@@std@@QEAAXPEAV?$_Func_impl@V<lambda_4c58b929085e86163cd52e877c9c6f45>@@V?$allocator@H@std@@XAEAV?$shared_ptr@VBase@Nodes@ofxRulr@@@3@@1@AEBV<lambda_4c58b929085e86163cd52e877c9c6f45>@@AEBV?$allocator@H@1@@Z
	??$construct@V?$_Func_impl@V<lambda_4c58b929085e86163cd52e877c9c6f45>@@V?$allocator@H@std@@XAEAV?$shared_ptr@VBase@Nodes@ofxRulr@@@3@@std@@AEBV<lambda_4c58b929085e86163cd52e877c9c6f45>@@AEBV?$allocator@H@2@@?$allocator_traits@V?$allocator@V?$_Func_impl@V<lambda_4c58b929085e86163cd52e877c9c6f45>@@V?$allocator@H@std@@XAEAV?$shared_ptr@VBase@Nodes@ofxRulr@@@3@@std@@@std@@@std@@SAXAEAV?$allocator@V?$_Func_impl@V<lambda_4c58b929085e86163cd52e877c9c6f45>@@V?$allocator@H@std@@XAEAV?$shared_ptr@VBase@Nodes@ofxRulr@@@3@@std@@@1@PEAV?$_Func_impl@V<lambda_4c58b929085e86163cd52e877c9c6f45>@@V?$allocator@H@std@@XAEAV?$shared_ptr@VBase@Nodes@ofxRulr@@@3@@1@AEBV<lambda_4c58b929085e86163cd52e877c9c6f45>@@AEBV?$allocator@H@1@@Z
	??$construct@V?$_Func_impl@V<lambda_4c58b929085e86163cd52e877c9c6f45>@@V?$allocator@H@std@@XAEAV?$shared_ptr@VBase@Nodes@ofxRulr@@@3@@std@@V<lambda_4c58b929085e86163cd52e877c9c6f45>@@AEBV?$allocator@H@2@@?$_Wrap_alloc@V?$allocator@V?$_Func_impl@V<lambda_4c58b929085e86163cd52e877c9c6f45>@@V?$allocator@H@std@@XAEAV?$shared_ptr@VBase@Nodes@ofxRulr@@@3@@std@@@std@@@std@@QEAAXPEAV?$_Func_impl@V<lambda_4c58b929085e86163cd52e877c9c6f45>@@V?$allocator@H@std@@XAEAV?$shared_ptr@VBase@Nodes@ofxRulr@@@3@@1@$$QEAV<lambda_4c58b929085e86163cd52e877c9c6f45>@@AEBV?$allocator@H@1@@Z
	??$construct@V?$_Func_impl@V<lambda_4c58b929085e86163cd52e877c9c6f45>@@V?$allocator@H@std@@XAEAV?$shared_ptr@VBase@Nodes@ofxRulr@@@3@@std@@V<lambda_4c58b929085e86163cd52e877c9c6f45>@@AEBV?$allocator@H@2@@?$allocator@V?$_Func_impl@V<lambda_4c58b929085e86163cd52e877c9c6f45>@@V?$allocator@H@std@@XAEAV?$shared_ptr@VBase@Nodes@ofxRulr@@@3@@std@@@std@@QEAAXPEAV?$_Func_impl@V<lambda_4c58b929085e86163cd52e877c9c6f45>@@V?$allocator@H@std@@XAEAV?$shared_ptr@VBase@Nodes@ofxRulr@@@3@@1@$$QEAV<lambda_4c58b929085e86163cd52e877c9c6f45>@@AEBV?$allocator@H@1@@Z
	??$construct@V?$_Func_impl@V<lambda_4c58b929085e86163cd52e877c9c6f45>@@V?$allocator@H@std@@XAEAV?$shared_ptr@VBase@Nodes@ofxRulr@@@3@@std@@V<lambda_4c58b929085e86163cd52e877c9c6f45>@@AEBV?$allocator@H@2@@?$allocator_traits@V?$allocator@V?$_Func_impl@V<lambda_4c58b929085e86163cd52e877c9c6f45>@@V?$allocator@H@std@@XAEAV?$shared_ptr@VBase@Nodes@ofxRulr@@@3@@std@@@std@@@std@@SAXAEAV?$allocator@V?$_Func_impl@V<lambda_4c58b929085e86163cd52e877c9c6f45>@@V?$allocator@H@std@@XAEAV?$shared_ptr@VBase@Nodes@ofxRulr@@@3@@std@@@1@PEAV?$_Func_impl@V<lambda_4c58b929085e86163cd52e877c9c6f45>@@V?$allocator@H@std@@XAEAV?$shared_ptr@VBase@Nodes@ofxRulr@@@3@@1@$$QEAV<lambda_4c58b929085e86163cd52e877c9c6f45>@@AEBV?$allocator@H@1@@Z
	??$construct@V?$_Func_impl@V<lambda_4c58b929085e86163cd52e877c9c6f45>@@V?$allocator@H@std@@XAEAV?$shared_ptr@VBase@Nodes@ofxRulr@@@3@@std@@V<lambda_4c58b929085e86163cd52e877c9c6f45>@@V?$allocator@H@2@@?$_Wrap_alloc@V?$allocator@V?$_Func_impl@V<lambda_4c58b929085e86163cd52e877c9c6f45>@@V?$allocator@H@std@@XAEAV?$shared_ptr@VBase@Nodes@ofxRulr@@@3@@std@@@std@@@std@@QEAAXPEAV?$_Func_impl@V<lambda_4c58b929085e86163cd52e877c9c6f45>@@V?$allocator@H@std@@XAEAV?$shared_ptr@VBase@Nodes@ofxRulr@@@3@@1@$$QEAV<lambda_4c58b929085e86163cd52e877c9c6f45>@@$$QEAV?$allocator@H@1@@Z
	??$construct@V?$_Func_impl@V<lambda_4c58b929085e86163cd52e877c9c6f45>@@V?$allocator@H@std@@XAEAV?$shared_ptr@VBase@Nodes@ofxRulr@@@3@@std@@V<lambda_4c58b929085e86163cd52e877c9c6f45>@@V?$allocator@H@2@@?$allocator@V?$_Func_impl@V<lambda_4c58b929085e86163cd52e877c9c6f45>@@V?$allocator@H@std@@XAEAV?$shared_ptr@VBase@Nodes@ofxRulr@@@3@@std@@@std@@QEAAXPEAV?$_Func_impl@V<lambda_4c58b929085e86163cd52e877c9c6f45>@@V?$allocator@H@std@@XAEAV?$shared_ptr@VBase@Nodes@ofxRulr@@@3@@1@$$QEAV<lambda_4c58b929085e86163cd52e877c9c6f45>@@$$QEAV?$allocator@H@1@@Z
	??$construct@V?$_Func_impl@V<lambda_4c58b929085e86163cd52e877c9c6f45>@@V?$allocator@H@std@@XAEAV?$shared_ptr@VBase@Nodes@ofxRulr@@@3@@std@@V<lambda_4c58b929085e86163cd52e877c9c6f45>@@V?$allocator@H@2@@?$allocator_traits@V?$allocator@V?$_Func_impl@V<lambda_4c58b929085e86163cd52e877c9c6f45>@@V?$allocator@H@std@@XAEAV?$shared_ptr@VBase@Nodes@ofxRulr@@@3@@std@@@std@@@std@@SAXAEAV?$allocator@V?$_Func_impl@V<lambda_4c58b929085e86163cd52e877c9c6f45>@@V?$allocator@H@std@@XAEAV?$shared_ptr@VBase@Nodes@ofxRulr@@@3@@std@@@1@PEAV?$_Func_impl@V<lambda_4c58b929085e86163cd52e877c9c6f45>@@V?$allocator@H@std@@XAEAV?$shared_ptr@VBase@Nodes@ofxRulr@@@3@@1@$$QEAV<lambda_4c58b929085e86163cd52e877c9c6f45>@@$$QEAV?$allocator@H@1@@Z
	??$construct@V?$_Func_impl@V<lambda_7d9f195a84659425a41697390fba70cd>@@V?$allocator@H@std@@W4Status@Indicator@Widgets@ofxCvGui@@$$V@std@@AEBV<lambda_7d9f195a84659425a41697390fba70cd>@@AEBV?$allocator@H@2@@?$_Wrap_alloc@V?$allocator@V?$_Func_impl@V<lambda_7d9f195a84659425a41697390fba70cd>@@V?$allocator@H@std@@W4Status@Indicator@Widgets@ofxCvGui@@$$V@std@@@std@@@std@@QEAAXPEAV?$_Func_impl@V<lambda_7d9f195a84659425a41697390fba70cd>@@V?$allocator@H@std@@W4Status@Indicator@Widgets@ofxCvGui@@$$V@1@AEBV<lambda_7d9f195a84659425a41697390fba70cd>@@AEBV?$allocator@H@1@@Z
	??$construct@V?$_Func_impl@V<lambda_7d9f195a84659425a41697390fba70cd>@@V?$allocator@H@std@@W4Status@Indicator@Widgets@ofxCvGui@@$$V@std@@AEBV<lambda_7d9f195a84659425a41697390fba70cd>@@AEBV?$allocator@H@2@@?$allocator@V?$_Func_impl@V<lambda_7d9f195a84659425a41697390fba70cd>@@V?$allocator@H@std@@W4Status@Indicator@Widgets@ofxCvGui@@$$V@std@@@std@@QEAAXPEAV?$_Func_impl@V<lambda_7d9f195a84659425a41697390fba70cd>@@V?$allocator@H@std@@W4Status@Indicator@Widgets@ofxCvGui@@$$V@1@AEBV<lambda_7d9f195a84659425a41697390fba70cd>@@AEBV?$allocator@H@1@@Z
	??$construct@V?$_Func_impl@V<lambda_7d9f195a84659425a41697390fba70cd>@@V?$allocator@H@std@@W4Status@Indicator@Widgets@ofxCvGui@@$$V@std@@AEBV<lambda_7d9f195a84659425a41697390fba70cd>@@AEBV?$allocator@H@2@@?$allocator_traits@V?$allocator@V?$_Func_impl@V<lambda_7d9f195a84659425a41697390fba70cd>@@V?$allocator@H@std@@W4Status@Indicator@Widgets@ofxCvGui@@$$V@std@@@std@@@std@@SAXAEAV?$allocator@V?$_Func_impl@V<lambda_7d9f195a84659425a41697390fba70cd>@@V?$allocator@H@std@@W4Status@Indicator@Widgets@ofxCvGui@@$$V@std@@@1@PEAV?$_Func_impl@V<lambda_7d9f195a84659425a41697390fba70cd>@@V?$allocator@H@std@@W4Status@Indicator@Widgets@ofxCvGui@@$$V@1@AEBV<lambda_7d9f195a84659425a41697390fba70cd>@@AEBV?$allocator@H@1@@Z
	??$construct@V?$_Func_impl@V<lambda_7d9f195a84659425a41697390fba70cd>@@V?$allocator@H@std@@W4Status@Indicator@Widgets@ofxCvGui@@$$V@std@@V<lambda_7d9f195a84659425a41697390fba70cd>@@AEBV?$allocator@H@2@@?$_Wrap_alloc@V?$allocator@V?$_Func_impl@V<lambda_7d9f195a84659425a41697390fba70cd>@@V?$allocator@H@std@@W4Status@Indicator@Widgets@ofxCvGui@@$$V@std@@@std@@@std@@QEAAXPEAV?$_Func_impl@V<lambda_7d9f195a84659425a41697390fba70cd>@@V?$allocator@H@std@@W4Status@Indicator@Widgets@ofxCvGui@@$$V@1@$$QEAV<lambda_7d9f195a84659425a41697390fba70cd>@@AEBV?$allocator@H@1@@Z
	??$construct@V?$_Func_impl@V<lambda_7d9f195a84659425a41697390fba70cd>@@V?$allocator@H@std@@W4Status@Indicator@Widgets@ofxCvGui@@$$V@std@@V<lambda_7d9f195a84659425a41697390fba70cd>@@AEBV?$allocator@H@2@@?$allocator@V?$_Func_impl@V<lambda_7d9f195a84659425a41697390fba70cd>@@V?$allocator@H@std@@W4Status@Indicator@Widgets@ofxCvGui@@$$V@std@@@std@@QEAAXPEAV?$_Func_impl@V<lambda_7d9f195a84659425a41697390fba70cd>@@V?$allocator@H@std@@W4Status@Indicator@Widgets@ofxCvGui@@$$V@1@$$QEAV<lambda_7d9f195a84659425a41697390fba70cd>@@AEBV?$allocator@H@1@@Z
	??$construct@V?$_Func_impl@V<lambda_7d9f195a84659425a41697390fba70cd>@@V?$allocator@H@std@@W4Status@Indicator@Widgets@ofxCvGui@@$$V@std@@V<lambda_7d9f195a84659425a41697390fba70cd>@@AEBV?$allocator@H@2@@?$allocator_traits@V?$allocator@V?$_Func_impl@V<lambda_7d9f195a84659425a41697390fba70cd>@@V?$allocator@H@std@@W4Status@Indicator@Widgets@ofxCvGui@@$$V@std@@@std@@@std@@SAXAEAV?$allocator@V?$_Func_impl@V<lambda_7d9f195a84659425a41697390fba70cd>@@V?$allocator@H@std@@W4Status@Indicator@Widgets@ofxCvGui@@$$V@std@@@1@PEAV?$_Func_impl@V<lambda_7d9f195a84659425a41697390fba70cd>@@V?$allocator@H@std@@W4Status@Indicator@Widgets@ofxCvGui@@$$V@1@$$QEAV<lambda_7d9f195a84659425a41697390fba70cd>@@AEBV?$allocator@H@1@@Z
	??$construct@V?$_Func_impl@V<lambda_7d9f195a84659425a41697390fba70cd>@@V?$allocator@H@std@@W4Status@Indicator@Widgets@ofxCvGui@@$$V@std@@V<lambda_7d9f195a84659425a41697390fba70cd>@@V?$allocator@H@2@@?$_Wrap_alloc@V?$allocator@V?$_Func_impl@V<lambda_7d9f195a84659425a41697390fba70cd>@@V?$allocator@H@std@@W4Status@Indicator@Widgets@ofxCvGui@@$$V@std@@@std@@@std@@QEAAXPEAV?$_Func_impl@V<lambda_7d9f195a84659425a41697390fba70cd>@@V?$allocator@H@std@@W4Status@Indicator@Widgets@ofxCvGui@@$$V@1@$$QEAV<lambda_7d9f195a84659425a41697390fba70cd>@@$$QEAV?$allocator@H@1@@Z
	??$construct@V?$_Func_impl@V<lambda_7d9f195a84659425a41697390fba70cd>@@V?$allocator@H@std@@W4Status@Indicator@Widgets@ofxCvGui@@$$V@std@@V<lambda_7d9f195a84659425a41697390fba70cd>@@V?$allocator@H@2@@?$allocator@V?$_Func_impl@V<lambda_7d9f195a84659425a41697390fba70cd>@@V?$allocator@H@std@@W4Status@Indicator@Widgets@ofxCvGui@@$$V@std@@@std@@QEAAXPEAV?$_Func_impl@V<lambda_7d9f195a84659425a41697390fba70cd>@@V?$allocator@H@std@@W4Status@Indicator@Widgets@ofxCvGui@@$$V@1@$$QEAV<lambda_7d9f195a84659425a41697390fba70cd>@@$$QEAV?$allocator@H@1@@Z
	??$construct@V?$_Func_impl@V<lambda_7d9f195a84659425a41697390fba70cd>@@V?$allocator@H@std@@W4Status@Indicator@Widgets@ofxCvGui@@$$V@std@@V<lambda_7d9f195a84659425a41697390fba70cd>@@V?$allocator@H@2@@?$allocator_traits@V?$allocator@V?$_Func_impl@V<lambda_7d9f195a84659425a41697390fba70cd>@@V?$allocator@H@std@@W4Status@Indicator@Widgets@ofxCvGui@@$$V@std@@@std@@@std@@SAXAEAV?$allocator@V?$_Func_impl@V<lambda_7d9f195a84659425a41697390fba70cd>@@V?$allocator@H@std@@W4Status@Indicator@Widgets@ofxCvGui@@$$V@std@@@1@PEAV?$_Func_impl@V<lambda_7d9f195a84659425a41697390fba70cd>@@V?$allocator@H@std@@W4Status@Indicator@Widgets@ofxCvGui@@$$V@1@$$QEAV<lambda_7d9f195a84659425a41697390fba70cd>@@$$QEAV?$allocator@H@1@@Z
	??$construct@V?$_Func_impl@V<lambda_803b1ba7fe072d17e44d74762d6426f9>@@V?$allocator@H@std@@XAEAV?$shared_ptr@VBase@Nodes@ofxRulr@@@3@@std@@AEBV<lambda_803b1ba7fe072d17e44d74762d6426f9>@@AEBV?$allocator@H@2@@?$_Wrap_alloc@V?$allocator@V?$_Func_impl@V<lambda_803b1ba7fe072d17e44d74762d6426f9>@@V?$allocator@H@std@@XAEAV?$shared_ptr@VBase@Nodes@ofxRulr@@@3@@std@@@std@@@std@@QEAAXPEAV?$_Func_impl@V<lambda_803b1ba7fe072d17e44d74762d6426f9>@@V?$allocator@H@std@@XAEAV?$shared_ptr@VBase@Nodes@ofxRulr@@@3@@1@AEBV<lambda_803b1ba7fe072d17e44d74762d6426f9>@@AEBV?$allocator@H@1@@Z
	??$construct@V?$_Func_impl@V<lambda_803b1ba7fe072d17e44d74762d6426f9>@@V?$allocator@H@std@@XAEAV?$shared_ptr@VBase@Nodes@ofxRulr@@@3@@std@@AEBV<lambda_803b1ba7fe072d17e44d74762d6426f9>@@AEBV?$allocator@H@2@@?$allocator@V?$_Func_impl@V<lambda_803b1ba7fe072d17e44d74762d6426f9>@@V?$allocator@H@std@@XAEAV?$shared_ptr@VBase@Nodes@ofxRulr@@@3@@std@@@std@@QEAAXPEAV?$_Func_impl@V<lambda_803b1ba7fe072d17e44d74762d6426f9>@@V?$allocator@H@std@@XAEAV?$shared_ptr@VBase@Nodes@ofxRulr@@@3@@1@AEBV<lambda_803b1ba7fe072d17e44d74762d6426f9>@@AEBV?$allocator@H@1@@Z
	??$construct@V?$_Func_impl@V<lambda_803b1ba7fe072d17e44d74762d6426f9>@@V?$allocator@H@std@@XAEAV?$shared_ptr@VBase@Nodes@ofxRulr@@@3@@std@@AEBV<lambda_803b1ba7fe072d17e44d74762d6426f9>@@AEBV?$allocator@H@2@@?$allocator_traits@V?$allocator@V?$_Func_impl@V<lambda_803b1ba7fe072d17e44d74762d6426f9>@@V?$allocator@H@std@@XAEAV?$shared_ptr@VBase@Nodes@ofxRulr@@@3@@std@@@std@@@std@@SAXAEAV?$allocator@V?$_Func_impl@V<lambda_803b1ba7fe072d17e44d74762d6426f9>@@V?$allocator@H@std@@XAEAV?$shared_ptr@VBase@Nodes@ofxRulr@@@3@@std@@@1@PEAV?$_Func_impl@V<lambda_803b1ba7fe072d17e44d74762d6426f9>@@V?$allocator@H@std@@XAEAV?$shared_ptr@VBase@Nodes@ofxRulr@@@3@@1@AEBV<lambda_803b1ba7fe072d17e44d74762d6426f9>@@AEBV?$allocator@H@1@@Z
	??$construct@V?$_Func_impl@V<lambda_803b1ba7fe072d17e44d74762d6426f9>@@V?$allocator@H@std@@XAEAV?$shared_ptr@VBase@Nodes@ofxRulr@@@3@@std@@V<lambda_803b1ba7fe072d17e44d74762d6426f9>@@AEBV?$allocator@H@2@@?$_Wrap_alloc@V?$allocator@V?$_Func_impl@V<lambda_803b1ba7fe072d17e44d74762d6426f9>@@V?$allocator@H@std@@XAEAV?$shared_ptr@VBase@Nodes@ofxRulr@@@3@@std@@@std@@@std@@QEAAXPEAV?$_Func_impl@V<lambda_803b1ba7fe072d17e44d74762d6426f9>@@V?$allocator@H@std@@XAEAV?$shared_ptr@VBase@Nodes@ofxRulr@@@3@@1@$$QEAV<lambda_803b1ba7fe072d17e44d74762d6426f9>@@AEBV?$allocator@H@1@@Z
	??$construct@V?$_Func_impl@V<lambda_803b1ba7fe072d17e44d74762d6426f9>@@V?$allocator@H@std@@XAEAV?$shared_ptr@VBase@Nodes@ofxRulr@@@3@@std@@V<lambda_803b1ba7fe072d17e44d74762d6426f9>@@AEBV?$allocator@H@2@@?$allocator@V?$_Func_impl@V<lambda_803b1ba7fe072d17e44d74762d6426f9>@@V?$allocator@H@std@@XAEAV?$shared_ptr@VBase@Nodes@ofxRulr@@@3@@std@@@std@@QEAAXPEAV?$_Func_impl@V<lambda_803b1ba7fe072d17e44d74762d6426f9>@@V?$allocator@H@std@@XAEAV?$shared_ptr@VBase@Nodes@ofxRulr@@@3@@1@$$QEAV<lambda_803b1ba7fe072d17e44d74762d6426f9>@@AEBV?$allocator@H@1@@Z
	??$construct@V?$_Func_impl@V<lambda_803b1ba7fe072d17e44d74762d6426f9>@@V?$allocator@H@std@@XAEAV?$shared_ptr@VBase@Nodes@ofxRulr@@@3@@std@@V<lambda_803b1ba7fe072d17e44d74762d6426f9>@@AEBV?$allocator@H@2@@?$allocator_traits@V?$allocator@V?$_Func_impl@V<lambda_803b1ba7fe072d17e44d74762d6426f9>@@V?$allocator@H@std@@XAEAV?$shared_ptr@VBase@Nodes@ofxRulr@@@3@@std@@@std@@@std@@SAXAEAV?$allocator@V?$_Func_impl@V<lambda_803b1ba7fe072d17e44d74762d6426f9>@@V?$allocator@H@std@@XAEAV?$shared_ptr@VBase@Nodes@ofxRulr@@@3@@std@@@1@PEAV?$_Func_impl@V<lambda_803b1ba7fe072d17e44d74762d6426f9>@@V?$allocator@H@std@@XAEAV?$shared_ptr@VBase@Nodes@ofxRulr@@@3@@1@$$QEAV<lambda_803b1ba7fe072d17e44d74762d6426f9>@@AEBV?$allocator@H@1@@Z
	??$construct@V?$_Func_impl@V<lambda_803b1ba7fe072d17e44d74762d6426f9>@@V?$allocator@H@std@@XAEAV?$shared_ptr@VBase@Nodes@ofxRulr@@@3@@std@@V<lambda_803b1ba7fe072d17e44d74762d6426f9>@@V?$allocator@H@2@@?$_Wrap_alloc@V?$allocator@V?$_Func_impl@V<lambda_803b1ba7fe072d17e44d74762d6426f9>@@V?$allocator@H@std@@XAEAV?$shared_ptr@VBase@Nodes@ofxRulr@@@3@@std@@@std@@@std@@QEAAXPEAV?$_Func_impl@V<lambda_803b1ba7fe072d17e44d74762d6426f9>@@V?$allocator@H@std@@XAEAV?$shared_ptr@VBase@Nodes@ofxRulr@@@3@@1@$$QEAV<lambda_803b1ba7fe072d17e44d74762d6426f9>@@$$QEAV?$allocator@H@1@@Z
	??$construct@V?$_Func_impl@V<lambda_803b1ba7fe072d17e44d74762d6426f9>@@V?$allocator@H@std@@XAEAV?$shared_ptr@VBase@Nodes@ofxRulr@@@3@@std@@V<lambda_803b1ba7fe072d17e44d74762d6426f9>@@V?$allocator@H@2@@?$allocator@V?$_Func_impl@V<lambda_803b1ba7fe072d17e44d74762d6426f9>@@V?$allocator@H@std@@XAEAV?$shared_ptr@VBase@Nodes@ofxRulr@@@3@@std@@@std@@QEAAXPEAV?$_Func_impl@V<lambda_803b1ba7fe072d17e44d74762d6426f9>@@V?$allocator@H@std@@XAEAV?$shared_ptr@VBase@Nodes@ofxRulr@@@3@@1@$$QEAV<lambda_803b1ba7fe072d17e44d74762d6426f9>@@$$QEAV?$allocator@H@1@@Z
	??$construct@V?$_Func_impl@V<lambda_803b1ba7fe072d17e44d74762d6426f9>@@V?$allocator@H@std@@XAEAV?$shared_ptr@VBase@Nodes@ofxRulr@@@3@@std@@V<lambda_803b1ba7fe072d17e44d74762d6426f9>@@V?$allocator@H@2@@?$allocator_traits@V?$allocator@V?$_Func_impl@V<lambda_803b1ba7fe072d17e44d74762d6426f9>@@V?$allocator@H@std@@XAEAV?$shared_ptr@VBase@Nodes@ofxRulr@@@3@@std@@@std@@@std@@SAXAEAV?$allocator@V?$_Func_impl@V<lambda_803b1ba7fe072d17e44d74762d6426f9>@@V?$allocator@H@std@@XAEAV?$shared_ptr@VBase@Nodes@ofxRulr@@@3@@std@@@1@PEAV?$_Func_impl@V<lambda_803b1ba7fe072d17e44d74762d6426f9>@@V?$allocator@H@std@@XAEAV?$shared_ptr@VBase@Nodes@ofxRulr@@@3@@1@$$QEAV<lambda_803b1ba7fe072d17e44d74762d6426f9>@@$$QEAV?$allocator@H@1@@Z
	??$construct@V?$_Func_impl@V<lambda_88e5fe8ae475e6db1ed58f507cc891a3>@@V?$allocator@H@std@@X$$V@std@@AEBV<lambda_88e5fe8ae475e6db1ed58f507cc891a3>@@AEBV?$allocator@H@2@@?$_Wrap_alloc@V?$allocator@V?$_Func_impl@V<lambda_88e5fe8ae475e6db1ed58f507cc891a3>@@V?$allocator@H@std@@X$$V@std@@@std@@@std@@QEAAXPEAV?$_Func_impl@V<lambda_88e5fe8ae475e6db1ed58f507cc891a3>@@V?$allocator@H@std@@X$$V@1@AEBV<lambda_88e5fe8ae475e6db1ed58f507cc891a3>@@AEBV?$allocator@H@1@@Z
	??$construct@V?$_Func_impl@V<lambda_88e5fe8ae475e6db1ed58f507cc891a3>@@V?$allocator@H@std@@X$$V@std@@AEBV<lambda_88e5fe8ae475e6db1ed58f507cc891a3>@@AEBV?$allocator@H@2@@?$allocator@V?$_Func_impl@V<lambda_88e5fe8ae475e6db1ed58f507cc891a3>@@V?$allocator@H@std@@X$$V@std@@@std@@QEAAXPEAV?$_Func_impl@V<lambda_88e5fe8ae475e6db1ed58f507cc891a3>@@V?$allocator@H@std@@X$$V@1@AEBV<lambda_88e5fe8ae475e6db1ed58f507cc891a3>@@AEBV?$allocator@H@1@@Z
	??$construct@V?$_Func_impl@V<lambda_88e5fe8ae475e6db1ed58f507cc891a3>@@V?$allocator@H@std@@X$$V@std@@AEBV<lambda_88e5fe8ae475e6db1ed58f507cc891a3>@@AEBV?$allocator@H@2@@?$allocator_traits@V?$allocator@V?$_Func_impl@V<lambda_88e5fe8ae475e6db1ed58f507cc891a3>@@V?$allocator@H@std@@X$$V@std@@@std@@@std@@SAXAEAV?$allocator@V?$_Func_impl@V<lambda_88e5fe8ae475e6db1ed58f507cc891a3>@@V?$allocator@H@std@@X$$V@std@@@1@PEAV?$_Func_impl@V<lambda_88e5fe8ae475e6db1ed58f507cc891a3>@@V?$allocator@H@std@@X$$V@1@AEBV<lambda_88e5fe8ae475e6db1ed58f507cc891a3>@@AEBV?$allocator@H@1@@Z
	??$construct@V?$_Func_impl@V<lambda_88e5fe8ae475e6db1ed58f507cc891a3>@@V?$allocator@H@std@@X$$V@std@@V<lambda_88e5fe8ae475e6db1ed58f507cc891a3>@@AEBV?$allocator@H@2@@?$_Wrap_alloc@V?$allocator@V?$_Func_impl@V<lambda_88e5fe8ae475e6db1ed58f507cc891a3>@@V?$allocator@H@std@@X$$V@std@@@std@@@std@@QEAAXPEAV?$_Func_impl@V<lambda_88e5fe8ae475e6db1ed58f507cc891a3>@@V?$allocator@H@std@@X$$V@1@$$QEAV<lambda_88e5fe8ae475e6db1ed58f507cc891a3>@@AEBV?$allocator@H@1@@Z
	??$construct@V?$_Func_impl@V<lambda_88e5fe8ae475e6db1ed58f507cc891a3>@@V?$allocator@H@std@@X$$V@std@@V<lambda_88e5fe8ae475e6db1ed58f507cc891a3>@@AEBV?$allocator@H@2@@?$allocator@V?$_Func_impl@V<lambda_88e5fe8ae475e6db1ed58f507cc891a3>@@V?$allocator@H@std@@X$$V@std@@@std@@QEAAXPEAV?$_Func_impl@V<lambda_88e5fe8ae475e6db1ed58f507cc891a3>@@V?$allocator@H@std@@X$$V@1@$$QEAV<lambda_88e5fe8ae475e6db1ed58f507cc891a3>@@AEBV?$allocator@H@1@@Z
	??$construct@V?$_Func_impl@V<lambda_88e5fe8ae475e6db1ed58f507cc891a3>@@V?$allocator@H@std@@X$$V@std@@V<lambda_88e5fe8ae475e6db1ed58f507cc891a3>@@AEBV?$allocator@H@2@@?$allocator_traits@V?$allocator@V?$_Func_impl@V<lambda_88e5fe8ae475e6db1ed58f507cc891a3>@@V?$allocator@H@std@@X$$V@std@@@std@@@std@@SAXAEAV?$allocator@V?$_Func_impl@V<lambda_88e5fe8ae475e6db1ed58f507cc891a3>@@V?$allocator@H@std@@X$$V@std@@@1@PEAV?$_Func_impl@V<lambda_88e5fe8ae475e6db1ed58f507cc891a3>@@V?$allocator@H@std@@X$$V@1@$$QEAV<lambda_88e5fe8ae475e6db1ed58f507cc891a3>@@AEBV?$allocator@H@1@@Z
	??$construct@V?$_Func_impl@V<lambda_88e5fe8ae475e6db1ed58f507cc891a3>@@V?$allocator@H@std@@X$$V@std@@V<lambda_88e5fe8ae475e6db1ed58f507cc891a3>@@V?$allocator@H@2@@?$_Wrap_alloc@V?$allocator@V?$_Func_impl@V<lambda_88e5fe8ae475e6db1ed58f507cc891a3>@@V?$allocator@H@std@@X$$V@std@@@std@@@std@@QEAAXPEAV?$_Func_impl@V<lambda_88e5fe8ae475e6db1ed58f507cc891a3>@@V?$allocator@H@std@@X$$V@1@$$QEAV<lambda_88e5fe8ae475e6db1ed58f507cc891a3>@@$$QEAV?$allocator@H@1@@Z
	??$construct@V?$_Func_impl@V<lambda_88e5fe8ae475e6db1ed58f507cc891a3>@@V?$allocator@H@std@@X$$V@std@@V<lambda_88e5fe8ae475e6db1ed58f507cc891a3>@@V?$allocator@H@2@@?$allocator@V?$_Func_impl@V<lambda_88e5fe8ae475e6db1ed58f507cc891a3>@@V?$allocator@H@std@@X$$V@std@@@std@@QEAAXPEAV?$_Func_impl@V<lambda_88e5fe8ae475e6db1ed58f507cc891a3>@@V?$allocator@H@std@@X$$V@1@$$QEAV<lambda_88e5fe8ae475e6db1ed58f507cc891a3>@@$$QEAV?$allocator@H@1@@Z
	??$construct@V?$_Func_impl@V<lambda_88e5fe8ae475e6db1ed58f507cc891a3>@@V?$allocator@H@std@@X$$V@std@@V<lambda_88e5fe8ae475e6db1ed58f507cc891a3>@@V?$allocator@H@2@@?$allocator_traits@V?$allocator@V?$_Func_impl@V<lambda_88e5fe8ae475e6db1ed58f507cc891a3>@@V?$allocator@H@std@@X$$V@std@@@std@@@std@@SAXAEAV?$allocator@V?$_Func_impl@V<lambda_88e5fe8ae475e6db1ed58f507cc891a3>@@V?$allocator@H@std@@X$$V@std@@@1@PEAV?$_Func_impl@V<lambda_88e5fe8ae475e6db1ed58f507cc891a3>@@V?$allocator@H@std@@X$$V@1@$$QEAV<lambda_88e5fe8ae475e6db1ed58f507cc891a3>@@$$QEAV?$allocator@H@1@@Z
	??$construct@V?$_Func_impl@V<lambda_c18f35e87dc7db20c98795776406a3db>@@V?$allocator@H@std@@XAEAVMouseArguments@ofxCvGui@@@std@@AEBV<lambda_c18f35e87dc7db20c98795776406a3db>@@AEBV?$allocator@H@2@@?$_Wrap_alloc@V?$allocator@V?$_Func_impl@V<lambda_c18f35e87dc7db20c98795776406a3db>@@V?$allocator@H@std@@XAEAVMouseArguments@ofxCvGui@@@std@@@std@@@std@@QEAAXPEAV?$_Func_impl@V<lambda_c18f35e87dc7db20c98795776406a3db>@@V?$allocator@H@std@@XAEAVMouseArguments@ofxCvGui@@@1@AEBV<lambda_c18f35e87dc7db20c98795776406a3db>@@AEBV?$allocator@H@1@@Z
	??$construct@V?$_Func_impl@V<lambda_c18f35e87dc7db20c98795776406a3db>@@V?$allocator@H@std@@XAEAVMouseArguments@ofxCvGui@@@std@@AEBV<lambda_c18f35e87dc7db20c98795776406a3db>@@AEBV?$allocator@H@2@@?$allocator@V?$_Func_impl@V<lambda_c18f35e87dc7db20c98795776406a3db>@@V?$allocator@H@std@@XAEAVMouseArguments@ofxCvGui@@@std@@@std@@QEAAXPEAV?$_Func_impl@V<lambda_c18f35e87dc7db20c98795776406a3db>@@V?$allocator@H@std@@XAEAVMouseArguments@ofxCvGui@@@1@AEBV<lambda_c18f35e87dc7db20c98795776406a3db>@@AEBV?$allocator@H@1@@Z
	??$construct@V?$_Func_impl@V<lambda_c18f35e87dc7db20c98795776406a3db>@@V?$allocator@H@std@@XAEAVMouseArguments@ofxCvGui@@@std@@AEBV<lambda_c18f35e87dc7db20c98795776406a3db>@@AEBV?$allocator@H@2@@?$allocator_traits@V?$allocator@V?$_Func_impl@V<lambda_c18f35e87dc7db20c98795776406a3db>@@V?$allocator@H@std@@XAEAVMouseArguments@ofxCvGui@@@std@@@std@@@std@@SAXAEAV?$allocator@V?$_Func_impl@V<lambda_c18f35e87dc7db20c98795776406a3db>@@V?$allocator@H@std@@XAEAVMouseArguments@ofxCvGui@@@std@@@1@PEAV?$_Func_impl@V<lambda_c18f35e87dc7db20c98795776406a3db>@@V?$allocator@H@std@@XAEAVMouseArguments@ofxCvGui@@@1@AEBV<lambda_c18f35e87dc7db20c98795776406a3db>@@AEBV?$allocator@H@1@@Z
	??$construct@V?$_Func_impl@V<lambda_c18f35e87dc7db20c98795776406a3db>@@V?$allocator@H@std@@XAEAVMouseArguments@ofxCvGui@@@std@@V<lambda_c18f35e87dc7db20c98795776406a3db>@@AEBV?$allocator@H@2@@?$_Wrap_alloc@V?$allocator@V?$_Func_impl@V<lambda_c18f35e87dc7db20c98795776406a3db>@@V?$allocator@H@std@@XAEAVMouseArguments@ofxCvGui@@@std@@@std@@@std@@QEAAXPEAV?$_Func_impl@V<lambda_c18f35e87dc7db20c98795776406a3db>@@V?$allocator@H@std@@XAEAVMouseArguments@ofxCvGui@@@1@$$QEAV<lambda_c18f35e87dc7db20c98795776406a3db>@@AEBV?$allocator@H@1@@Z
	??$construct@V?$_Func_impl@V<lambda_c18f35e87dc7db20c98795776406a3db>@@V?$allocator@H@std@@XAEAVMouseArguments@ofxCvGui@@@std@@V<lambda_c18f35e87dc7db20c98795776406a3db>@@AEBV?$allocator@H@2@@?$allocator@V?$_Func_impl@V<lambda_c18f35e87dc7db20c98795776406a3db>@@V?$allocator@H@std@@XAEAVMouseArguments@ofxCvGui@@@std@@@std@@QEAAXPEAV?$_Func_impl@V<lambda_c18f35e87dc7db20c98795776406a3db>@@V?$allocator@H@std@@XAEAVMouseArguments@ofxCvGui@@@1@$$QEAV<lambda_c18f35e87dc7db20c98795776406a3db>@@AEBV?$allocator@H@1@@Z
	??$construct@V?$_Func_impl@V<lambda_c18f35e87dc7db20c98795776406a3db>@@V?$allocator@H@std@@XAEAVMouseArguments@ofxCvGui@@@std@@V<lambda_c18f35e87dc7db20c98795776406a3db>@@AEBV?$allocator@H@2@@?$allocator_traits@V?$allocator@V?$_Func_impl@V<lambda_c18f35e87dc7db20c98795776406a3db>@@V?$allocator@H@std@@XAEAVMouseArguments@ofxCvGui@@@std@@@std@@@std@@SAXAEAV?$allocator@V?$_Func_impl@V<lambda_c18f35e87dc7db20c98795776406a3db>@@V?$allocator@H@std@@XAEAVMouseArguments@ofxCvGui@@@std@@@1@PEAV?$_Func_impl@V<lambda_c18f35e87dc7db20c98795776406a3db>@@V?$allocator@H@std@@XAEAVMouseArguments@ofxCvGui@@@1@$$QEAV<lambda_c18f35e87dc7db20c98795776406a3db>@@AEBV?$allocator@H@1@@Z
	??$construct@V?$_Func_impl@V<lambda_c18f35e87dc7db20c98795776406a3db>@@V?$allocator@H@std@@XAEAVMouseArguments@ofxCvGui@@@std@@V<lambda_c18f35e87dc7db20c98795776406a3db>@@V?$allocator@H@2@@?$_Wrap_alloc@V?$allocator@V?$_Func_impl@V<lambda_c18f35e87dc7db20c98795776406a3db>@@V?$allocator@H@std@@XAEAVMouseArguments@ofxCvGui@@@std@@@std@@@std@@QEAAXPEAV?$_Func_impl@V<lambda_c18f35e87dc7db20c98795776406a3db>@@V?$allocator@H@std@@XAEAVMouseArguments@ofxCvGui@@@1@$$QEAV<lambda_c18f35e87dc7db20c98795776406a3db>@@$$QEAV?$allocator@H@1@@Z
